Archive member included because of file (symbol)

c:/altera/13.0sp1/nios2eds/bin/gnu/h-i686-mingw32/bin/../lib/gcc/nios2-elf/4.1.2\libgcc.a(_fixunsdfsi.o)
                              obj/default/dm9000a.o (__fixunsdfsi)
c:/altera/13.0sp1/nios2eds/bin/gnu/h-i686-mingw32/bin/../lib/gcc/nios2-elf/4.1.2\libgcc.a(_addsub_df.o)
                              c:/altera/13.0sp1/nios2eds/bin/gnu/h-i686-mingw32/bin/../lib/gcc/nios2-elf/4.1.2\libgcc.a(_fixunsdfsi.o) (__subdf3)
c:/altera/13.0sp1/nios2eds/bin/gnu/h-i686-mingw32/bin/../lib/gcc/nios2-elf/4.1.2\libgcc.a(_mul_df.o)
                              obj/default/dm9000a.o (__muldf3)
c:/altera/13.0sp1/nios2eds/bin/gnu/h-i686-mingw32/bin/../lib/gcc/nios2-elf/4.1.2\libgcc.a(_ge_df.o)
                              c:/altera/13.0sp1/nios2eds/bin/gnu/h-i686-mingw32/bin/../lib/gcc/nios2-elf/4.1.2\libgcc.a(_fixunsdfsi.o) (__gedf2)
c:/altera/13.0sp1/nios2eds/bin/gnu/h-i686-mingw32/bin/../lib/gcc/nios2-elf/4.1.2\libgcc.a(_df_to_si.o)
                              c:/altera/13.0sp1/nios2eds/bin/gnu/h-i686-mingw32/bin/../lib/gcc/nios2-elf/4.1.2\libgcc.a(_fixunsdfsi.o) (__fixdfsi)
c:/altera/13.0sp1/nios2eds/bin/gnu/h-i686-mingw32/bin/../lib/gcc/nios2-elf/4.1.2\libgcc.a(_thenan_df.o)
                              c:/altera/13.0sp1/nios2eds/bin/gnu/h-i686-mingw32/bin/../lib/gcc/nios2-elf/4.1.2\libgcc.a(_addsub_df.o) (__thenan_df)
c:/altera/13.0sp1/nios2eds/bin/gnu/h-i686-mingw32/bin/../lib/gcc/nios2-elf/4.1.2\libgcc.a(_usi_to_df.o)
                              obj/default/dm9000a.o (__floatunsidf)
c:/altera/13.0sp1/nios2eds/bin/gnu/h-i686-mingw32/bin/../lib/gcc/nios2-elf/4.1.2\libgcc.a(_muldi3.o)
                              c:/altera/13.0sp1/nios2eds/bin/gnu/h-i686-mingw32/bin/../lib/gcc/nios2-elf/4.1.2\libgcc.a(_mul_df.o) (__muldi3)
c:/altera/13.0sp1/nios2eds/bin/gnu/h-i686-mingw32/bin/../lib/gcc/nios2-elf/4.1.2\libgcc.a(_clzsi2.o)
                              c:/altera/13.0sp1/nios2eds/bin/gnu/h-i686-mingw32/bin/../lib/gcc/nios2-elf/4.1.2\libgcc.a(_usi_to_df.o) (__clzsi2)
c:/altera/13.0sp1/nios2eds/bin/gnu/h-i686-mingw32/bin/../lib/gcc/nios2-elf/4.1.2\libgcc.a(_pack_df.o)
                              c:/altera/13.0sp1/nios2eds/bin/gnu/h-i686-mingw32/bin/../lib/gcc/nios2-elf/4.1.2\libgcc.a(_addsub_df.o) (__pack_d)
c:/altera/13.0sp1/nios2eds/bin/gnu/h-i686-mingw32/bin/../lib/gcc/nios2-elf/4.1.2\libgcc.a(_unpack_df.o)
                              c:/altera/13.0sp1/nios2eds/bin/gnu/h-i686-mingw32/bin/../lib/gcc/nios2-elf/4.1.2\libgcc.a(_addsub_df.o) (__unpack_d)
c:/altera/13.0sp1/nios2eds/bin/gnu/h-i686-mingw32/bin/../lib/gcc/nios2-elf/4.1.2\libgcc.a(_fpcmp_parts_df.o)
                              c:/altera/13.0sp1/nios2eds/bin/gnu/h-i686-mingw32/bin/../lib/gcc/nios2-elf/4.1.2\libgcc.a(_ge_df.o) (__fpcmp_parts_d)
c:/altera/13.0sp1/nios2eds/bin/gnu/h-i686-mingw32/bin/../lib/gcc/nios2-elf/4.1.2\libgcc.a(_clz.o)
                              c:/altera/13.0sp1/nios2eds/bin/gnu/h-i686-mingw32/bin/../lib/gcc/nios2-elf/4.1.2\libgcc.a(_clzsi2.o) (__clz_tab)
c:/altera/13.0sp1/nios2eds/bin/gnu/h-i686-mingw32/bin/../lib/gcc/nios2-elf/4.1.2/../../../../nios2-elf/lib\libc.a(lib_a-atoi.o)
                              obj/default/iniche_init.o (atoi)
c:/altera/13.0sp1/nios2eds/bin/gnu/h-i686-mingw32/bin/../lib/gcc/nios2-elf/4.1.2/../../../../nios2-elf/lib\libc.a(lib_a-ctype_.o)
                              obj/default/network_utilities.o (__ctype_ptr)
c:/altera/13.0sp1/nios2eds/bin/gnu/h-i686-mingw32/bin/../lib/gcc/nios2-elf/4.1.2/../../../../nios2-elf/lib\libc.a(lib_a-errno.o)
                              obj/default/iniche_init.o (__errno)
c:/altera/13.0sp1/nios2eds/bin/gnu/h-i686-mingw32/bin/../lib/gcc/nios2-elf/4.1.2/../../../../nios2-elf/lib\libc.a(lib_a-exit.o)
                              obj/default/iniche_init.o (exit)
c:/altera/13.0sp1/nios2eds/bin/gnu/h-i686-mingw32/bin/../lib/gcc/nios2-elf/4.1.2/../../../../nios2-elf/lib\libc.a(lib_a-fprintf.o)
                              obj/default/alt_error_handler.o (fprintf)
c:/altera/13.0sp1/nios2eds/bin/gnu/h-i686-mingw32/bin/../lib/gcc/nios2-elf/4.1.2/../../../../nios2-elf/lib\libc.a(lib_a-fwrite.o)
                              obj/default/alt_error_handler.o (fwrite)
c:/altera/13.0sp1/nios2eds/bin/gnu/h-i686-mingw32/bin/../lib/gcc/nios2-elf/4.1.2/../../../../nios2-elf/lib\libc.a(lib_a-getc.o)
                              obj/default/network_utilities.o (getc)
c:/altera/13.0sp1/nios2eds/bin/gnu/h-i686-mingw32/bin/../lib/gcc/nios2-elf/4.1.2/../../../../nios2-elf/lib\libc.a(lib_a-impure.o)
                              obj/default/alt_error_handler.o (_impure_ptr)
c:/altera/13.0sp1/nios2eds/bin/gnu/h-i686-mingw32/bin/../lib/gcc/nios2-elf/4.1.2/../../../../nios2-elf/lib\libc.a(lib_a-memcpy.o)
                              obj/default/simple_socket_server.o (memcpy)
c:/altera/13.0sp1/nios2eds/bin/gnu/h-i686-mingw32/bin/../lib/gcc/nios2-elf/4.1.2/../../../../nios2-elf/lib\libc.a(lib_a-memmove.o)
                              obj/default/simple_socket_server.o (memmove)
c:/altera/13.0sp1/nios2eds/bin/gnu/h-i686-mingw32/bin/../lib/gcc/nios2-elf/4.1.2/../../../../nios2-elf/lib\libc.a(lib_a-memset.o)
                              obj/default/iniche_init.o (memset)
c:/altera/13.0sp1/nios2eds/bin/gnu/h-i686-mingw32/bin/../lib/gcc/nios2-elf/4.1.2/../../../../nios2-elf/lib\libc.a(lib_a-perror.o)
                              obj/default/alt_error_handler.o (perror)
c:/altera/13.0sp1/nios2eds/bin/gnu/h-i686-mingw32/bin/../lib/gcc/nios2-elf/4.1.2/../../../../nios2-elf/lib\libc.a(lib_a-printf.o)
                              obj/default/SSS_DE2_115.o (printf)
c:/altera/13.0sp1/nios2eds/bin/gnu/h-i686-mingw32/bin/../lib/gcc/nios2-elf/4.1.2/../../../../nios2-elf/lib\libc.a(lib_a-putc.o)
                              obj/default/network_utilities.o (putc)
c:/altera/13.0sp1/nios2eds/bin/gnu/h-i686-mingw32/bin/../lib/gcc/nios2-elf/4.1.2/../../../../nios2-elf/lib\libc.a(lib_a-putchar.o)
                              obj/default/network_utilities.o (putchar)
c:/altera/13.0sp1/nios2eds/bin/gnu/h-i686-mingw32/bin/../lib/gcc/nios2-elf/4.1.2/../../../../nios2-elf/lib\libc.a(lib_a-puts.o)
                              obj/default/SSS_DE2_115.o (puts)
c:/altera/13.0sp1/nios2eds/bin/gnu/h-i686-mingw32/bin/../lib/gcc/nios2-elf/4.1.2/../../../../nios2-elf/lib\libc.a(lib_a-rand.o)
                              obj/default/iniche_init.o (srand)
c:/altera/13.0sp1/nios2eds/bin/gnu/h-i686-mingw32/bin/../lib/gcc/nios2-elf/4.1.2/../../../../nios2-elf/lib\libc.a(lib_a-rget.o)
                              c:/altera/13.0sp1/nios2eds/bin/gnu/h-i686-mingw32/bin/../lib/gcc/nios2-elf/4.1.2/../../../../nios2-elf/lib\libc.a(lib_a-getc.o) (__srget_r)
c:/altera/13.0sp1/nios2eds/bin/gnu/h-i686-mingw32/bin/../lib/gcc/nios2-elf/4.1.2/../../../../nios2-elf/lib\libc.a(lib_a-sprintf.o)
                              obj/default/iniche_init.o (sprintf)
c:/altera/13.0sp1/nios2eds/bin/gnu/h-i686-mingw32/bin/../lib/gcc/nios2-elf/4.1.2/../../../../nios2-elf/lib\libc.a(lib_a-strchr.o)
                              obj/default/simple_socket_server.o (strchr)
c:/altera/13.0sp1/nios2eds/bin/gnu/h-i686-mingw32/bin/../lib/gcc/nios2-elf/4.1.2/../../../../nios2-elf/lib\libc.a(lib_a-strcmp.o)
                              obj/default/iniche_init.o (strcmp)
c:/altera/13.0sp1/nios2eds/bin/gnu/h-i686-mingw32/bin/../lib/gcc/nios2-elf/4.1.2/../../../../nios2-elf/lib\libc.a(lib_a-strerror.o)
                              obj/default/iniche_init.o (strerror)
c:/altera/13.0sp1/nios2eds/bin/gnu/h-i686-mingw32/bin/../lib/gcc/nios2-elf/4.1.2/../../../../nios2-elf/lib\libc.a(lib_a-strlen.o)
                              obj/default/LCD.o (strlen)
c:/altera/13.0sp1/nios2eds/bin/gnu/h-i686-mingw32/bin/../lib/gcc/nios2-elf/4.1.2/../../../../nios2-elf/lib\libc.a(lib_a-strtol.o)
                              c:/altera/13.0sp1/nios2eds/bin/gnu/h-i686-mingw32/bin/../lib/gcc/nios2-elf/4.1.2/../../../../nios2-elf/lib\libc.a(lib_a-atoi.o) (_strtol_r)
c:/altera/13.0sp1/nios2eds/bin/gnu/h-i686-mingw32/bin/../lib/gcc/nios2-elf/4.1.2/../../../../nios2-elf/lib\libc.a(lib_a-time.o)
                              obj/default/iniche_init.o (time)
c:/altera/13.0sp1/nios2eds/bin/gnu/h-i686-mingw32/bin/../lib/gcc/nios2-elf/4.1.2/../../../../nios2-elf/lib\libc.a(lib_a-u_strerr.o)
                              c:/altera/13.0sp1/nios2eds/bin/gnu/h-i686-mingw32/bin/../lib/gcc/nios2-elf/4.1.2/../../../../nios2-elf/lib\libc.a(lib_a-strerror.o) (_user_strerror)
c:/altera/13.0sp1/nios2eds/bin/gnu/h-i686-mingw32/bin/../lib/gcc/nios2-elf/4.1.2/../../../../nios2-elf/lib\libc.a(lib_a-vfprintf.o)
                              c:/altera/13.0sp1/nios2eds/bin/gnu/h-i686-mingw32/bin/../lib/gcc/nios2-elf/4.1.2/../../../../nios2-elf/lib\libc.a(lib_a-printf.o) (___vfprintf_internal_r)
c:/altera/13.0sp1/nios2eds/bin/gnu/h-i686-mingw32/bin/../lib/gcc/nios2-elf/4.1.2/../../../../nios2-elf/lib\libc.a(lib_a-wbuf.o)
                              c:/altera/13.0sp1/nios2eds/bin/gnu/h-i686-mingw32/bin/../lib/gcc/nios2-elf/4.1.2/../../../../nios2-elf/lib\libc.a(lib_a-putc.o) (__swbuf_r)
c:/altera/13.0sp1/nios2eds/bin/gnu/h-i686-mingw32/bin/../lib/gcc/nios2-elf/4.1.2/../../../../nios2-elf/lib\libc.a(lib_a-wsetup.o)
                              c:/altera/13.0sp1/nios2eds/bin/gnu/h-i686-mingw32/bin/../lib/gcc/nios2-elf/4.1.2/../../../../nios2-elf/lib\libc.a(lib_a-vfprintf.o) (__swsetup_r)
c:/altera/13.0sp1/nios2eds/bin/gnu/h-i686-mingw32/bin/../lib/gcc/nios2-elf/4.1.2/../../../../nios2-elf/lib\libc.a(lib_a-__call_atexit.o)
                              c:/altera/13.0sp1/nios2eds/bin/gnu/h-i686-mingw32/bin/../lib/gcc/nios2-elf/4.1.2/../../../../nios2-elf/lib\libc.a(lib_a-exit.o) (__call_exitprocs)
c:/altera/13.0sp1/nios2eds/bin/gnu/h-i686-mingw32/bin/../lib/gcc/nios2-elf/4.1.2/../../../../nios2-elf/lib\libc.a(lib_a-dtoa.o)
                              c:/altera/13.0sp1/nios2eds/bin/gnu/h-i686-mingw32/bin/../lib/gcc/nios2-elf/4.1.2/../../../../nios2-elf/lib\libc.a(lib_a-vfprintf.o) (_dtoa_r)
c:/altera/13.0sp1/nios2eds/bin/gnu/h-i686-mingw32/bin/../lib/gcc/nios2-elf/4.1.2/../../../../nios2-elf/lib\libc.a(lib_a-fflush.o)
                              c:/altera/13.0sp1/nios2eds/bin/gnu/h-i686-mingw32/bin/../lib/gcc/nios2-elf/4.1.2/../../../../nios2-elf/lib\libc.a(lib_a-vfprintf.o) (_fflush_r)
c:/altera/13.0sp1/nios2eds/bin/gnu/h-i686-mingw32/bin/../lib/gcc/nios2-elf/4.1.2/../../../../nios2-elf/lib\libc.a(lib_a-findfp.o)
                              c:/altera/13.0sp1/nios2eds/bin/gnu/h-i686-mingw32/bin/../lib/gcc/nios2-elf/4.1.2/../../../../nios2-elf/lib\libc.a(lib_a-fwrite.o) (__sinit)
c:/altera/13.0sp1/nios2eds/bin/gnu/h-i686-mingw32/bin/../lib/gcc/nios2-elf/4.1.2/../../../../nios2-elf/lib\libc.a(lib_a-fputc.o)
                              c:/altera/13.0sp1/nios2eds/bin/gnu/h-i686-mingw32/bin/../lib/gcc/nios2-elf/4.1.2/../../../../nios2-elf/lib\libc.a(lib_a-perror.o) (fputc)
c:/altera/13.0sp1/nios2eds/bin/gnu/h-i686-mingw32/bin/../lib/gcc/nios2-elf/4.1.2/../../../../nios2-elf/lib\libc.a(lib_a-fputs.o)
                              c:/altera/13.0sp1/nios2eds/bin/gnu/h-i686-mingw32/bin/../lib/gcc/nios2-elf/4.1.2/../../../../nios2-elf/lib\libc.a(lib_a-perror.o) (fputs)
c:/altera/13.0sp1/nios2eds/bin/gnu/h-i686-mingw32/bin/../lib/gcc/nios2-elf/4.1.2/../../../../nios2-elf/lib\libc.a(lib_a-freer.o)
                              c:/altera/13.0sp1/nios2eds/bin/gnu/h-i686-mingw32/bin/../lib/gcc/nios2-elf/4.1.2/../../../../nios2-elf/lib\libc.a(lib_a-wsetup.o) (_free_r)
c:/altera/13.0sp1/nios2eds/bin/gnu/h-i686-mingw32/bin/../lib/gcc/nios2-elf/4.1.2/../../../../nios2-elf/lib\libc.a(lib_a-fvwrite.o)
                              c:/altera/13.0sp1/nios2eds/bin/gnu/h-i686-mingw32/bin/../lib/gcc/nios2-elf/4.1.2/../../../../nios2-elf/lib\libc.a(lib_a-fwrite.o) (__sfvwrite_r)
c:/altera/13.0sp1/nios2eds/bin/gnu/h-i686-mingw32/bin/../lib/gcc/nios2-elf/4.1.2/../../../../nios2-elf/lib\libc.a(lib_a-fwalk.o)
                              c:/altera/13.0sp1/nios2eds/bin/gnu/h-i686-mingw32/bin/../lib/gcc/nios2-elf/4.1.2/../../../../nios2-elf/lib\libc.a(lib_a-fflush.o) (_fwalk_reent)
c:/altera/13.0sp1/nios2eds/bin/gnu/h-i686-mingw32/bin/../lib/gcc/nios2-elf/4.1.2/../../../../nios2-elf/lib\libc.a(lib_a-gettimeofdayr.o)
                              c:/altera/13.0sp1/nios2eds/bin/gnu/h-i686-mingw32/bin/../lib/gcc/nios2-elf/4.1.2/../../../../nios2-elf/lib\libc.a(lib_a-time.o) (_gettimeofday_r)
c:/altera/13.0sp1/nios2eds/bin/gnu/h-i686-mingw32/bin/../lib/gcc/nios2-elf/4.1.2/../../../../nios2-elf/lib\libc.a(lib_a-int_errno.o)
                              c:/altera/13.0sp1/nios2eds/bin/gnu/h-i686-mingw32/bin/../lib/gcc/nios2-elf/4.1.2/../../../../nios2-elf/lib\libc.a(lib_a-gettimeofdayr.o) (errno)
c:/altera/13.0sp1/nios2eds/bin/gnu/h-i686-mingw32/bin/../lib/gcc/nios2-elf/4.1.2/../../../../nios2-elf/lib\libc.a(lib_a-locale.o)
                              c:/altera/13.0sp1/nios2eds/bin/gnu/h-i686-mingw32/bin/../lib/gcc/nios2-elf/4.1.2/../../../../nios2-elf/lib\libc.a(lib_a-vfprintf.o) (_localeconv_r)
c:/altera/13.0sp1/nios2eds/bin/gnu/h-i686-mingw32/bin/../lib/gcc/nios2-elf/4.1.2/../../../../nios2-elf/lib\libc.a(lib_a-makebuf.o)
                              c:/altera/13.0sp1/nios2eds/bin/gnu/h-i686-mingw32/bin/../lib/gcc/nios2-elf/4.1.2/../../../../nios2-elf/lib\libc.a(lib_a-wsetup.o) (__smakebuf_r)
c:/altera/13.0sp1/nios2eds/bin/gnu/h-i686-mingw32/bin/../lib/gcc/nios2-elf/4.1.2/../../../../nios2-elf/lib\libc.a(lib_a-mallocr.o)
                              c:/altera/13.0sp1/nios2eds/bin/gnu/h-i686-mingw32/bin/../lib/gcc/nios2-elf/4.1.2/../../../../nios2-elf/lib\libc.a(lib_a-findfp.o) (_malloc_r)
c:/altera/13.0sp1/nios2eds/bin/gnu/h-i686-mingw32/bin/../lib/gcc/nios2-elf/4.1.2/../../../../nios2-elf/lib\libc.a(lib_a-memchr.o)
                              c:/altera/13.0sp1/nios2eds/bin/gnu/h-i686-mingw32/bin/../lib/gcc/nios2-elf/4.1.2/../../../../nios2-elf/lib\libc.a(lib_a-vfprintf.o) (memchr)
c:/altera/13.0sp1/nios2eds/bin/gnu/h-i686-mingw32/bin/../lib/gcc/nios2-elf/4.1.2/../../../../nios2-elf/lib\libc.a(lib_a-mprec.o)
                              c:/altera/13.0sp1/nios2eds/bin/gnu/h-i686-mingw32/bin/../lib/gcc/nios2-elf/4.1.2/../../../../nios2-elf/lib\libc.a(lib_a-dtoa.o) (_Bfree)
c:/altera/13.0sp1/nios2eds/bin/gnu/h-i686-mingw32/bin/../lib/gcc/nios2-elf/4.1.2/../../../../nios2-elf/lib\libc.a(lib_a-reallocr.o)
                              c:/altera/13.0sp1/nios2eds/bin/gnu/h-i686-mingw32/bin/../lib/gcc/nios2-elf/4.1.2/../../../../nios2-elf/lib\libc.a(lib_a-fvwrite.o) (_realloc_r)
c:/altera/13.0sp1/nios2eds/bin/gnu/h-i686-mingw32/bin/../lib/gcc/nios2-elf/4.1.2/../../../../nios2-elf/lib\libc.a(lib_a-refill.o)
                              c:/altera/13.0sp1/nios2eds/bin/gnu/h-i686-mingw32/bin/../lib/gcc/nios2-elf/4.1.2/../../../../nios2-elf/lib\libc.a(lib_a-rget.o) (__srefill_r)
c:/altera/13.0sp1/nios2eds/bin/gnu/h-i686-mingw32/bin/../lib/gcc/nios2-elf/4.1.2/../../../../nios2-elf/lib\libc.a(lib_a-s_isinfd.o)
                              c:/altera/13.0sp1/nios2eds/bin/gnu/h-i686-mingw32/bin/../lib/gcc/nios2-elf/4.1.2/../../../../nios2-elf/lib\libc.a(lib_a-vfprintf.o) (__isinfd)
c:/altera/13.0sp1/nios2eds/bin/gnu/h-i686-mingw32/bin/../lib/gcc/nios2-elf/4.1.2/../../../../nios2-elf/lib\libc.a(lib_a-s_isnand.o)
                              c:/altera/13.0sp1/nios2eds/bin/gnu/h-i686-mingw32/bin/../lib/gcc/nios2-elf/4.1.2/../../../../nios2-elf/lib\libc.a(lib_a-vfprintf.o) (__isnand)
c:/altera/13.0sp1/nios2eds/bin/gnu/h-i686-mingw32/bin/../lib/gcc/nios2-elf/4.1.2/../../../../nios2-elf/lib\libc.a(lib_a-sbrkr.o)
                              c:/altera/13.0sp1/nios2eds/bin/gnu/h-i686-mingw32/bin/../lib/gcc/nios2-elf/4.1.2/../../../../nios2-elf/lib\libc.a(lib_a-freer.o) (_sbrk_r)
c:/altera/13.0sp1/nios2eds/bin/gnu/h-i686-mingw32/bin/../lib/gcc/nios2-elf/4.1.2/../../../../nios2-elf/lib\libc.a(lib_a-stdio.o)
                              c:/altera/13.0sp1/nios2eds/bin/gnu/h-i686-mingw32/bin/../lib/gcc/nios2-elf/4.1.2/../../../../nios2-elf/lib\libc.a(lib_a-findfp.o) (__sclose)
c:/altera/13.0sp1/nios2eds/bin/gnu/h-i686-mingw32/bin/../lib/gcc/nios2-elf/4.1.2/../../../../nios2-elf/lib\libc.a(lib_a-writer.o)
                              c:/altera/13.0sp1/nios2eds/bin/gnu/h-i686-mingw32/bin/../lib/gcc/nios2-elf/4.1.2/../../../../nios2-elf/lib\libc.a(lib_a-stdio.o) (_write_r)
c:/altera/13.0sp1/nios2eds/bin/gnu/h-i686-mingw32/bin/../lib/gcc/nios2-elf/4.1.2/../../../../nios2-elf/lib\libc.a(lib_a-callocr.o)
                              c:/altera/13.0sp1/nios2eds/bin/gnu/h-i686-mingw32/bin/../lib/gcc/nios2-elf/4.1.2/../../../../nios2-elf/lib\libc.a(lib_a-mprec.o) (_calloc_r)
c:/altera/13.0sp1/nios2eds/bin/gnu/h-i686-mingw32/bin/../lib/gcc/nios2-elf/4.1.2/../../../../nios2-elf/lib\libc.a(lib_a-closer.o)
                              c:/altera/13.0sp1/nios2eds/bin/gnu/h-i686-mingw32/bin/../lib/gcc/nios2-elf/4.1.2/../../../../nios2-elf/lib\libc.a(lib_a-stdio.o) (_close_r)
c:/altera/13.0sp1/nios2eds/bin/gnu/h-i686-mingw32/bin/../lib/gcc/nios2-elf/4.1.2/../../../../nios2-elf/lib\libc.a(lib_a-fclose.o)
                              c:/altera/13.0sp1/nios2eds/bin/gnu/h-i686-mingw32/bin/../lib/gcc/nios2-elf/4.1.2/../../../../nios2-elf/lib\libc.a(lib_a-findfp.o) (fclose)
c:/altera/13.0sp1/nios2eds/bin/gnu/h-i686-mingw32/bin/../lib/gcc/nios2-elf/4.1.2/../../../../nios2-elf/lib\libc.a(lib_a-fstatr.o)
                              c:/altera/13.0sp1/nios2eds/bin/gnu/h-i686-mingw32/bin/../lib/gcc/nios2-elf/4.1.2/../../../../nios2-elf/lib\libc.a(lib_a-makebuf.o) (_fstat_r)
c:/altera/13.0sp1/nios2eds/bin/gnu/h-i686-mingw32/bin/../lib/gcc/nios2-elf/4.1.2/../../../../nios2-elf/lib\libc.a(lib_a-isattyr.o)
                              c:/altera/13.0sp1/nios2eds/bin/gnu/h-i686-mingw32/bin/../lib/gcc/nios2-elf/4.1.2/../../../../nios2-elf/lib\libc.a(lib_a-makebuf.o) (_isatty_r)
c:/altera/13.0sp1/nios2eds/bin/gnu/h-i686-mingw32/bin/../lib/gcc/nios2-elf/4.1.2/../../../../nios2-elf/lib\libc.a(lib_a-lseekr.o)
                              c:/altera/13.0sp1/nios2eds/bin/gnu/h-i686-mingw32/bin/../lib/gcc/nios2-elf/4.1.2/../../../../nios2-elf/lib\libc.a(lib_a-stdio.o) (_lseek_r)
c:/altera/13.0sp1/nios2eds/bin/gnu/h-i686-mingw32/bin/../lib/gcc/nios2-elf/4.1.2/../../../../nios2-elf/lib\libc.a(lib_a-readr.o)
                              c:/altera/13.0sp1/nios2eds/bin/gnu/h-i686-mingw32/bin/../lib/gcc/nios2-elf/4.1.2/../../../../nios2-elf/lib\libc.a(lib_a-stdio.o) (_read_r)
c:/altera/13.0sp1/nios2eds/bin/gnu/h-i686-mingw32/bin/../lib/gcc/nios2-elf/4.1.2\libgcc.a(_udivdi3.o)
                              c:/altera/13.0sp1/nios2eds/bin/gnu/h-i686-mingw32/bin/../lib/gcc/nios2-elf/4.1.2/../../../../nios2-elf/lib\libc.a(lib_a-vfprintf.o) (__udivdi3)
c:/altera/13.0sp1/nios2eds/bin/gnu/h-i686-mingw32/bin/../lib/gcc/nios2-elf/4.1.2\libgcc.a(_umoddi3.o)
                              c:/altera/13.0sp1/nios2eds/bin/gnu/h-i686-mingw32/bin/../lib/gcc/nios2-elf/4.1.2/../../../../nios2-elf/lib\libc.a(lib_a-vfprintf.o) (__umoddi3)
c:/altera/13.0sp1/nios2eds/bin/gnu/h-i686-mingw32/bin/../lib/gcc/nios2-elf/4.1.2\libgcc.a(_div_df.o)
                              c:/altera/13.0sp1/nios2eds/bin/gnu/h-i686-mingw32/bin/../lib/gcc/nios2-elf/4.1.2/../../../../nios2-elf/lib\libc.a(lib_a-dtoa.o) (__divdf3)
c:/altera/13.0sp1/nios2eds/bin/gnu/h-i686-mingw32/bin/../lib/gcc/nios2-elf/4.1.2\libgcc.a(_eq_df.o)
                              c:/altera/13.0sp1/nios2eds/bin/gnu/h-i686-mingw32/bin/../lib/gcc/nios2-elf/4.1.2/../../../../nios2-elf/lib\libc.a(lib_a-vfprintf.o) (__eqdf2)
c:/altera/13.0sp1/nios2eds/bin/gnu/h-i686-mingw32/bin/../lib/gcc/nios2-elf/4.1.2\libgcc.a(_ne_df.o)
                              c:/altera/13.0sp1/nios2eds/bin/gnu/h-i686-mingw32/bin/../lib/gcc/nios2-elf/4.1.2/../../../../nios2-elf/lib\libc.a(lib_a-vfprintf.o) (__nedf2)
c:/altera/13.0sp1/nios2eds/bin/gnu/h-i686-mingw32/bin/../lib/gcc/nios2-elf/4.1.2\libgcc.a(_gt_df.o)
                              c:/altera/13.0sp1/nios2eds/bin/gnu/h-i686-mingw32/bin/../lib/gcc/nios2-elf/4.1.2/../../../../nios2-elf/lib\libc.a(lib_a-dtoa.o) (__gtdf2)
c:/altera/13.0sp1/nios2eds/bin/gnu/h-i686-mingw32/bin/../lib/gcc/nios2-elf/4.1.2\libgcc.a(_lt_df.o)
                              c:/altera/13.0sp1/nios2eds/bin/gnu/h-i686-mingw32/bin/../lib/gcc/nios2-elf/4.1.2/../../../../nios2-elf/lib\libc.a(lib_a-vfprintf.o) (__ltdf2)
c:/altera/13.0sp1/nios2eds/bin/gnu/h-i686-mingw32/bin/../lib/gcc/nios2-elf/4.1.2\libgcc.a(_si_to_df.o)
                              c:/altera/13.0sp1/nios2eds/bin/gnu/h-i686-mingw32/bin/../lib/gcc/nios2-elf/4.1.2/../../../../nios2-elf/lib\libc.a(lib_a-dtoa.o) (__floatsidf)
c:/altera/13.0sp1/nios2eds/bin/gnu/h-i686-mingw32/bin/../lib/gcc/nios2-elf/4.1.2\libgcc.a(lib2-divmod.o)
                              c:/altera/13.0sp1/nios2eds/bin/gnu/h-i686-mingw32/bin/../lib/gcc/nios2-elf/4.1.2/../../../../nios2-elf/lib\libc.a(lib_a-vfprintf.o) (__divsi3)
../rtc_socket_bsp/\libucosii_bsp.a(alt_exit.o)
                              c:/altera/13.0sp1/nios2eds/bin/gnu/h-i686-mingw32/bin/../lib/gcc/nios2-elf/4.1.2/../../../../nios2-elf/lib\libc.a(lib_a-exit.o) (_exit)
../rtc_socket_bsp/\libucosii_bsp.a(alt_flash_dev.o)
                              obj/default/SSS_DE2_115.o (alt_flash_open_dev)
../rtc_socket_bsp/\libucosii_bsp.a(alt_fstat.o)
                              c:/altera/13.0sp1/nios2eds/bin/gnu/h-i686-mingw32/bin/../lib/gcc/nios2-elf/4.1.2/../../../../nios2-elf/lib\libc.a(lib_a-fstatr.o) (fstat)
../rtc_socket_bsp/\libucosii_bsp.a(alt_gettod.o)
                              c:/altera/13.0sp1/nios2eds/bin/gnu/h-i686-mingw32/bin/../lib/gcc/nios2-elf/4.1.2/../../../../nios2-elf/lib\libc.a(lib_a-gettimeofdayr.o) (gettimeofday)
../rtc_socket_bsp/\libucosii_bsp.a(alt_irq_register.o)
                              obj/default/dm9000a.o (alt_irq_register)
../rtc_socket_bsp/\libucosii_bsp.a(alt_irq_vars.o)
                              ../rtc_socket_bsp/\libucosii_bsp.a(alt_irq_register.o) (alt_irq_active)
../rtc_socket_bsp/\libucosii_bsp.a(alt_isatty.o)
                              c:/altera/13.0sp1/nios2eds/bin/gnu/h-i686-mingw32/bin/../lib/gcc/nios2-elf/4.1.2/../../../../nios2-elf/lib\libc.a(lib_a-isattyr.o) (isatty)
../rtc_socket_bsp/\libucosii_bsp.a(alt_lseek.o)
                              c:/altera/13.0sp1/nios2eds/bin/gnu/h-i686-mingw32/bin/../lib/gcc/nios2-elf/4.1.2/../../../../nios2-elf/lib\libc.a(lib_a-lseekr.o) (lseek)
../rtc_socket_bsp/\libucosii_bsp.a(alt_main.o)
                              ../rtc_socket_bsp//obj/HAL/src/crt0.o (alt_main)
../rtc_socket_bsp/\libucosii_bsp.a(alt_sbrk.o)
                              c:/altera/13.0sp1/nios2eds/bin/gnu/h-i686-mingw32/bin/../lib/gcc/nios2-elf/4.1.2/../../../../nios2-elf/lib\libc.a(lib_a-sbrkr.o) (sbrk)
../rtc_socket_bsp/\libucosii_bsp.a(alt_tick.o)
                              ../rtc_socket_bsp/\libucosii_bsp.a(alt_gettod.o) (_alt_tick_rate)
../rtc_socket_bsp/\libucosii_bsp.a(alt_usleep.o)
                              obj/default/LCD.o (usleep)
../rtc_socket_bsp/\libucosii_bsp.a(alt_env_lock.o)
                              ../rtc_socket_bsp/\libucosii_bsp.a(alt_main.o) (alt_envsem)
../rtc_socket_bsp/\libucosii_bsp.a(alt_malloc_lock.o)
                              c:/altera/13.0sp1/nios2eds/bin/gnu/h-i686-mingw32/bin/../lib/gcc/nios2-elf/4.1.2/../../../../nios2-elf/lib\libc.a(lib_a-freer.o) (__malloc_lock)
../rtc_socket_bsp/\libucosii_bsp.a(os_core.o)
                              ../rtc_socket_bsp/\libucosii_bsp.a(alt_main.o) (OSInit)
../rtc_socket_bsp/\libucosii_bsp.a(os_dbg.o)
                              ../rtc_socket_bsp/\libucosii_bsp.a(os_core.o) (OSDebugInit)
../rtc_socket_bsp/\libucosii_bsp.a(os_flag.o)
                              obj/default/iniche_init.o (OSFlagCreate)
../rtc_socket_bsp/\libucosii_bsp.a(os_mem.o)
                              ../rtc_socket_bsp/\libucosii_bsp.a(os_core.o) (OS_MemInit)
../rtc_socket_bsp/\libucosii_bsp.a(os_q.o)
                              obj/default/simple_socket_server.o (OSQCreate)
../rtc_socket_bsp/\libucosii_bsp.a(os_sem.o)
                              obj/default/simple_socket_server.o (OSSemCreate)
../rtc_socket_bsp/\libucosii_bsp.a(os_task.o)
                              obj/default/iniche_init.o (OSTaskCreateExt)
../rtc_socket_bsp/\libucosii_bsp.a(os_time.o)
                              obj/default/iniche_init.o (OSTimeDly)
../rtc_socket_bsp/\libucosii_bsp.a(alt_sys_init.o)
                              ../rtc_socket_bsp/\libucosii_bsp.a(alt_main.o) (alt_irq_init)
../rtc_socket_bsp/\libucosii_bsp.a(altera_avalon_cfi_flash.o)
                              ../rtc_socket_bsp/\libucosii_bsp.a(alt_sys_init.o) (alt_flash_cfi_init)
../rtc_socket_bsp/\libucosii_bsp.a(altera_avalon_cfi_flash_table.o)
                              ../rtc_socket_bsp/\libucosii_bsp.a(altera_avalon_cfi_flash.o) (alt_set_flash_width_func)
../rtc_socket_bsp/\libucosii_bsp.a(altera_avalon_epcs_flash_controller.o)
                              ../rtc_socket_bsp/\libucosii_bsp.a(alt_sys_init.o) (alt_epcs_flash_init)
../rtc_socket_bsp/\libucosii_bsp.a(altera_avalon_jtag_uart_fd.o)
                              ../rtc_socket_bsp/\libucosii_bsp.a(alt_sys_init.o) (altera_avalon_jtag_uart_read_fd)
../rtc_socket_bsp/\libucosii_bsp.a(altera_avalon_jtag_uart_init.o)
                              ../rtc_socket_bsp/\libucosii_bsp.a(alt_sys_init.o) (altera_avalon_jtag_uart_init)
../rtc_socket_bsp/\libucosii_bsp.a(altera_avalon_jtag_uart_ioctl.o)
                              ../rtc_socket_bsp/\libucosii_bsp.a(altera_avalon_jtag_uart_fd.o) (altera_avalon_jtag_uart_ioctl)
../rtc_socket_bsp/\libucosii_bsp.a(altera_avalon_jtag_uart_read.o)
                              ../rtc_socket_bsp/\libucosii_bsp.a(altera_avalon_jtag_uart_fd.o) (altera_avalon_jtag_uart_read)
../rtc_socket_bsp/\libucosii_bsp.a(altera_avalon_jtag_uart_write.o)
                              ../rtc_socket_bsp/\libucosii_bsp.a(altera_avalon_jtag_uart_fd.o) (altera_avalon_jtag_uart_write)
../rtc_socket_bsp/\libucosii_bsp.a(altera_avalon_lcd_16207.o)
                              ../rtc_socket_bsp/\libucosii_bsp.a(alt_sys_init.o) (altera_avalon_lcd_16207_init)
../rtc_socket_bsp/\libucosii_bsp.a(altera_avalon_lcd_16207_fd.o)
                              ../rtc_socket_bsp/\libucosii_bsp.a(alt_sys_init.o) (altera_avalon_lcd_16207_write_fd)
../rtc_socket_bsp/\libucosii_bsp.a(altera_avalon_timer_sc.o)
                              ../rtc_socket_bsp/\libucosii_bsp.a(alt_sys_init.o) (alt_avalon_timer_sc_init)
../rtc_socket_bsp/\libucosii_bsp.a(altera_avalon_uart_fd.o)
                              ../rtc_socket_bsp/\libucosii_bsp.a(alt_sys_init.o) (altera_avalon_uart_read_fd)
../rtc_socket_bsp/\libucosii_bsp.a(altera_avalon_uart_init.o)
                              ../rtc_socket_bsp/\libucosii_bsp.a(alt_sys_init.o) (altera_avalon_uart_init)
../rtc_socket_bsp/\libucosii_bsp.a(altera_avalon_uart_read.o)
                              ../rtc_socket_bsp/\libucosii_bsp.a(altera_avalon_uart_fd.o) (altera_avalon_uart_read)
../rtc_socket_bsp/\libucosii_bsp.a(altera_avalon_uart_write.o)
                              ../rtc_socket_bsp/\libucosii_bsp.a(altera_avalon_uart_fd.o) (altera_avalon_uart_write)
../rtc_socket_bsp/\libucosii_bsp.a(epcs_commands.o)
                              ../rtc_socket_bsp/\libucosii_bsp.a(altera_avalon_epcs_flash_controller.o) (epcs_sector_erase)
../rtc_socket_bsp/\libucosii_bsp.a(alt_iniche_close.o)
                              obj/default/iniche_init.o (close)
../rtc_socket_bsp/\libucosii_bsp.a(alt_iniche_dev.o)
                              obj/default/iniche_init.o (alt_iniche_dev_list)
../rtc_socket_bsp/\libucosii_bsp.a(alt_iniche_read.o)
                              c:/altera/13.0sp1/nios2eds/bin/gnu/h-i686-mingw32/bin/../lib/gcc/nios2-elf/4.1.2/../../../../nios2-elf/lib\libc.a(lib_a-readr.o) (read)
../rtc_socket_bsp/\libucosii_bsp.a(alt_iniche_write.o)
                              c:/altera/13.0sp1/nios2eds/bin/gnu/h-i686-mingw32/bin/../lib/gcc/nios2-elf/4.1.2/../../../../nios2-elf/lib\libc.a(lib_a-writer.o) (write)
../rtc_socket_bsp/\libucosii_bsp.a(ipnet.o)
                              obj/default/dm9000a.o (rcvdq)
../rtc_socket_bsp/\libucosii_bsp.a(ipstart.o)
                              ../rtc_socket_bsp/\libucosii_bsp.a(ipnet.o) (ifNumber)
../rtc_socket_bsp/\libucosii_bsp.a(igmp_cmn.o)
                              ../rtc_socket_bsp/\libucosii_bsp.a(ipstart.o) (igmp_init)
../rtc_socket_bsp/\libucosii_bsp.a(bsdsock.o)
                              obj/default/simple_socket_server.o (bsd_accept)
../rtc_socket_bsp/\libucosii_bsp.a(cksum.o)
                              ../rtc_socket_bsp/\libucosii_bsp.a(igmp_cmn.o) (cksum)
../rtc_socket_bsp/\libucosii_bsp.a(in_utils.o)
                              ../rtc_socket_bsp/\libucosii_bsp.a(igmp_cmn.o) (ns_printf)
../rtc_socket_bsp/\libucosii_bsp.a(netmain.o)
                              obj/default/iniche_init.o (iniche_net_ready)
../rtc_socket_bsp/\libucosii_bsp.a(parseip.o)
                              obj/default/iniche_init.o (inet_addr)
../rtc_socket_bsp/\libucosii_bsp.a(tk_crnos.o)
                              ../rtc_socket_bsp/\libucosii_bsp.a(ipnet.o) (tk_yield)
../rtc_socket_bsp/\libucosii_bsp.a(dhcpclnt.o)
                              ../rtc_socket_bsp/\libucosii_bsp.a(netmain.o) (dhc_second)
../rtc_socket_bsp/\libucosii_bsp.a(dhcputil.o)
                              ../rtc_socket_bsp/\libucosii_bsp.a(dhcpclnt.o) (find_opt)
../rtc_socket_bsp/\libucosii_bsp.a(pktalloc.o)
                              ../rtc_socket_bsp/\libucosii_bsp.a(ipnet.o) (pk_init)
../rtc_socket_bsp/\libucosii_bsp.a(q.o)
                              ../rtc_socket_bsp/\libucosii_bsp.a(ipnet.o) (getq)
../rtc_socket_bsp/\libucosii_bsp.a(udp_open.o)
                              ../rtc_socket_bsp/\libucosii_bsp.a(dhcpclnt.o) (udp_open)
../rtc_socket_bsp/\libucosii_bsp.a(asm_cksum.o)
                              ../rtc_socket_bsp/\libucosii_bsp.a(cksum.o) (asm_cksum)
../rtc_socket_bsp/\libucosii_bsp.a(brdutils.o)
                              ../rtc_socket_bsp/\libucosii_bsp.a(ipnet.o) (dtrap)
../rtc_socket_bsp/\libucosii_bsp.a(osportco.o)
                              ../rtc_socket_bsp/\libucosii_bsp.a(tk_crnos.o) (tcp_sleep_count)
../rtc_socket_bsp/\libucosii_bsp.a(targnios.o)
                              obj/default/iniche_init.o (alt_iniche_init)
../rtc_socket_bsp/\libucosii_bsp.a(nptcp.o)
                              ../rtc_socket_bsp/\libucosii_bsp.a(bsdsock.o) (soq)
../rtc_socket_bsp/\libucosii_bsp.a(rawsock.o)
                              ../rtc_socket_bsp/\libucosii_bsp.a(nptcp.o) (rawip_usrreq)
../rtc_socket_bsp/\libucosii_bsp.a(sockcall.o)
                              obj/default/iniche_init.o (t_socket)
../rtc_socket_bsp/\libucosii_bsp.a(socket.o)
                              ../rtc_socket_bsp/\libucosii_bsp.a(sockcall.o) (socreate)
../rtc_socket_bsp/\libucosii_bsp.a(socket2.o)
                              ../rtc_socket_bsp/\libucosii_bsp.a(sockcall.o) (soqremque)
../rtc_socket_bsp/\libucosii_bsp.a(soselect.o)
                              ../rtc_socket_bsp/\libucosii_bsp.a(bsdsock.o) (t_select)
../rtc_socket_bsp/\libucosii_bsp.a(tcp_in.o)
                              ../rtc_socket_bsp/\libucosii_bsp.a(nptcp.o) (tcp_input)
../rtc_socket_bsp/\libucosii_bsp.a(tcp_out.o)
                              ../rtc_socket_bsp/\libucosii_bsp.a(tcp_in.o) (tcp_output)
../rtc_socket_bsp/\libucosii_bsp.a(tcp_subr.o)
                              ../rtc_socket_bsp/\libucosii_bsp.a(nptcp.o) (tcp_init)
../rtc_socket_bsp/\libucosii_bsp.a(tcp_timr.o)
                              ../rtc_socket_bsp/\libucosii_bsp.a(tcp_in.o) (tcp_keepidle)
../rtc_socket_bsp/\libucosii_bsp.a(tcp_usr.o)
                              ../rtc_socket_bsp/\libucosii_bsp.a(nptcp.o) (tcp_usrreq)
../rtc_socket_bsp/\libucosii_bsp.a(tcpport.o)
                              ../rtc_socket_bsp/\libucosii_bsp.a(ipstart.o) (tcpinit)
../rtc_socket_bsp/\libucosii_bsp.a(udpsock.o)
                              ../rtc_socket_bsp/\libucosii_bsp.a(nptcp.o) (udp_usrreq)
../rtc_socket_bsp/\libucosii_bsp.a(alt_alarm_start.o)
                              ../rtc_socket_bsp/\libucosii_bsp.a(altera_avalon_jtag_uart_init.o) (alt_alarm_start)
../rtc_socket_bsp/\libucosii_bsp.a(alt_busy_sleep.o)
                              ../rtc_socket_bsp/\libucosii_bsp.a(alt_usleep.o) (alt_busy_sleep)
../rtc_socket_bsp/\libucosii_bsp.a(alt_close.o)
                              ../rtc_socket_bsp/\libucosii_bsp.a(alt_iniche_close.o) (alt_close)
../rtc_socket_bsp/\libucosii_bsp.a(alt_dcache_flush.o)
                              ../rtc_socket_bsp/\libucosii_bsp.a(altera_avalon_cfi_flash.o) (alt_dcache_flush)
../rtc_socket_bsp/\libucosii_bsp.a(alt_dev.o)
                              ../rtc_socket_bsp/\libucosii_bsp.a(alt_sys_init.o) (alt_dev_list)
../rtc_socket_bsp/\libucosii_bsp.a(alt_dev_llist_insert.o)
                              ../rtc_socket_bsp/\libucosii_bsp.a(alt_sys_init.o) (alt_dev_llist_insert)
../rtc_socket_bsp/\libucosii_bsp.a(alt_do_ctors.o)
                              ../rtc_socket_bsp/\libucosii_bsp.a(alt_main.o) (_do_ctors)
../rtc_socket_bsp/\libucosii_bsp.a(alt_do_dtors.o)
                              ../rtc_socket_bsp/\libucosii_bsp.a(alt_main.o) (_do_dtors)
../rtc_socket_bsp/\libucosii_bsp.a(alt_errno.o)
                              ../rtc_socket_bsp/\libucosii_bsp.a(alt_fstat.o) (alt_errno)
../rtc_socket_bsp/\libucosii_bsp.a(alt_find_dev.o)
                              ../rtc_socket_bsp/\libucosii_bsp.a(alt_flash_dev.o) (alt_find_dev)
../rtc_socket_bsp/\libucosii_bsp.a(alt_iic.o)
                              ../rtc_socket_bsp/\libucosii_bsp.a(altera_avalon_jtag_uart_init.o) (alt_ic_isr_register)
../rtc_socket_bsp/\libucosii_bsp.a(alt_iic_isr_register.o)
                              ../rtc_socket_bsp/\libucosii_bsp.a(alt_iic.o) (alt_iic_isr_register)
../rtc_socket_bsp/\libucosii_bsp.a(alt_io_redirect.o)
                              ../rtc_socket_bsp/\libucosii_bsp.a(alt_main.o) (alt_io_redirect)
../rtc_socket_bsp/\libucosii_bsp.a(alt_irq_entry.o)
                              ../rtc_socket_bsp/\libucosii_bsp.a(alt_irq_register.o) (alt_irq_entry)
../rtc_socket_bsp/\libucosii_bsp.a(alt_irq_handler.o)
                              ../rtc_socket_bsp/\libucosii_bsp.a(alt_irq_register.o) (alt_irq_handler)
../rtc_socket_bsp/\libucosii_bsp.a(alt_open.o)
                              ../rtc_socket_bsp/\libucosii_bsp.a(alt_io_redirect.o) (open)
../rtc_socket_bsp/\libucosii_bsp.a(alt_read.o)
                              ../rtc_socket_bsp/\libucosii_bsp.a(alt_iniche_read.o) (alt_read)
../rtc_socket_bsp/\libucosii_bsp.a(alt_release_fd.o)
                              ../rtc_socket_bsp/\libucosii_bsp.a(alt_close.o) (alt_release_fd)
../rtc_socket_bsp/\libucosii_bsp.a(alt_remap_cached.o)
                              ../rtc_socket_bsp/\libucosii_bsp.a(targnios.o) (alt_remap_cached)
../rtc_socket_bsp/\libucosii_bsp.a(alt_remap_uncached.o)
                              ../rtc_socket_bsp/\libucosii_bsp.a(targnios.o) (alt_remap_uncached)
../rtc_socket_bsp/\libucosii_bsp.a(alt_write.o)
                              ../rtc_socket_bsp/\libucosii_bsp.a(alt_iniche_write.o) (alt_write)
../rtc_socket_bsp/\libucosii_bsp.a(altera_nios2_qsys_irq.o)
                              ../rtc_socket_bsp/\libucosii_bsp.a(alt_sys_init.o) (altera_nios2_qsys_irq_init)
../rtc_socket_bsp/\libucosii_bsp.a(os_cpu_a.o)
                              ../rtc_socket_bsp/\libucosii_bsp.a(os_core.o) (OSIntCtxSw)
../rtc_socket_bsp/\libucosii_bsp.a(os_cpu_c.o)
                              ../rtc_socket_bsp/\libucosii_bsp.a(os_task.o) (OSTaskStkInit)
../rtc_socket_bsp/\libucosii_bsp.a(altera_avalon_cfi_flash_amd.o)
                              ../rtc_socket_bsp/\libucosii_bsp.a(altera_avalon_cfi_flash_table.o) (alt_program_amd)
../rtc_socket_bsp/\libucosii_bsp.a(altera_avalon_cfi_flash_intel.o)
                              ../rtc_socket_bsp/\libucosii_bsp.a(altera_avalon_cfi_flash_table.o) (alt_program_intel)
../rtc_socket_bsp/\libucosii_bsp.a(altera_avalon_spi.o)
                              ../rtc_socket_bsp/\libucosii_bsp.a(epcs_commands.o) (alt_avalon_spi_command)
../rtc_socket_bsp/\libucosii_bsp.a(allports.o)
                              ../rtc_socket_bsp/\libucosii_bsp.a(dhcpclnt.o) (name)
../rtc_socket_bsp/\libucosii_bsp.a(timeouts.o)
                              ../rtc_socket_bsp/\libucosii_bsp.a(netmain.o) (inet_timer)
../rtc_socket_bsp/\libucosii_bsp.a(tk_misc.o)
                              ../rtc_socket_bsp/\libucosii_bsp.a(netmain.o) (create_apptasks)
../rtc_socket_bsp/\libucosii_bsp.a(alt_iniche_fcntl.o)
                              ../rtc_socket_bsp/\libucosii_bsp.a(brdutils.o) (fcntl)
../rtc_socket_bsp/\libucosii_bsp.a(et_arp.o)
                              ../rtc_socket_bsp/\libucosii_bsp.a(ipstart.o) (etainit)
../rtc_socket_bsp/\libucosii_bsp.a(iface.o)
                              ../rtc_socket_bsp/\libucosii_bsp.a(ipnet.o) (netlist)
../rtc_socket_bsp/\libucosii_bsp.a(ip.o)
                              ../rtc_socket_bsp/\libucosii_bsp.a(ipstart.o) (ip_init)
../rtc_socket_bsp/\libucosii_bsp.a(ip_reasm.o)
                              ../rtc_socket_bsp/\libucosii_bsp.a(timeouts.o) (ire_cticks)
../rtc_socket_bsp/\libucosii_bsp.a(ipdemux.o)
                              ../rtc_socket_bsp/\libucosii_bsp.a(ipnet.o) (ip_rcv)
../rtc_socket_bsp/\libucosii_bsp.a(ipmc.o)
                              ../rtc_socket_bsp/\libucosii_bsp.a(ipstart.o) (in_addmulti)
../rtc_socket_bsp/\libucosii_bsp.a(ipport.o)
                              ../rtc_socket_bsp/\libucosii_bsp.a(targnios.o) (port_prep)
../rtc_socket_bsp/\libucosii_bsp.a(ipraw.o)
                              ../rtc_socket_bsp/\libucosii_bsp.a(rawsock.o) (ipraw_eps)
../rtc_socket_bsp/\libucosii_bsp.a(iproute.o)
                              ../rtc_socket_bsp/\libucosii_bsp.a(ip.o) (cachedRoute)
../rtc_socket_bsp/\libucosii_bsp.a(udp.o)
                              ../rtc_socket_bsp/\libucosii_bsp.a(ipdemux.o) (udpdemux)
../rtc_socket_bsp/\libucosii_bsp.a(igmp.o)
                              ../rtc_socket_bsp/\libucosii_bsp.a(igmp_cmn.o) (igmpv1_input)
../rtc_socket_bsp/\libucosii_bsp.a(igmp2.o)
                              ../rtc_socket_bsp/\libucosii_bsp.a(igmp_cmn.o) (igmpv2_input)
../rtc_socket_bsp/\libucosii_bsp.a(ipopt.o)
                              ../rtc_socket_bsp/\libucosii_bsp.a(socket.o) (ip_setmoptions)
../rtc_socket_bsp/\libucosii_bsp.a(u_mctest.o)
                              ../rtc_socket_bsp/\libucosii_bsp.a(allports.o) (u_mctest_init)
../rtc_socket_bsp/\libucosii_bsp.a(dhcsetup.o)
                              ../rtc_socket_bsp/\libucosii_bsp.a(allports.o) (dhc_setup)
../rtc_socket_bsp/\libucosii_bsp.a(memdev.o)
                              ../rtc_socket_bsp/\libucosii_bsp.a(allports.o) (init_memdev)
../rtc_socket_bsp/\libucosii_bsp.a(tcpcksum.o)
                              ../rtc_socket_bsp/\libucosii_bsp.a(nptcp.o) (tcp_cksum)
../rtc_socket_bsp/\libucosii_bsp.a(in_pcb.o)
                              ../rtc_socket_bsp/\libucosii_bsp.a(tcp_usr.o) (in_pcballoc)
../rtc_socket_bsp/\libucosii_bsp.a(vfsfiles.o)
                              ../rtc_socket_bsp/\libucosii_bsp.a(memdev.o) (vfsystems)
../rtc_socket_bsp/\libucosii_bsp.a(vfsport.o)
                              ../rtc_socket_bsp/\libucosii_bsp.a(allports.o) (prep_vfs)
../rtc_socket_bsp/\libucosii_bsp.a(alt_exception_entry.o)
                              ../rtc_socket_bsp/\libucosii_bsp.a(alt_irq_entry.o) (alt_exception)
../rtc_socket_bsp/\libucosii_bsp.a(alt_fcntl.o)
                              ../rtc_socket_bsp/\libucosii_bsp.a(alt_iniche_fcntl.o) (alt_fcntl)
../rtc_socket_bsp/\libucosii_bsp.a(alt_find_file.o)
                              ../rtc_socket_bsp/\libucosii_bsp.a(alt_open.o) (alt_find_file)
../rtc_socket_bsp/\libucosii_bsp.a(alt_get_fd.o)
                              ../rtc_socket_bsp/\libucosii_bsp.a(alt_open.o) (alt_get_fd)
../rtc_socket_bsp/\libucosii_bsp.a(icmp.o)
                              ../rtc_socket_bsp/\libucosii_bsp.a(ipdemux.o) (icmprcv)
c:/altera/13.0sp1/nios2eds/bin/gnu/h-i686-mingw32/bin/../lib/gcc/nios2-elf/4.1.2/../../../../nios2-elf/lib\libc.a(lib_a-atexit.o)
                              ../rtc_socket_bsp/\libucosii_bsp.a(alt_main.o) (atexit)
c:/altera/13.0sp1/nios2eds/bin/gnu/h-i686-mingw32/bin/../lib/gcc/nios2-elf/4.1.2/../../../../nios2-elf/lib\libc.a(lib_a-calloc.o)
                              ../rtc_socket_bsp/\libucosii_bsp.a(targnios.o) (calloc)
c:/altera/13.0sp1/nios2eds/bin/gnu/h-i686-mingw32/bin/../lib/gcc/nios2-elf/4.1.2/../../../../nios2-elf/lib\libc.a(lib_a-malloc.o)
                              ../rtc_socket_bsp/\libucosii_bsp.a(targnios.o) (free)
c:/altera/13.0sp1/nios2eds/bin/gnu/h-i686-mingw32/bin/../lib/gcc/nios2-elf/4.1.2/../../../../nios2-elf/lib\libc.a(lib_a-memcmp.o)
                              ../rtc_socket_bsp/\libucosii_bsp.a(altera_avalon_cfi_flash.o) (memcmp)
c:/altera/13.0sp1/nios2eds/bin/gnu/h-i686-mingw32/bin/../lib/gcc/nios2-elf/4.1.2/../../../../nios2-elf/lib\libc.a(lib_a-strcpy.o)
                              ../rtc_socket_bsp/\libucosii_bsp.a(parseip.o) (strcpy)
c:/altera/13.0sp1/nios2eds/bin/gnu/h-i686-mingw32/bin/../lib/gcc/nios2-elf/4.1.2/../../../../nios2-elf/lib\libc.a(lib_a-strncmp.o)
                              ../rtc_socket_bsp/\libucosii_bsp.a(vfsfiles.o) (strncmp)
c:/altera/13.0sp1/nios2eds/bin/gnu/h-i686-mingw32/bin/../lib/gcc/nios2-elf/4.1.2/../../../../nios2-elf/lib\libc.a(lib_a-strncpy.o)
                              ../rtc_socket_bsp/\libucosii_bsp.a(dhcpclnt.o) (strncpy)
c:/altera/13.0sp1/nios2eds/bin/gnu/h-i686-mingw32/bin/../lib/gcc/nios2-elf/4.1.2/../../../../nios2-elf/lib\libc.a(lib_a-vprintf.o)
                              ../rtc_socket_bsp/\libucosii_bsp.a(in_utils.o) (vprintf)
c:/altera/13.0sp1/nios2eds/bin/gnu/h-i686-mingw32/bin/../lib/gcc/nios2-elf/4.1.2/../../../../nios2-elf/lib\libc.a(lib_a-vsprintf.o)
                              ../rtc_socket_bsp/\libucosii_bsp.a(in_utils.o) (vsprintf)
c:/altera/13.0sp1/nios2eds/bin/gnu/h-i686-mingw32/bin/../lib/gcc/nios2-elf/4.1.2/../../../../nios2-elf/lib\libc.a(lib_a-__atexit.o)
                              c:/altera/13.0sp1/nios2eds/bin/gnu/h-i686-mingw32/bin/../lib/gcc/nios2-elf/4.1.2/../../../../nios2-elf/lib\libc.a(lib_a-atexit.o) (__register_exitproc)

Allocating common symbols
Common symbol       size              file

soq                 0x14              ../rtc_socket_bsp/\libucosii_bsp.a(nptcp.o)
alt_irq             0x100             ../rtc_socket_bsp/\libucosii_bsp.a(alt_irq_handler.o)
tcp_optionbuf       0x4               ../rtc_socket_bsp/\libucosii_bsp.a(tcp_out.o)
last_flash_sector_offset
                    0x4               obj/default/SSS_DE2_115.o
rt_mib              0x4               ../rtc_socket_bsp/\libucosii_bsp.a(ip.o)
so_evtmap_create    0x4               ../rtc_socket_bsp/\libucosii_bsp.a(ipport.o)
SSSLEDCommandQ      0x4               obj/default/simple_socket_server.o
OSLockNesting       0x1               ../rtc_socket_bsp/\libucosii_bsp.a(os_core.o)
tcb                 0x2c              ../rtc_socket_bsp/\libucosii_bsp.a(tcp_subr.o)
OSRunning           0x1               ../rtc_socket_bsp/\libucosii_bsp.a(os_core.o)
dhc_states          0xf0              ../rtc_socket_bsp/\libucosii_bsp.a(dhcpclnt.o)
tcpstat             0xe0              ../rtc_socket_bsp/\libucosii_bsp.a(tcp_subr.o)
event_flag_group    0x4               obj/default/iniche_init.o
OSIdleCtr           0x4               ../rtc_socket_bsp/\libucosii_bsp.a(os_core.o)
SSSLEDLightshowSem  0x4               obj/default/simple_socket_server.o
udp_mib             0x10              ../rtc_socket_bsp/\libucosii_bsp.a(udp.o)
to_netmain          0x1               ../rtc_socket_bsp/\libucosii_bsp.a(netmain.o)
OSPrioHighRdy       0x1               ../rtc_socket_bsp/\libucosii_bsp.a(os_core.o)
errno               0x4               c:/altera/13.0sp1/nios2eds/bin/gnu/h-i686-mingw32/bin/../lib/gcc/nios2-elf/4.1.2/../../../../nios2-elf/lib\libc.a(lib_a-int_errno.o)
lilfreeq            0x14              ../rtc_socket_bsp/\libucosii_bsp.a(pktalloc.o)
icmp_mib            0x68              ../rtc_socket_bsp/\libucosii_bsp.a(icmp.o)
SSSInitialTaskStk2  0x2000            obj/default/iniche_init.o
resid_semaphore     0x40              ../rtc_socket_bsp/\libucosii_bsp.a(targnios.o)
alt_heapsem         0x4               ../rtc_socket_bsp/\libucosii_bsp.a(alt_malloc_lock.o)
OSFlagTbl           0x370             ../rtc_socket_bsp/\libucosii_bsp.a(os_core.o)
mbstat              0x8               ../rtc_socket_bsp/\libucosii_bsp.a(nptcp.o)
netq_intmask        0x4               ../rtc_socket_bsp/\libucosii_bsp.a(osportco.o)
select_wait         0x2               ../rtc_socket_bsp/\libucosii_bsp.a(nptcp.o)
tcpmib              0x3c              ../rtc_socket_bsp/\libucosii_bsp.a(nptcp.o)
OSPrioCur           0x1               ../rtc_socket_bsp/\libucosii_bsp.a(os_core.o)
mheap_sem_ptr       0x4               ../rtc_socket_bsp/\libucosii_bsp.a(targnios.o)
netlist             0x14              ../rtc_socket_bsp/\libucosii_bsp.a(iface.o)
mbufq               0x14              ../rtc_socket_bsp/\libucosii_bsp.a(nptcp.o)
OSTCBList           0x4               ../rtc_socket_bsp/\libucosii_bsp.a(os_core.o)
alt_fd_list_lock    0x4               ../rtc_socket_bsp/\libucosii_bsp.a(alt_dev.o)
OSMemTbl            0xc30             ../rtc_socket_bsp/\libucosii_bsp.a(os_core.o)
OSTickStepState     0x1               ../rtc_socket_bsp/\libucosii_bsp.a(os_core.o)
OSTaskStatStk       0x800             ../rtc_socket_bsp/\libucosii_bsp.a(os_core.o)
event_flags         0x2               obj/default/iniche_init.o
OSCtxSwCtr          0x4               ../rtc_socket_bsp/\libucosii_bsp.a(os_core.o)
igmpstats           0x64              ../rtc_socket_bsp/\libucosii_bsp.a(igmp_cmn.o)
ire_stats           0x18              ../rtc_socket_bsp/\libucosii_bsp.a(ip_reasm.o)
old_mode            0x4               ../rtc_socket_bsp/\libucosii_bsp.a(osportco.o)
vfs_dir_stale       0x4               ../rtc_socket_bsp/\libucosii_bsp.a(vfsfiles.o)
cticks_factor       0x4               ../rtc_socket_bsp/\libucosii_bsp.a(brdutils.o)
g_dm9ka             0x44              obj/default/dm9000a.o
OSIdleCtrMax        0x4               ../rtc_socket_bsp/\libucosii_bsp.a(os_core.o)
memestats           0x10              ../rtc_socket_bsp/\libucosii_bsp.a(pktalloc.o)
intimers            0x64              ../rtc_socket_bsp/\libucosii_bsp.a(timeouts.o)
OSTCBFreeList       0x4               ../rtc_socket_bsp/\libucosii_bsp.a(os_core.o)
global_TCPwakeup_setIndx
                    0x4               ../rtc_socket_bsp/\libucosii_bsp.a(osportco.o)
SSSInitialTaskStk   0x2000            obj/default/iniche_init.o
rcvdq               0x14              ../rtc_socket_bsp/\libucosii_bsp.a(ipnet.o)
global_tcb_ext      0xfc              ../rtc_socket_bsp/\libucosii_bsp.a(osportco.o)
netstatic           0x300             ../rtc_socket_bsp/\libucosii_bsp.a(ipstart.o)
tcp_maxidle         0x4               ../rtc_socket_bsp/\libucosii_bsp.a(tcp_timr.o)
LED7SegLightshowTaskStk
                    0x2000            obj/default/simple_socket_server.o
OSCPUUsage          0x1               ../rtc_socket_bsp/\libucosii_bsp.a(os_core.o)
nets                0x10              ../rtc_socket_bsp/\libucosii_bsp.a(ipstart.o)
pktlog              0xf0              ../rtc_socket_bsp/\libucosii_bsp.a(pktalloc.o)
OSTaskCtr           0x1               ../rtc_socket_bsp/\libucosii_bsp.a(os_core.o)
SSSLEDEventFlag     0x4               obj/default/simple_socket_server.o
OSMemFreeList       0x4               ../rtc_socket_bsp/\libucosii_bsp.a(os_core.o)
vfs_open_files      0x4               ../rtc_socket_bsp/\libucosii_bsp.a(vfsfiles.o)
cticks              0x4               ../rtc_socket_bsp/\libucosii_bsp.a(osportco.o)
to_nettick          0x1               ../rtc_socket_bsp/\libucosii_bsp.a(netmain.o)
last_flash_sector   0x4               obj/default/SSS_DE2_115.o
OSQTbl              0x1e0             ../rtc_socket_bsp/\libucosii_bsp.a(os_core.o)
OSTCBHighRdy        0x4               ../rtc_socket_bsp/\libucosii_bsp.a(os_core.o)
OSQFreeList         0x4               ../rtc_socket_bsp/\libucosii_bsp.a(os_core.o)
OSRdyGrp            0x1               ../rtc_socket_bsp/\libucosii_bsp.a(os_core.o)
ip_mib              0x50              ../rtc_socket_bsp/\libucosii_bsp.a(ip.o)
SSSLEDCommandQTbl   0x78              obj/default/simple_socket_server.o
OS_TPS              0x4               ../rtc_socket_bsp/\libucosii_bsp.a(brdutils.o)
_atexit0            0x190             c:/altera/13.0sp1/nios2eds/bin/gnu/h-i686-mingw32/bin/../lib/gcc/nios2-elf/4.1.2/../../../../nios2-elf/lib\libc.a(lib_a-atexit.o)
OSRdyTbl            0x3               ../rtc_socket_bsp/\libucosii_bsp.a(os_core.o)
igmp_all_hosts_group
                    0x4               ../rtc_socket_bsp/\libucosii_bsp.a(igmp_cmn.o)
eth_prt_buf         0x12              ../rtc_socket_bsp/\libucosii_bsp.a(in_utils.o)
app_semaphore       0x18              ../rtc_socket_bsp/\libucosii_bsp.a(targnios.o)
LEDManagementTaskStk
                    0x2000            obj/default/simple_socket_server.o
rcvdq_sem_ptr       0x4               ../rtc_socket_bsp/\libucosii_bsp.a(targnios.o)
OSEventFreeList     0x4               ../rtc_socket_bsp/\libucosii_bsp.a(os_core.o)
mfreeq              0x14              ../rtc_socket_bsp/\libucosii_bsp.a(nptcp.o)
to_ssstask          0x1               obj/default/iniche_init.o
global_TCPwakeup_set
                    0xf0              ../rtc_socket_bsp/\libucosii_bsp.a(osportco.o)
bigfreeq            0x14              ../rtc_socket_bsp/\libucosii_bsp.a(pktalloc.o)
so_evtmap_delete    0x4               ../rtc_socket_bsp/\libucosii_bsp.a(ipport.o)
tcp_saveti          0x28              ../rtc_socket_bsp/\libucosii_bsp.a(tcp_in.o)
OSIntNesting        0x1               ../rtc_socket_bsp/\libucosii_bsp.a(os_core.o)
so_evtmap           0x1               ../rtc_socket_bsp/\libucosii_bsp.a(ipport.o)
OSTCBCur            0x4               ../rtc_socket_bsp/\libucosii_bsp.a(os_core.o)
arp_table           0x100             ../rtc_socket_bsp/\libucosii_bsp.a(et_arp.o)
tcp_iss             0x4               ../rtc_socket_bsp/\libucosii_bsp.a(tcp_timr.o)
vfs_total_rw_space  0x4               ../rtc_socket_bsp/\libucosii_bsp.a(vfsfiles.o)
OSTime              0x4               ../rtc_socket_bsp/\libucosii_bsp.a(os_core.o)
OSTaskIdleStk       0x800             ../rtc_socket_bsp/\libucosii_bsp.a(os_core.o)
OSEventTbl          0xb40             ../rtc_socket_bsp/\libucosii_bsp.a(os_core.o)
vfs_total_dyna_files
                    0x4               ../rtc_socket_bsp/\libucosii_bsp.a(vfsfiles.o)
OSTCBTbl            0x510             ../rtc_socket_bsp/\libucosii_bsp.a(os_core.o)
ipreturn            0x12              ../rtc_socket_bsp/\libucosii_bsp.a(in_utils.o)
OSFlagFreeList      0x4               ../rtc_socket_bsp/\libucosii_bsp.a(os_core.o)
dropline            0x4               ../rtc_socket_bsp/\libucosii_bsp.a(tcp_in.o)
OSStatRdy           0x1               ../rtc_socket_bsp/\libucosii_bsp.a(os_core.o)
OSTCBPrioTbl        0x54              ../rtc_socket_bsp/\libucosii_bsp.a(os_core.o)
igmp_all_rtrs_group
                    0x4               ../rtc_socket_bsp/\libucosii_bsp.a(igmp_cmn.o)
alt_envsem          0x4               ../rtc_socket_bsp/\libucosii_bsp.a(alt_env_lock.o)
OSIdleCtrRun        0x4               ../rtc_socket_bsp/\libucosii_bsp.a(os_core.o)

Memory Configuration

Name             Origin             Length             Attributes
sdram_0_BEFORE_EXCEPTION 0x00800000         0x00000020
sdram_0          0x00800020         0x007fffe0
reset            0x01400000         0x00000020
cfi_flash_0      0x01400020         0x003fffe0
sram_0           0x01a00000         0x00080000
epcs_controller  0x01a81800         0x00000800
*default*        0x00000000         0xffffffff

Linker script and memory map

LOAD ../rtc_socket_bsp//obj/HAL/src/crt0.o
LOAD obj/default/LCD.o
LOAD obj/default/SSS_DE2_115.o
LOAD obj/default/alt_error_handler.o
LOAD obj/default/dm9000a.o
LOAD obj/default/iniche_init.o
LOAD obj/default/led.o
LOAD obj/default/network_utilities.o
LOAD obj/default/simple_socket_server.o
LOAD obj/default/tse_my_system.o
LOAD c:/altera/13.0sp1/nios2eds/bin/gnu/h-i686-mingw32/bin/../lib/gcc/nios2-elf/4.1.2/../../../../nios2-elf/lib\libstdc++.a
LOAD c:/altera/13.0sp1/nios2eds/bin/gnu/h-i686-mingw32/bin/../lib/gcc/nios2-elf/4.1.2/../../../../nios2-elf/lib\libm.a
LOAD c:/altera/13.0sp1/nios2eds/bin/gnu/h-i686-mingw32/bin/../lib/gcc/nios2-elf/4.1.2\libgcc.a
START GROUP
LOAD c:/altera/13.0sp1/nios2eds/bin/gnu/h-i686-mingw32/bin/../lib/gcc/nios2-elf/4.1.2/../../../../nios2-elf/lib\libc.a
LOAD c:/altera/13.0sp1/nios2eds/bin/gnu/h-i686-mingw32/bin/../lib/gcc/nios2-elf/4.1.2\libgcc.a
LOAD ../rtc_socket_bsp/\libucosii_bsp.a
END GROUP
LOAD c:/altera/13.0sp1/nios2eds/bin/gnu/h-i686-mingw32/bin/../lib/gcc/nios2-elf/4.1.2\libgcc.a
                0x00800000                __alt_mem_sdram_0 = 0x800000
                0x01400000                __alt_mem_cfi_flash_0 = 0x1400000
                0x01a00000                __alt_mem_sram_0 = 0x1a00000
                0x01a81800                __alt_mem_epcs_controller = 0x1a81800

.entry          0x01400000        0x0
 *(.entry)
 .entry         0x01400000        0x0 ../rtc_socket_bsp//obj/HAL/src/crt0.o
                0x01400000                __reset

.exceptions     0x00800020      0x19c
                0x00800020                PROVIDE (__ram_exceptions_start, ABSOLUTE (.))
                0x00800020                . = ALIGN (0x20)
 *(.irq)
 *(.exceptions.entry.label)
 .exceptions.entry.label
                0x00800020        0x0 ../rtc_socket_bsp/\libucosii_bsp.a(alt_irq_entry.o)
                0x00800020                alt_irq_entry
 .exceptions.entry.label
                0x00800020        0x0 ../rtc_socket_bsp/\libucosii_bsp.a(alt_exception_entry.o)
                0x00800020                alt_exception
 *(.exceptions.entry.user)
 *(.exceptions.entry)
 .exceptions.entry
                0x00800020       0x54 ../rtc_socket_bsp/\libucosii_bsp.a(alt_exception_entry.o)
 *(.exceptions.irqtest.user)
 *(.exceptions.irqtest)
 .exceptions.irqtest
                0x00800074       0x10 ../rtc_socket_bsp/\libucosii_bsp.a(alt_irq_entry.o)
 *(.exceptions.irqhandler.user)
 *(.exceptions.irqhandler)
 .exceptions.irqhandler
                0x00800084        0x4 ../rtc_socket_bsp/\libucosii_bsp.a(alt_irq_entry.o)
 *(.exceptions.irqreturn.user)
 *(.exceptions.irqreturn)
 .exceptions.irqreturn
                0x00800088        0x4 ../rtc_socket_bsp/\libucosii_bsp.a(alt_irq_entry.o)
 *(.exceptions.notirq.label)
 .exceptions.notirq.label
                0x0080008c        0x0 ../rtc_socket_bsp/\libucosii_bsp.a(alt_irq_entry.o)
 *(.exceptions.notirq.user)
 *(.exceptions.notirq)
 .exceptions.notirq
                0x0080008c        0x8 ../rtc_socket_bsp/\libucosii_bsp.a(alt_exception_entry.o)
 *(.exceptions.soft.user)
 *(.exceptions.soft)
 *(.exceptions.unknown.user)
 *(.exceptions.unknown)
 .exceptions.unknown
                0x00800094        0x4 ../rtc_socket_bsp/\libucosii_bsp.a(alt_exception_entry.o)
 *(.exceptions.exit.label)
 .exceptions.exit.label
                0x00800098        0x0 ../rtc_socket_bsp/\libucosii_bsp.a(alt_irq_entry.o)
 .exceptions.exit.label
                0x00800098        0x0 ../rtc_socket_bsp/\libucosii_bsp.a(alt_exception_entry.o)
 *(.exceptions.exit.user)
 *(.exceptions.exit)
 .exceptions.exit
                0x00800098       0x54 ../rtc_socket_bsp/\libucosii_bsp.a(alt_exception_entry.o)
 *(.exceptions)
 .exceptions    0x008000ec       0xd0 ../rtc_socket_bsp/\libucosii_bsp.a(alt_irq_handler.o)
                0x008000ec                alt_irq_handler
                0x008001bc                PROVIDE (__ram_exceptions_end, ABSOLUTE (.))
                0x00800020                PROVIDE (__flash_exceptions_start, LOADADDR (.exceptions))

.text           0x008001bc    0x4701c
                0x008001bc                PROVIDE (stext, ABSOLUTE (.))
 *(.interp)
 *(.hash)
 *(.dynsym)
 *(.dynstr)
 *(.gnu.version)
 *(.gnu.version_d)
 *(.gnu.version_r)
 *(.rel.init)
 *(.rela.init)
 *(.rel.text .rel.text.* .rel.gnu.linkonce.t.*)
 *(.rela.text .rela.text.* .rela.gnu.linkonce.t.*)
 *(.rel.fini)
 *(.rela.fini)
 *(.rel.rodata .rel.rodata.* .rel.gnu.linkonce.r.*)
 *(.rela.rodata .rela.rodata.* .rela.gnu.linkonce.r.*)
 *(.rel.data .rel.data.* .rel.gnu.linkonce.d.*)
 *(.rela.data .rela.data.* .rela.gnu.linkonce.d.*)
 *(.rel.tdata .rel.tdata.* .rel.gnu.linkonce.td.*)
 *(.rela.tdata .rela.tdata.* .rela.gnu.linkonce.td.*)
 *(.rel.tbss .rel.tbss.* .rel.gnu.linkonce.tb.*)
 *(.rela.tbss .rela.tbss.* .rela.gnu.linkonce.tb.*)
 *(.rel.ctors)
 *(.rela.ctors)
 *(.rel.dtors)
 *(.rela.dtors)
 *(.rel.got)
 *(.rela.got)
 *(.rel.sdata .rel.sdata.* .rel.gnu.linkonce.s.*)
 *(.rela.sdata .rela.sdata.* .rela.gnu.linkonce.s.*)
 *(.rel.sbss .rel.sbss.* .rel.gnu.linkonce.sb.*)
 *(.rela.sbss .rela.sbss.* .rela.gnu.linkonce.sb.*)
 *(.rel.sdata2 .rel.sdata2.* .rel.gnu.linkonce.s2.*)
 *(.rela.sdata2 .rela.sdata2.* .rela.gnu.linkonce.s2.*)
 *(.rel.sbss2 .rel.sbss2.* .rel.gnu.linkonce.sb2.*)
 *(.rela.sbss2 .rela.sbss2.* .rela.gnu.linkonce.sb2.*)
 *(.rel.bss .rel.bss.* .rel.gnu.linkonce.b.*)
 *(.rela.bss .rela.bss.* .rela.gnu.linkonce.b.*)
 *(.rel.plt)
 *(.rela.plt)
 *(.rel.dyn)
 *(.init)
 *(.plt)
 *(.text .stub .text.* .gnu.linkonce.t.*)
 .text          0x008001bc       0x48 ../rtc_socket_bsp//obj/HAL/src/crt0.o
                0x008001bc                _start
 .text          0x00800204      0x31c obj/default/LCD.o
                0x00800204                LCD_Init
                0x008002a0                LCD_Show_Text
                0x00800328                LCD_Line2
                0x00800364                LCD_Line1
                0x008003a0                LCD_Clear
                0x008003dc                LCD_Test
 .text          0x00800520      0x2ec obj/default/SSS_DE2_115.o
                0x00800520                get_DE2_115_mac_addr
                0x008006c8                FindLastFlashSectorOffset
 .text          0x0080080c      0xba8 obj/default/alt_error_handler.o
                0x0080080c                alt_uCOSIIErrorHandler
                0x00800e30                alt_NetworkErrorHandler
                0x008010c8                alt_SSSErrorHandler
 .text          0x008013b4      0xe48 obj/default/dm9000a.o
                0x008013b4                dm9000a_iow
                0x00801408                dm9000a_ior
                0x00801454                phy_write
                0x008014f0                dm9000a_reset
                0x008016b4                TransmitPacket
                0x008017d0                prep_dm9000a
                0x008019ec                dm9000a_init
                0x00801e3c                dm9Ka_isr_wrap
                0x00801e7c                dm9ka_init
                0x00801f74                dm9ka_close
                0x00802084                dm9ka_stats
                0x008020e0                dm9ka_pkt_send
 .text          0x008021fc      0x43c obj/default/iniche_init.o
                0x008021fc                SSSInitialTask
                0x0080251c                main
 .text          0x00802638      0x324 obj/default/led.o
                0x00802638                led_bit_toggle
                0x00802704                LED7SegLightshowTask
                0x00802778                LEDManagementTask
 .text          0x0080295c      0x70c obj/default/network_utilities.o
                0x0080295c                get_mac_addr
                0x008029b4                get_ip_addr
                0x00802a10                get_serial_number
                0x00802bec                generate_and_store_mac_addr
                0x00802d98                generate_mac_addr
                0x00802ed4                get_board_mac_addr
 .text          0x00803068      0x968 obj/default/simple_socket_server.o
                0x00803068                SSSCreateOSDataStructs
                0x00803110                SSSCreateTasks
                0x008031d4                sss_reset_connection
                0x00803244                sss_send_menu
                0x008033d4                sss_handle_accept
                0x00803494                sss_exec_command
                0x00803638                sss_handle_receive
                0x00803824                SSSSimpleSocketServerTask
 .text          0x008039d0        0x0 obj/default/tse_my_system.o
 .text          0x008039d0       0xa4 c:/altera/13.0sp1/nios2eds/bin/gnu/h-i686-mingw32/bin/../lib/gcc/nios2-elf/4.1.2\libgcc.a(_fixunsdfsi.o)
                0x008039d0                __fixunsdfsi
 .text          0x00803a74      0x504 c:/altera/13.0sp1/nios2eds/bin/gnu/h-i686-mingw32/bin/../lib/gcc/nios2-elf/4.1.2\libgcc.a(_addsub_df.o)
                0x00803e84                __subdf3
                0x00803f04                __adddf3
 .text          0x00803f78      0x3c4 c:/altera/13.0sp1/nios2eds/bin/gnu/h-i686-mingw32/bin/../lib/gcc/nios2-elf/4.1.2\libgcc.a(_mul_df.o)
                0x00803f78                __muldf3
 .text          0x0080433c       0x88 c:/altera/13.0sp1/nios2eds/bin/gnu/h-i686-mingw32/bin/../lib/gcc/nios2-elf/4.1.2\libgcc.a(_ge_df.o)
                0x0080433c                __gedf2
 .text          0x008043c4       0xd8 c:/altera/13.0sp1/nios2eds/bin/gnu/h-i686-mingw32/bin/../lib/gcc/nios2-elf/4.1.2\libgcc.a(_df_to_si.o)
                0x008043c4                __fixdfsi
 .text          0x0080449c        0x0 c:/altera/13.0sp1/nios2eds/bin/gnu/h-i686-mingw32/bin/../lib/gcc/nios2-elf/4.1.2\libgcc.a(_thenan_df.o)
 .text          0x0080449c      0x194 c:/altera/13.0sp1/nios2eds/bin/gnu/h-i686-mingw32/bin/../lib/gcc/nios2-elf/4.1.2\libgcc.a(_usi_to_df.o)
                0x0080449c                __floatunsidf
 .text          0x00804630       0x98 c:/altera/13.0sp1/nios2eds/bin/gnu/h-i686-mingw32/bin/../lib/gcc/nios2-elf/4.1.2\libgcc.a(_muldi3.o)
                0x00804630                __muldi3
 .text          0x008046c8       0x80 c:/altera/13.0sp1/nios2eds/bin/gnu/h-i686-mingw32/bin/../lib/gcc/nios2-elf/4.1.2\libgcc.a(_clzsi2.o)
                0x008046c8                __clzsi2
 .text          0x00804748      0x314 c:/altera/13.0sp1/nios2eds/bin/gnu/h-i686-mingw32/bin/../lib/gcc/nios2-elf/4.1.2\libgcc.a(_pack_df.o)
                0x00804748                __pack_d
 .text          0x00804a5c      0x138 c:/altera/13.0sp1/nios2eds/bin/gnu/h-i686-mingw32/bin/../lib/gcc/nios2-elf/4.1.2\libgcc.a(_unpack_df.o)
                0x00804a5c                __unpack_d
 .text          0x00804b94       0xc8 c:/altera/13.0sp1/nios2eds/bin/gnu/h-i686-mingw32/bin/../lib/gcc/nios2-elf/4.1.2\libgcc.a(_fpcmp_parts_df.o)
                0x00804b94                __fpcmp_parts_d
 .text          0x00804c5c        0x0 c:/altera/13.0sp1/nios2eds/bin/gnu/h-i686-mingw32/bin/../lib/gcc/nios2-elf/4.1.2\libgcc.a(_clz.o)
 .text          0x00804c5c       0x18 c:/altera/13.0sp1/nios2eds/bin/gnu/h-i686-mingw32/bin/../lib/gcc/nios2-elf/4.1.2/../../../../nios2-elf/lib\libc.a(lib_a-atoi.o)
                0x00804c5c                _atoi_r
                0x00804c68                atoi
 .text          0x00804c74        0x0 c:/altera/13.0sp1/nios2eds/bin/gnu/h-i686-mingw32/bin/../lib/gcc/nios2-elf/4.1.2/../../../../nios2-elf/lib\libc.a(lib_a-ctype_.o)
 .text          0x00804c74       0x10 c:/altera/13.0sp1/nios2eds/bin/gnu/h-i686-mingw32/bin/../lib/gcc/nios2-elf/4.1.2/../../../../nios2-elf/lib\libc.a(lib_a-errno.o)
                0x00804c74                __errno
 .text          0x00804c84       0x38 c:/altera/13.0sp1/nios2eds/bin/gnu/h-i686-mingw32/bin/../lib/gcc/nios2-elf/4.1.2/../../../../nios2-elf/lib\libc.a(lib_a-exit.o)
                0x00804c84                exit
 .text          0x00804cbc       0x60 c:/altera/13.0sp1/nios2eds/bin/gnu/h-i686-mingw32/bin/../lib/gcc/nios2-elf/4.1.2/../../../../nios2-elf/lib\libc.a(lib_a-fprintf.o)
                0x00804cbc                fprintf
                0x00804ce8                _fprintf_r
 .text          0x00804d1c       0xdc c:/altera/13.0sp1/nios2eds/bin/gnu/h-i686-mingw32/bin/../lib/gcc/nios2-elf/4.1.2/../../../../nios2-elf/lib\libc.a(lib_a-fwrite.o)
                0x00804d1c                _fwrite_r
                0x00804db8                fwrite
 .text          0x00804df8      0x128 c:/altera/13.0sp1/nios2eds/bin/gnu/h-i686-mingw32/bin/../lib/gcc/nios2-elf/4.1.2/../../../../nios2-elf/lib\libc.a(lib_a-getc.o)
                0x00804df8                getc
                0x00804e90                _getc_r
 .text          0x00804f20        0x0 c:/altera/13.0sp1/nios2eds/bin/gnu/h-i686-mingw32/bin/../lib/gcc/nios2-elf/4.1.2/../../../../nios2-elf/lib\libc.a(lib_a-impure.o)
 .text          0x00804f20       0xa0 c:/altera/13.0sp1/nios2eds/bin/gnu/h-i686-mingw32/bin/../lib/gcc/nios2-elf/4.1.2/../../../../nios2-elf/lib\libc.a(lib_a-memcpy.o)
                0x00804f20                memcpy
 .text          0x00804fc0       0xe0 c:/altera/13.0sp1/nios2eds/bin/gnu/h-i686-mingw32/bin/../lib/gcc/nios2-elf/4.1.2/../../../../nios2-elf/lib\libc.a(lib_a-memmove.o)
                0x00804fc0                memmove
 .text          0x008050a0       0x98 c:/altera/13.0sp1/nios2eds/bin/gnu/h-i686-mingw32/bin/../lib/gcc/nios2-elf/4.1.2/../../../../nios2-elf/lib\libc.a(lib_a-memset.o)
                0x008050a0                memset
 .text          0x00805138       0x80 c:/altera/13.0sp1/nios2eds/bin/gnu/h-i686-mingw32/bin/../lib/gcc/nios2-elf/4.1.2/../../../../nios2-elf/lib\libc.a(lib_a-perror.o)
                0x00805138                _perror_r
                0x008051a4                perror
 .text          0x008051b8       0x78 c:/altera/13.0sp1/nios2eds/bin/gnu/h-i686-mingw32/bin/../lib/gcc/nios2-elf/4.1.2/../../../../nios2-elf/lib\libc.a(lib_a-printf.o)
                0x008051b8                printf
                0x008051fc                _printf_r
 .text          0x00805230      0x1ec c:/altera/13.0sp1/nios2eds/bin/gnu/h-i686-mingw32/bin/../lib/gcc/nios2-elf/4.1.2/../../../../nios2-elf/lib\libc.a(lib_a-putc.o)
                0x00805230                putc
                0x00805334                _putc_r
 .text          0x0080541c       0x24 c:/altera/13.0sp1/nios2eds/bin/gnu/h-i686-mingw32/bin/../lib/gcc/nios2-elf/4.1.2/../../../../nios2-elf/lib\libc.a(lib_a-putchar.o)
                0x0080541c                putchar
                0x00805438                _putchar_r
 .text          0x00805440       0xb4 c:/altera/13.0sp1/nios2eds/bin/gnu/h-i686-mingw32/bin/../lib/gcc/nios2-elf/4.1.2/../../../../nios2-elf/lib\libc.a(lib_a-puts.o)
                0x00805440                _puts_r
                0x008054e0                puts
 .text          0x008054f4       0x94 c:/altera/13.0sp1/nios2eds/bin/gnu/h-i686-mingw32/bin/../lib/gcc/nios2-elf/4.1.2/../../../../nios2-elf/lib\libc.a(lib_a-rand.o)
                0x008054f4                srand
                0x00805510                rand
 .text          0x00805588       0x60 c:/altera/13.0sp1/nios2eds/bin/gnu/h-i686-mingw32/bin/../lib/gcc/nios2-elf/4.1.2/../../../../nios2-elf/lib\libc.a(lib_a-rget.o)
                0x00805588                __srget_r
                0x008055d4                __srget
 .text          0x008055e8       0xd4 c:/altera/13.0sp1/nios2eds/bin/gnu/h-i686-mingw32/bin/../lib/gcc/nios2-elf/4.1.2/../../../../nios2-elf/lib\libc.a(lib_a-sprintf.o)
                0x008055e8                sprintf
                0x0080565c                _sprintf_r
 .text          0x008056bc       0xe0 c:/altera/13.0sp1/nios2eds/bin/gnu/h-i686-mingw32/bin/../lib/gcc/nios2-elf/4.1.2/../../../../nios2-elf/lib\libc.a(lib_a-strchr.o)
                0x008056bc                strchr
 .text          0x0080579c       0xbc c:/altera/13.0sp1/nios2eds/bin/gnu/h-i686-mingw32/bin/../lib/gcc/nios2-elf/4.1.2/../../../../nios2-elf/lib\libc.a(lib_a-strcmp.o)
                0x0080579c                strcmp
 .text          0x00805858      0x674 c:/altera/13.0sp1/nios2eds/bin/gnu/h-i686-mingw32/bin/../lib/gcc/nios2-elf/4.1.2/../../../../nios2-elf/lib\libc.a(lib_a-strerror.o)
                0x00805858                strerror
 .text          0x00805ecc       0x74 c:/altera/13.0sp1/nios2eds/bin/gnu/h-i686-mingw32/bin/../lib/gcc/nios2-elf/4.1.2/../../../../nios2-elf/lib\libc.a(lib_a-strlen.o)
                0x00805ecc                strlen
 .text          0x00805f40      0x268 c:/altera/13.0sp1/nios2eds/bin/gnu/h-i686-mingw32/bin/../lib/gcc/nios2-elf/4.1.2/../../../../nios2-elf/lib\libc.a(lib_a-strtol.o)
                0x00805f40                _strtol_r
                0x00806184                strtol
 .text          0x008061a8       0x5c c:/altera/13.0sp1/nios2eds/bin/gnu/h-i686-mingw32/bin/../lib/gcc/nios2-elf/4.1.2/../../../../nios2-elf/lib\libc.a(lib_a-time.o)
                0x008061a8                time
 .text          0x00806204        0x8 c:/altera/13.0sp1/nios2eds/bin/gnu/h-i686-mingw32/bin/../lib/gcc/nios2-elf/4.1.2/../../../../nios2-elf/lib\libc.a(lib_a-u_strerr.o)
                0x00806204                _user_strerror
 .text          0x0080620c     0x1f28 c:/altera/13.0sp1/nios2eds/bin/gnu/h-i686-mingw32/bin/../lib/gcc/nios2-elf/4.1.2/../../../../nios2-elf/lib\libc.a(lib_a-vfprintf.o)
                0x00806264                ___vfprintf_internal_r
                0x00808110                __vfprintf_internal
 .text          0x00808134      0x14c c:/altera/13.0sp1/nios2eds/bin/gnu/h-i686-mingw32/bin/../lib/gcc/nios2-elf/4.1.2/../../../../nios2-elf/lib\libc.a(lib_a-wbuf.o)
                0x00808134                __swbuf_r
                0x00808264                __swbuf
 .text          0x00808280      0x13c c:/altera/13.0sp1/nios2eds/bin/gnu/h-i686-mingw32/bin/../lib/gcc/nios2-elf/4.1.2/../../../../nios2-elf/lib\libc.a(lib_a-wsetup.o)
                0x00808280                __swsetup_r
 .text          0x008083bc      0x1b4 c:/altera/13.0sp1/nios2eds/bin/gnu/h-i686-mingw32/bin/../lib/gcc/nios2-elf/4.1.2/../../../../nios2-elf/lib\libc.a(lib_a-__call_atexit.o)
                0x008083c0                __call_exitprocs
 .text          0x00808570     0x17cc c:/altera/13.0sp1/nios2eds/bin/gnu/h-i686-mingw32/bin/../lib/gcc/nios2-elf/4.1.2/../../../../nios2-elf/lib\libc.a(lib_a-dtoa.o)
                0x00808788                _dtoa_r
 .text          0x00809d3c      0x230 c:/altera/13.0sp1/nios2eds/bin/gnu/h-i686-mingw32/bin/../lib/gcc/nios2-elf/4.1.2/../../../../nios2-elf/lib\libc.a(lib_a-fflush.o)
                0x00809d3c                _fflush_r
                0x00809f38                fflush
 .text          0x00809f6c      0x2c0 c:/altera/13.0sp1/nios2eds/bin/gnu/h-i686-mingw32/bin/../lib/gcc/nios2-elf/4.1.2/../../../../nios2-elf/lib\libc.a(lib_a-findfp.o)
                0x00809fc4                __sfp_lock_acquire
                0x00809fc8                __sfp_lock_release
                0x00809fcc                __sinit_lock_acquire
                0x00809fd0                __sinit_lock_release
                0x00809fd4                __sinit
                0x0080a088                __fp_unlock_all
                0x0080a0a0                __fp_lock_all
                0x0080a0b8                _cleanup_r
                0x0080a0c4                _cleanup
                0x0080a0d4                __sfmoreglue
                0x0080a13c                __sfp
 .text          0x0080a22c       0xbc c:/altera/13.0sp1/nios2eds/bin/gnu/h-i686-mingw32/bin/../lib/gcc/nios2-elf/4.1.2/../../../../nios2-elf/lib\libc.a(lib_a-fputc.o)
                0x0080a22c                fputc
                0x0080a290                _fputc_r
 .text          0x0080a2e8       0x90 c:/altera/13.0sp1/nios2eds/bin/gnu/h-i686-mingw32/bin/../lib/gcc/nios2-elf/4.1.2/../../../../nios2-elf/lib\libc.a(lib_a-fputs.o)
                0x0080a2e8                _fputs_r
                0x0080a35c                fputs
 .text          0x0080a378      0x440 c:/altera/13.0sp1/nios2eds/bin/gnu/h-i686-mingw32/bin/../lib/gcc/nios2-elf/4.1.2/../../../../nios2-elf/lib\libc.a(lib_a-freer.o)
                0x0080a378                _malloc_trim_r
                0x0080a4a4                _free_r
 .text          0x0080a7b8      0x49c c:/altera/13.0sp1/nios2eds/bin/gnu/h-i686-mingw32/bin/../lib/gcc/nios2-elf/4.1.2/../../../../nios2-elf/lib\libc.a(lib_a-fvwrite.o)
                0x0080a7b8                __sfvwrite_r
 .text          0x0080ac54      0x180 c:/altera/13.0sp1/nios2eds/bin/gnu/h-i686-mingw32/bin/../lib/gcc/nios2-elf/4.1.2/../../../../nios2-elf/lib\libc.a(lib_a-fwalk.o)
                0x0080ac54                _fwalk_reent
                0x0080ad1c                _fwalk
 .text          0x0080add4       0x74 c:/altera/13.0sp1/nios2eds/bin/gnu/h-i686-mingw32/bin/../lib/gcc/nios2-elf/4.1.2/../../../../nios2-elf/lib\libc.a(lib_a-gettimeofdayr.o)
                0x0080add4                _gettimeofday_r
 .text          0x0080ae48        0x0 c:/altera/13.0sp1/nios2eds/bin/gnu/h-i686-mingw32/bin/../lib/gcc/nios2-elf/4.1.2/../../../../nios2-elf/lib\libc.a(lib_a-int_errno.o)
 .text          0x0080ae48       0xc4 c:/altera/13.0sp1/nios2eds/bin/gnu/h-i686-mingw32/bin/../lib/gcc/nios2-elf/4.1.2/../../../../nios2-elf/lib\libc.a(lib_a-locale.o)
                0x0080ae48                __locale_charset
                0x0080ae50                _localeconv_r
                0x0080ae5c                localeconv
                0x0080ae6c                _setlocale_r
                0x0080aef0                setlocale
 .text          0x0080af0c      0x194 c:/altera/13.0sp1/nios2eds/bin/gnu/h-i686-mingw32/bin/../lib/gcc/nios2-elf/4.1.2/../../../../nios2-elf/lib\libc.a(lib_a-makebuf.o)
                0x0080af0c                __smakebuf_r
 .text          0x0080b0a0      0x740 c:/altera/13.0sp1/nios2eds/bin/gnu/h-i686-mingw32/bin/../lib/gcc/nios2-elf/4.1.2/../../../../nios2-elf/lib\libc.a(lib_a-mallocr.o)
                0x0080b0a0                _malloc_r
 .text          0x0080b7e0       0xe4 c:/altera/13.0sp1/nios2eds/bin/gnu/h-i686-mingw32/bin/../lib/gcc/nios2-elf/4.1.2/../../../../nios2-elf/lib\libc.a(lib_a-memchr.o)
                0x0080b7e0                memchr
 .text          0x0080b8c4      0xff4 c:/altera/13.0sp1/nios2eds/bin/gnu/h-i686-mingw32/bin/../lib/gcc/nios2-elf/4.1.2/../../../../nios2-elf/lib\libc.a(lib_a-mprec.o)
                0x0080b8c4                _Bfree
                0x0080b8ec                __hi0bits
                0x0080b95c                __lo0bits
                0x0080ba20                __mcmp
                0x0080ba80                __ulp
                0x0080bb00                __b2d
                0x0080bc20                __ratio
                0x0080bcd0                _mprec_log10
                0x0080bd64                __copybits
                0x0080bdbc                __any_on
                0x0080be44                _Balloc
                0x0080bf00                __d2b
                0x0080c07c                __mdiff
                0x0080c208                __lshift
                0x0080c354                __multiply
                0x0080c53c                __i2b
                0x0080c578                __multadd
                0x0080c678                __pow5mult
                0x0080c798                __s2b
 .text          0x0080c8b8      0x5f4 c:/altera/13.0sp1/nios2eds/bin/gnu/h-i686-mingw32/bin/../lib/gcc/nios2-elf/4.1.2/../../../../nios2-elf/lib\libc.a(lib_a-reallocr.o)
                0x0080c8b8                _realloc_r
 .text          0x0080ceac      0x1e0 c:/altera/13.0sp1/nios2eds/bin/gnu/h-i686-mingw32/bin/../lib/gcc/nios2-elf/4.1.2/../../../../nios2-elf/lib\libc.a(lib_a-refill.o)
                0x0080ceac                __srefill_r
 .text          0x0080d08c       0x40 c:/altera/13.0sp1/nios2eds/bin/gnu/h-i686-mingw32/bin/../lib/gcc/nios2-elf/4.1.2/../../../../nios2-elf/lib\libc.a(lib_a-s_isinfd.o)
                0x0080d08c                __isinfd
 .text          0x0080d0cc       0x30 c:/altera/13.0sp1/nios2eds/bin/gnu/h-i686-mingw32/bin/../lib/gcc/nios2-elf/4.1.2/../../../../nios2-elf/lib\libc.a(lib_a-s_isnand.o)
                0x0080d0cc                __isnand
 .text          0x0080d0fc       0x70 c:/altera/13.0sp1/nios2eds/bin/gnu/h-i686-mingw32/bin/../lib/gcc/nios2-elf/4.1.2/../../../../nios2-elf/lib\libc.a(lib_a-sbrkr.o)
                0x0080d0fc                _sbrk_r
 .text          0x0080d16c      0x14c c:/altera/13.0sp1/nios2eds/bin/gnu/h-i686-mingw32/bin/../lib/gcc/nios2-elf/4.1.2/../../../../nios2-elf/lib\libc.a(lib_a-stdio.o)
                0x0080d16c                __sclose
                0x0080d174                __sseek
                0x0080d1dc                __swrite
                0x0080d258                __sread
 .text          0x0080d2b8       0x78 c:/altera/13.0sp1/nios2eds/bin/gnu/h-i686-mingw32/bin/../lib/gcc/nios2-elf/4.1.2/../../../../nios2-elf/lib\libc.a(lib_a-writer.o)
                0x0080d2b8                _write_r
 .text          0x0080d330       0xb4 c:/altera/13.0sp1/nios2eds/bin/gnu/h-i686-mingw32/bin/../lib/gcc/nios2-elf/4.1.2/../../../../nios2-elf/lib\libc.a(lib_a-callocr.o)
                0x0080d330                _calloc_r
 .text          0x0080d3e4       0x70 c:/altera/13.0sp1/nios2eds/bin/gnu/h-i686-mingw32/bin/../lib/gcc/nios2-elf/4.1.2/../../../../nios2-elf/lib\libc.a(lib_a-closer.o)
                0x0080d3e4                _close_r
 .text          0x0080d454      0x124 c:/altera/13.0sp1/nios2eds/bin/gnu/h-i686-mingw32/bin/../lib/gcc/nios2-elf/4.1.2/../../../../nios2-elf/lib\libc.a(lib_a-fclose.o)
                0x0080d454                _fclose_r
                0x0080d564                fclose
 .text          0x0080d578       0x74 c:/altera/13.0sp1/nios2eds/bin/gnu/h-i686-mingw32/bin/../lib/gcc/nios2-elf/4.1.2/../../../../nios2-elf/lib\libc.a(lib_a-fstatr.o)
                0x0080d578                _fstat_r
 .text          0x0080d5ec       0x70 c:/altera/13.0sp1/nios2eds/bin/gnu/h-i686-mingw32/bin/../lib/gcc/nios2-elf/4.1.2/../../../../nios2-elf/lib\libc.a(lib_a-isattyr.o)
                0x0080d5ec                _isatty_r
 .text          0x0080d65c       0x78 c:/altera/13.0sp1/nios2eds/bin/gnu/h-i686-mingw32/bin/../lib/gcc/nios2-elf/4.1.2/../../../../nios2-elf/lib\libc.a(lib_a-lseekr.o)
                0x0080d65c                _lseek_r
 .text          0x0080d6d4       0x78 c:/altera/13.0sp1/nios2eds/bin/gnu/h-i686-mingw32/bin/../lib/gcc/nios2-elf/4.1.2/../../../../nios2-elf/lib\libc.a(lib_a-readr.o)
                0x0080d6d4                _read_r
 .text          0x0080d74c      0x5dc c:/altera/13.0sp1/nios2eds/bin/gnu/h-i686-mingw32/bin/../lib/gcc/nios2-elf/4.1.2\libgcc.a(_udivdi3.o)
                0x0080d74c                __udivdi3
 .text          0x0080dd28      0x5b0 c:/altera/13.0sp1/nios2eds/bin/gnu/h-i686-mingw32/bin/../lib/gcc/nios2-elf/4.1.2\libgcc.a(_umoddi3.o)
                0x0080dd28                __umoddi3
 .text          0x0080e2d8      0x258 c:/altera/13.0sp1/nios2eds/bin/gnu/h-i686-mingw32/bin/../lib/gcc/nios2-elf/4.1.2\libgcc.a(_div_df.o)
                0x0080e2d8                __divdf3
 .text          0x0080e530       0x88 c:/altera/13.0sp1/nios2eds/bin/gnu/h-i686-mingw32/bin/../lib/gcc/nios2-elf/4.1.2\libgcc.a(_eq_df.o)
                0x0080e530                __eqdf2
 .text          0x0080e5b8       0x88 c:/altera/13.0sp1/nios2eds/bin/gnu/h-i686-mingw32/bin/../lib/gcc/nios2-elf/4.1.2\libgcc.a(_ne_df.o)
                0x0080e5b8                __nedf2
 .text          0x0080e640       0x88 c:/altera/13.0sp1/nios2eds/bin/gnu/h-i686-mingw32/bin/../lib/gcc/nios2-elf/4.1.2\libgcc.a(_gt_df.o)
                0x0080e640                __gtdf2
 .text          0x0080e6c8       0x88 c:/altera/13.0sp1/nios2eds/bin/gnu/h-i686-mingw32/bin/../lib/gcc/nios2-elf/4.1.2\libgcc.a(_lt_df.o)
                0x0080e6c8                __ltdf2
 .text          0x0080e750       0xf8 c:/altera/13.0sp1/nios2eds/bin/gnu/h-i686-mingw32/bin/../lib/gcc/nios2-elf/4.1.2\libgcc.a(_si_to_df.o)
                0x0080e750                __floatsidf
 .text          0x0080e848      0x14c c:/altera/13.0sp1/nios2eds/bin/gnu/h-i686-mingw32/bin/../lib/gcc/nios2-elf/4.1.2\libgcc.a(lib2-divmod.o)
                0x0080e8c4                __divsi3
                0x0080e924                __modsi3
                0x0080e984                __udivsi3
                0x0080e98c                __umodsi3
 .text          0x0080e994       0x6c ../rtc_socket_bsp/\libucosii_bsp.a(alt_exit.o)
                0x0080e9d4                _exit
 .text          0x0080ea00       0xd0 ../rtc_socket_bsp/\libucosii_bsp.a(alt_flash_dev.o)
                0x0080ea00                alt_flash_open_dev
                0x0080ea7c                alt_flash_close_dev
 .text          0x0080ead0      0x134 ../rtc_socket_bsp/\libucosii_bsp.a(alt_fstat.o)
                0x0080ead0                fstat
 .text          0x0080ec04      0x21c ../rtc_socket_bsp/\libucosii_bsp.a(alt_gettod.o)
                0x0080ec04                gettimeofday
 .text          0x0080ee20      0x1c0 ../rtc_socket_bsp/\libucosii_bsp.a(alt_irq_register.o)
                0x0080ee20                alt_irq_register
 .text          0x0080efe0        0x0 ../rtc_socket_bsp/\libucosii_bsp.a(alt_irq_vars.o)
 .text          0x0080efe0      0x120 ../rtc_socket_bsp/\libucosii_bsp.a(alt_isatty.o)
                0x0080efe0                isatty
 .text          0x0080f100      0x150 ../rtc_socket_bsp/\libucosii_bsp.a(alt_lseek.o)
                0x0080f100                lseek
 .text          0x0080f250       0xc8 ../rtc_socket_bsp/\libucosii_bsp.a(alt_main.o)
                0x0080f250                alt_main
 .text          0x0080f318       0xbc ../rtc_socket_bsp/\libucosii_bsp.a(alt_sbrk.o)
                0x0080f318                sbrk
 .text          0x0080f3d4      0x1a8 ../rtc_socket_bsp/\libucosii_bsp.a(alt_tick.o)
                0x0080f3d4                alt_alarm_stop
                0x0080f46c                alt_tick
 .text          0x0080f57c      0x118 ../rtc_socket_bsp/\libucosii_bsp.a(alt_usleep.o)
                0x0080f57c                usleep
 .text          0x0080f694      0x108 ../rtc_socket_bsp/\libucosii_bsp.a(alt_env_lock.o)
                0x0080f694                __env_lock
                0x0080f740                __env_unlock
 .text          0x0080f79c      0x1d8 ../rtc_socket_bsp/\libucosii_bsp.a(alt_malloc_lock.o)
                0x0080f79c                __malloc_lock
                0x0080f8a4                __malloc_unlock
 .text          0x0080f974     0x2128 ../rtc_socket_bsp/\libucosii_bsp.a(os_core.o)
                0x0080f974                OSEventNameGet
                0x0080faa4                OSEventNameSet
                0x0080fbe8                OSEventPendMulti
                0x0081029c                OSInit
                0x008102f0                OSIntEnter
                0x0081036c                OSIntExit
                0x0081046c                OSSchedLock
                0x008104f8                OSSchedUnlock
                0x008105dc                OSStart
                0x0081064c                OSStatInit
                0x008106f8                OSTimeTick
                0x00810938                OSVersion
                0x00810958                OS_Dummy
                0x00810974                OS_EventTaskRdy
                0x00810b08                OS_EventTaskWait
                0x00810c18                OS_EventTaskWaitMulti
                0x00810d6c                OS_EventTaskRemove
                0x00810e24                OS_EventTaskRemoveMulti
                0x00810f28                OS_EventWaitListInit
                0x008112f4                OS_MemClr
                0x00811348                OS_MemCopy
                0x008113b4                OS_Sched
                0x008114f8                OS_StrCopy
                0x00811578                OS_StrLen
                0x008115d0                OS_TaskIdle
                0x0081162c                OS_TaskStat
                0x008116f4                OS_TaskStatStkChk
                0x008117bc                OS_TCBInit
 .text          0x00811a9c      0x18c ../rtc_socket_bsp/\libucosii_bsp.a(os_dbg.o)
                0x00811a9c                OSDebugInit
 .text          0x00811c28     0x193c ../rtc_socket_bsp/\libucosii_bsp.a(os_flag.o)
                0x00811c28                OSFlagAccept
                0x00811f5c                OSFlagCreate
                0x00812098                OSFlagDel
                0x00812340                OSFlagNameGet
                0x00812484                OSFlagNameSet
                0x008125d8                OSFlagPend
                0x00812c1c                OSFlagPendGetFlagsRdy
                0x00812c84                OSFlagPost
                0x0081302c                OSFlagQuery
                0x008132c4                OS_FlagInit
                0x008134b8                OS_FlagUnlink
 .text          0x00813564      0x808 ../rtc_socket_bsp/\libucosii_bsp.a(os_mem.o)
                0x00813564                OSMemCreate
                0x00813780                OSMemGet
                0x00813884                OSMemNameGet
                0x00813990                OSMemNameSet
                0x00813ab0                OSMemPut
                0x00813ba0                OSMemQuery
                0x00813c9c                OS_MemInit
 .text          0x00813d6c     0x1334 ../rtc_socket_bsp/\libucosii_bsp.a(os_q.o)
                0x00813d6c                OSQAccept
                0x00813ec0                OSQCreate
                0x008140d4                OSQDel
                0x008143d4                OSQFlush
                0x0081449c                OSQPend
                0x008147bc                OSQPendAbort
                0x00814938                OSQPost
                0x00814ab8                OSQPostFront
                0x00814c40                OSQPostOpt
                0x00814e74                OSQQuery
                0x00814ff4                OS_QInit
 .text          0x008150a0      0xbc8 ../rtc_socket_bsp/\libucosii_bsp.a(os_sem.o)
                0x008150a0                OSSemAccept
                0x00815160                OSSemCreate
                0x00815274                OSSemDel
                0x00815514                OSSemPend
                0x00815790                OSSemPendAbort
                0x0081590c                OSSemPost
                0x00815a34                OSSemQuery
                0x00815b64                OSSemSet
 .text          0x00815c68     0x1a40 ../rtc_socket_bsp/\libucosii_bsp.a(os_task.o)
                0x00815c68                OSTaskChangePrio
                0x008161dc                OSTaskCreate
                0x008163b0                OSTaskCreateExt
                0x008165b0                OSTaskDel
                0x008169bc                OSTaskDelReq
                0x00816b2c                OSTaskNameGet
                0x00816ce4                OSTaskNameSet
                0x00816ea8                OSTaskResume
                0x008170c0                OSTaskStkChk
                0x008172bc                OSTaskSuspend
                0x008174e8                OSTaskQuery
                0x0081762c                OS_TaskStkClr
 .text          0x008176a8      0x670 ../rtc_socket_bsp/\libucosii_bsp.a(os_time.o)
                0x008176a8                OSTimeDly
                0x008177f4                OSTimeDlyHMSM
                0x00817a40                OSTimeDlyResume
                0x00817c50                OSTimeGet
                0x00817cb4                OSTimeSet
 .text          0x00817d18      0x118 ../rtc_socket_bsp/\libucosii_bsp.a(alt_sys_init.o)
                0x00817d18                alt_irq_init
                0x00817d4c                alt_sys_init
 .text          0x00817e30      0x8c8 ../rtc_socket_bsp/\libucosii_bsp.a(altera_avalon_cfi_flash.o)
                0x00817e30                alt_flash_cfi_init
                0x00817f04                alt_flash_cfi_write
                0x008181c4                alt_flash_cfi_get_info
                0x00818254                alt_flash_cfi_read
                0x008182bc                alt_write_value_to_flash
                0x00818420                alt_flash_program_block
 .text          0x008186f8     0x14a8 ../rtc_socket_bsp/\libucosii_bsp.a(altera_avalon_cfi_flash_table.o)
                0x008186f8                alt_read_query_entry_8bit
                0x00818738                alt_read_query_entry_16bit
                0x0081877c                alt_read_query_entry_32bit
                0x008187c4                alt_write_flash_command_8bit_device_8bit_mode
                0x00818800                alt_write_flash_command_16bit_device_8bit_mode
                0x0081887c                alt_write_flash_command_32bit_device_8bit_mode
                0x008188c4                alt_write_flash_command_16bit_device_16bit_mode
                0x00818908                alt_write_flash_command_32bit_device_16bit_mode
                0x00818950                alt_write_flash_command_32bit_device_32bit_mode
                0x00818998                alt_write_native_8bit
                0x008189cc                alt_write_native_16bit
                0x00818a00                alt_write_native_32bit
                0x00818a30                alt_set_flash_width_func
                0x00818c10                alt_set_flash_algorithm_func
                0x00818d38                alt_read_cfi_table
                0x00819318                alt_read_cfi_width
                0x00819ac4                alt_check_primary_table
 .text          0x00819ba0      0x9e4 ../rtc_socket_bsp/\libucosii_bsp.a(altera_avalon_epcs_flash_controller.o)
                0x00819ba0                alt_epcs_flash_init
                0x00819fbc                alt_epcs_flash_write
                0x0081a23c                alt_epcs_flash_get_info
                0x0081a2cc                alt_epcs_flash_erase_block
                0x0081a3d0                alt_epcs_flash_write_block
                0x0081a4ec                alt_epcs_flash_read
 .text          0x0081a584      0x148 ../rtc_socket_bsp/\libucosii_bsp.a(altera_avalon_jtag_uart_fd.o)
                0x0081a584                altera_avalon_jtag_uart_read_fd
                0x0081a5dc                altera_avalon_jtag_uart_write_fd
                0x0081a634                altera_avalon_jtag_uart_close_fd
                0x0081a67c                altera_avalon_jtag_uart_ioctl_fd
 .text          0x0081a6cc      0x584 ../rtc_socket_bsp/\libucosii_bsp.a(altera_avalon_jtag_uart_init.o)
                0x0081a6cc                altera_avalon_jtag_uart_init
                0x0081abdc                altera_avalon_jtag_uart_close
 .text          0x0081ac50       0xf4 ../rtc_socket_bsp/\libucosii_bsp.a(altera_avalon_jtag_uart_ioctl.o)
                0x0081ac50                altera_avalon_jtag_uart_ioctl
 .text          0x0081ad44      0x2c0 ../rtc_socket_bsp/\libucosii_bsp.a(altera_avalon_jtag_uart_read.o)
                0x0081ad44                altera_avalon_jtag_uart_read
 .text          0x0081b004      0x2dc ../rtc_socket_bsp/\libucosii_bsp.a(altera_avalon_jtag_uart_write.o)
                0x0081b004                altera_avalon_jtag_uart_write
 .text          0x0081b2e0      0xf3c ../rtc_socket_bsp/\libucosii_bsp.a(altera_avalon_lcd_16207.o)
                0x0081bab4                altera_avalon_lcd_16207_write
                0x0081c0b8                altera_avalon_lcd_16207_init
 .text          0x0081c21c       0x58 ../rtc_socket_bsp/\libucosii_bsp.a(altera_avalon_lcd_16207_fd.o)
                0x0081c21c                altera_avalon_lcd_16207_write_fd
 .text          0x0081c274      0x100 ../rtc_socket_bsp/\libucosii_bsp.a(altera_avalon_timer_sc.o)
                0x0081c2e4                alt_avalon_timer_sc_init
 .text          0x0081c374       0xf8 ../rtc_socket_bsp/\libucosii_bsp.a(altera_avalon_uart_fd.o)
                0x0081c374                altera_avalon_uart_read_fd
                0x0081c3cc                altera_avalon_uart_write_fd
                0x0081c424                altera_avalon_uart_close_fd
 .text          0x0081c46c      0x57c ../rtc_socket_bsp/\libucosii_bsp.a(altera_avalon_uart_init.o)
                0x0081c46c                altera_avalon_uart_init
                0x0081c988                altera_avalon_uart_close
 .text          0x0081c9e8      0x310 ../rtc_socket_bsp/\libucosii_bsp.a(altera_avalon_uart_read.o)
                0x0081c9e8                altera_avalon_uart_read
 .text          0x0081ccf8      0x2a8 ../rtc_socket_bsp/\libucosii_bsp.a(altera_avalon_uart_write.o)
                0x0081ccf8                altera_avalon_uart_write
 .text          0x0081cfa0      0x6d4 ../rtc_socket_bsp/\libucosii_bsp.a(epcs_commands.o)
                0x0081cfa0                epcs_read_status_register
                0x0081d000                epcs_sector_erase
                0x0081d168                epcs_read_buffer
                0x0081d2b4                epcs_write_enable
                0x0081d304                epcs_write_status_register
                0x0081d368                epcs_write_buffer
                0x0081d4d8                epcs_read_electronic_signature
                0x0081d544                epcs_read_device_id
                0x0081d5c4                epcs_enter_4_bytes_mode
                0x0081d61c                epcs_exit_4_bytes_mode
 .text          0x0081d674       0x54 ../rtc_socket_bsp/\libucosii_bsp.a(alt_iniche_close.o)
                0x0081d674                close
 .text          0x0081d6c8      0x144 ../rtc_socket_bsp/\libucosii_bsp.a(alt_iniche_dev.o)
                0x0081d6c8                iniche_devices_init
 .text          0x0081d80c       0x78 ../rtc_socket_bsp/\libucosii_bsp.a(alt_iniche_read.o)
                0x0081d80c                read
 .text          0x0081d884       0x70 ../rtc_socket_bsp/\libucosii_bsp.a(alt_iniche_write.o)
                0x0081d884                write
 .text          0x0081d8f4      0xedc ../rtc_socket_bsp/\libucosii_bsp.a(ipnet.o)
                0x0081d8f4                Netinit
                0x0081df40                fixup_subnet_mask
                0x0081e0a0                netclose
                0x0081e188                pktdemux
                0x0081e55c                c_older
                0x0081e62c                ip2mac
 .text          0x0081e7d0      0x4b0 ../rtc_socket_bsp/\libucosii_bsp.a(ipstart.o)
                0x0081e7d0                ip_startup
                0x0081eab4                exit_hook
                0x0081eb20                ip_exit
                0x0081ebf0                if_netnumber
 .text          0x0081ec80     0x10e8 ../rtc_socket_bsp/\libucosii_bsp.a(igmp_cmn.o)
                0x0081ec80                igmp_init
                0x0081ed70                igmp_input
                0x0081ee68                igmp_fasttimo
                0x0081f09c                igmp_send
                0x0081f344                igmp_joingroup
                0x0081f5b0                igmp_leavegroup
                0x0081f62c                igmp_validate
                0x0081f988                igmp_print_stats
 .text          0x0081fd68      0xbc8 ../rtc_socket_bsp/\libucosii_bsp.a(bsdsock.o)
                0x0081fd68                bsd_accept
                0x0081fea0                bsd_getpeername
                0x0081ffcc                bsd_getsockname
                0x008200f8                bsd_i_sockoptlen
                0x008202b0                bsd_getsockopt
                0x008203d0                bsd_ioctl
                0x008204d4                bsd_inet_ntoa
                0x00820504                bsd_recvfrom
                0x00820664                bsd_select
                0x00820844                bsd_setsockopt
 .text          0x00820930      0x118 ../rtc_socket_bsp/\libucosii_bsp.a(cksum.o)
                0x00820930                ccksum
                0x008209e0                cksum
 .text          0x00820a48      0xa9c ../rtc_socket_bsp/\libucosii_bsp.a(in_utils.o)
                0x00820a48                do_trap
                0x00820a74                nextarg
                0x00820af0                hexdump
                0x00820c38                print_ipad
                0x00820cac                print_uptime
                0x00820dd8                panic
                0x00820e1c                print_eth
                0x00820f80                uslash
                0x00821000                ns_printf
                0x00821184                std_out
                0x008211c8                con_page
                0x008212b8                parse_args
 .text          0x008214e4      0x1c8 ../rtc_socket_bsp/\libucosii_bsp.a(netmain.o)
                0x008214e4                netmain
                0x008215d8                tk_netmain
                0x00821660                tk_nettick
 .text          0x008216ac      0x810 ../rtc_socket_bsp/\libucosii_bsp.a(parseip.o)
                0x008216ac                parse_ipad
                0x008219c8                inet_addr
                0x00821a30                hextoa
                0x00821aa0                inet_pton
                0x00821b4c                inet_ntop
                0x00821bd8                print46_addr
                0x00821c38                inet46_addr
                0x00821cfc                inet_setport
                0x00821d70                convert_ip
 .text          0x00821ebc      0x5e8 ../rtc_socket_bsp/\libucosii_bsp.a(tk_crnos.o)
                0x00821ebc                TK_OSTimeDly
                0x00821ee8                TK_OSTaskResume
                0x00821f58                tcp_sleep
                0x008220f8                tcp_wakeup
                0x008221fc                TK_OSTaskQuery
                0x00822270                tk_yield
                0x0082229c                tk_stats
 .text          0x008224a4     0x3294 ../rtc_socket_bsp/\libucosii_bsp.a(dhcpclnt.o)
                0x008224a4                dhc_get_srv_ipaddr
                0x00822534                dhc_init
                0x008225f0                dhc_set_callback
                0x00822634                dhc_upcall
                0x00822e64                dhc_buildheader
                0x00823080                dhc_discover
                0x00823598                dhc_rx_offer
                0x0082369c                dhc_request
                0x008241d8                dhc_setip
                0x00824458                dhc_resetip
                0x0082453c                dhc_decline
                0x00824720                dhc_extract_opts
                0x008249dc                dhc_second
                0x008252cc                dhc_halt
                0x00825354                dhc_reclaim
                0x00825524                dhc_state_init
                0x00825584                dhc_alldone
                0x00825614                dhc_ifacedone
                0x00825688                dhc_set_state
 .text          0x00825738       0xcc ../rtc_socket_bsp/\libucosii_bsp.a(dhcputil.o)
                0x00825738                find_opt
 .text          0x00825804      0x79c ../rtc_socket_bsp/\libucosii_bsp.a(pktalloc.o)
                0x00825804                pk_init
                0x00825a94                pk_alloc
                0x00825b70                pk_validate
                0x00825e28                pk_free
                0x00825ed4                pk_get_max_intrsafe_buf_len
                0x00825ef4                dump_buf_estats
 .text          0x00825fa0      0x288 ../rtc_socket_bsp/\libucosii_bsp.a(q.o)
                0x00825fa0                getq
                0x00826068                putq
                0x00826118                qdel
 .text          0x00826228      0x31c ../rtc_socket_bsp/\libucosii_bsp.a(udp_open.o)
                0x00826228                udp_open
                0x00826460                udp_close
 .text          0x00826544      0x194 ../rtc_socket_bsp/\libucosii_bsp.a(asm_cksum.o)
                0x00826544                asm_cksum
 .text          0x008266d8      0x2e4 ../rtc_socket_bsp/\libucosii_bsp.a(brdutils.o)
                0x008266d8                dtrap
                0x00826708                kbhit
                0x008267b4                getch
                0x00826814                clock_init
                0x00826850                clock_c
                0x0082686c                cticks_hook
                0x0082691c                irq_Mask
                0x00826978                irq_Unmask
 .text          0x008269bc      0x488 ../rtc_socket_bsp/\libucosii_bsp.a(osportco.o)
                0x008269bc                LOCK_NET_RESOURCE
                0x00826a7c                UNLOCK_NET_RESOURCE
                0x00826b04                TK_NEWTASK
                0x00826d18                wait_app_sem
                0x00826dcc                post_app_sem
 .text          0x00826e44      0x568 ../rtc_socket_bsp/\libucosii_bsp.a(targnios.o)
                0x00826e44                alt_iniche_init
                0x00827060                pre_task_setup
                0x008270d4                post_task_setup
                0x008270f4                prep_armintcp
                0x0082712c                calloc2
                0x00827160                npalloc
                0x00827254                npfree
                0x0082730c                ncpalloc
                0x00827360                ncpfree
 .text          0x008273ac     0x19b8 ../rtc_socket_bsp/\libucosii_bsp.a(nptcp.o)
                0x008273ac                pffindtype
                0x0082744c                pffindproto
                0x0082751c                m_getnbuf
                0x008276c4                m_free
                0x008277f8                m_freem
                0x0082783c                m_copy
                0x00827b60                m_adj
                0x00827d30                mbuf_len
                0x00827d88                dtom
                0x00827e30                remque
                0x00827ea0                insque
                0x00827f1c                nptcp_init
                0x00828040                tcp_rcv
                0x0082822c                ip_output
                0x00828824                in_broadcast
                0x00828864                np_stripoptions
                0x0082894c                so_icmpdu
                0x00828ca4                tcp_tick
 .text          0x00828d64      0xa2c ../rtc_socket_bsp/\libucosii_bsp.a(rawsock.o)
                0x00828d64                rawip_lookup
                0x00828dd4                rawip_soinput
                0x00828fa8                rawip_usrreq
 .text          0x00829790     0x17fc ../rtc_socket_bsp/\libucosii_bsp.a(sockcall.o)
                0x00829790                DOMAIN_CHECK
                0x008297dc                t_socket
                0x0082986c                t_bind
                0x008299e8                t_listen
                0x00829acc                t_accept
                0x00829d64                t_connect
                0x0082a00c                t_getpeername
                0x0082a050                t_getsockname
                0x0082a290                t_setsockopt
                0x0082a46c                t_getsockopt
                0x0082a610                t_recv
                0x0082a700                t_recvfrom
                0x0082a850                t_sendto
                0x0082aa7c                t_send
                0x0082aca4                t_shutdown
                0x0082ad88                t_socketclose
                0x0082aef0                t_errno
 .text          0x0082af8c     0x23ec ../rtc_socket_bsp/\libucosii_bsp.a(socket.o)
                0x0082af8c                socreate
                0x0082b158                sobind
                0x0082b1b4                solisten
                0x0082b2a4                sofree
                0x0082b3d4                soclose
                0x0082b740                soabort
                0x0082b790                soaccept
                0x0082b82c                soconnect
                0x0082b900                sodisconnect
                0x0082b9a0                sosend
                0x0082bfa8                soreceive
                0x0082c78c                soshutdown
                0x0082c834                sorflush
                0x0082c934                sosetopt
                0x0082cdf4                sogetopt
                0x0082d334                sohasoutofband
 .text          0x0082d378     0x1318 ../rtc_socket_bsp/\libucosii_bsp.a(socket2.o)
                0x0082d378                soisconnecting
                0x0082d3e4                soisconnected
                0x0082d4e0                soisdisconnecting
                0x0082d56c                soisdisconnected
                0x0082d628                sonewconn
                0x0082d844                soqinsque
                0x0082d8f0                soqremque
                0x0082da10                socantsendmore
                0x0082da60                socantrcvmore
                0x0082dab0                sbselqueue
                0x0082dae8                sbwait
                0x0082db50                sbwakeup
                0x0082dbec                soreserve
                0x0082dc6c                sbreserve
                0x0082dccc                sbrelease
                0x0082dd14                sbappend
                0x0082ddbc                sbappendrecord
                0x0082de9c                sbappendaddr
                0x0082e0a4                sbcompress
                0x0082e28c                sbflush
                0x0082e31c                sbdrop
                0x0082e4ec                sbdropend
                0x0082e5fc                sbdroprecord
 .text          0x0082e690      0x914 ../rtc_socket_bsp/\libucosii_bsp.a(soselect.o)
                0x0082e690                t_select
                0x0082e8b0                sock_selscan
                0x0082ea08                sock_select
                0x0082ec1c                in_pcbnotify
                0x0082ece8                tcp_notify
                0x0082ed50                ifd_clr
                0x0082ee40                ifd_set
                0x0082eeb4                ifd_isset
                0x0082ef34                ifd_get
 .text          0x0082efa4     0x3020 ../rtc_socket_bsp/\libucosii_bsp.a(tcp_in.o)
                0x0082efa4                tcp_reass
                0x0082f3ac                tcp_input
                0x00831900                tcp_dooptions
                0x00831a90                tcp_pulloutofband
                0x00831bbc                tcp_xmit_timer
                0x00831e60                ip4_tcpmss
                0x00831ea8                tcp_mss
 .text          0x00831fc4     0x1360 ../rtc_socket_bsp/\libucosii_bsp.a(tcp_out.o)
                0x00831fc4                tcp_output
                0x00833140                tcp_setpersist
 .text          0x00833324      0x9e8 ../rtc_socket_bsp/\libucosii_bsp.a(tcp_subr.o)
                0x00833324                tcp_init
                0x0083337c                tcp_template
                0x00833494                tcp_respond
                0x0083391c                tcp_newtcpcb
                0x00833a34                tcp_drop
                0x00833ae0                tcp_close
                0x00833bc8                tcp_quench
                0x00833c14                tcp_putseq
                0x00833c94                tcp_getseq
 .text          0x00833d0c      0x798 ../rtc_socket_bsp/\libucosii_bsp.a(tcp_timr.o)
                0x00833d0c                tcp_slowtimo
                0x00833fac                tcp_canceltimers
                0x00834008                tcp_timers
 .text          0x008344a4      0x9ec ../rtc_socket_bsp/\libucosii_bsp.a(tcp_usr.o)
                0x008344a4                tcp_usrreq
                0x00834ba8                tcp_attach
                0x00834cdc                tcp_disconnect
                0x00834db0                tcp_usrclosed
 .text          0x00834e90       0x4c ../rtc_socket_bsp/\libucosii_bsp.a(tcpport.o)
                0x00834e90                tcpinit
 .text          0x00834edc      0xd20 ../rtc_socket_bsp/\libucosii_bsp.a(udpsock.o)
                0x00834edc                udp_lookup
                0x00834f4c                udp_soinput
                0x00835104                udp_usrreq
                0x00835388                udp4_sockbind
                0x008356c4                udp4_socksend
                0x00835aa0                udp4_sockaddr
 .text          0x00835bfc      0x154 ../rtc_socket_bsp/\libucosii_bsp.a(alt_alarm_start.o)
                0x00835bfc                alt_alarm_start
 .text          0x00835d50      0x14c ../rtc_socket_bsp/\libucosii_bsp.a(alt_busy_sleep.o)
                0x00835d50                alt_busy_sleep
 .text          0x00835e9c      0x15c ../rtc_socket_bsp/\libucosii_bsp.a(alt_close.o)
                0x00835e9c                alt_close
 .text          0x00835ff8       0x78 ../rtc_socket_bsp/\libucosii_bsp.a(alt_dcache_flush.o)
                0x00835ff8                alt_dcache_flush
 .text          0x00836070       0x2c ../rtc_socket_bsp/\libucosii_bsp.a(alt_dev.o)
 .text          0x0083609c      0x114 ../rtc_socket_bsp/\libucosii_bsp.a(alt_dev_llist_insert.o)
                0x0083609c                alt_dev_llist_insert
 .text          0x008361b0       0x64 ../rtc_socket_bsp/\libucosii_bsp.a(alt_do_ctors.o)
                0x008361b0                _do_ctors
 .text          0x00836214       0x64 ../rtc_socket_bsp/\libucosii_bsp.a(alt_do_dtors.o)
                0x00836214                _do_dtors
 .text          0x00836278        0x0 ../rtc_socket_bsp/\libucosii_bsp.a(alt_errno.o)
 .text          0x00836278       0x94 ../rtc_socket_bsp/\libucosii_bsp.a(alt_find_dev.o)
                0x00836278                alt_find_dev
 .text          0x0083630c      0x1d4 ../rtc_socket_bsp/\libucosii_bsp.a(alt_iic.o)
                0x0083630c                alt_ic_isr_register
                0x0083635c                alt_ic_irq_enable
                0x008363f8                alt_ic_irq_disable
                0x00836498                alt_ic_irq_enabled
 .text          0x008364e0       0xf8 ../rtc_socket_bsp/\libucosii_bsp.a(alt_iic_isr_register.o)
                0x008364e0                alt_iic_isr_register
 .text          0x008365d8      0x13c ../rtc_socket_bsp/\libucosii_bsp.a(alt_io_redirect.o)
                0x0083669c                alt_io_redirect
 .text          0x00836714        0x0 ../rtc_socket_bsp/\libucosii_bsp.a(alt_irq_entry.o)
 .text          0x00836714        0x0 ../rtc_socket_bsp/\libucosii_bsp.a(alt_irq_handler.o)
 .text          0x00836714      0x2c4 ../rtc_socket_bsp/\libucosii_bsp.a(alt_open.o)
                0x008367f0                open
 .text          0x008369d8      0x180 ../rtc_socket_bsp/\libucosii_bsp.a(alt_read.o)
                0x008369d8                alt_read
 .text          0x00836b58       0x60 ../rtc_socket_bsp/\libucosii_bsp.a(alt_release_fd.o)
                0x00836b58                alt_release_fd
 .text          0x00836bb8       0x38 ../rtc_socket_bsp/\libucosii_bsp.a(alt_remap_cached.o)
                0x00836bb8                alt_remap_cached
 .text          0x00836bf0       0x40 ../rtc_socket_bsp/\libucosii_bsp.a(alt_remap_uncached.o)
                0x00836bf0                alt_remap_uncached
 .text          0x00836c30      0x180 ../rtc_socket_bsp/\libucosii_bsp.a(alt_write.o)
                0x00836c30                alt_write
 .text          0x00836db0       0x20 ../rtc_socket_bsp/\libucosii_bsp.a(altera_nios2_qsys_irq.o)
                0x00836db0                altera_nios2_qsys_irq_init
 .text          0x00836dd0       0xd0 ../rtc_socket_bsp/\libucosii_bsp.a(os_cpu_a.o)
                0x00836dd0                OSCtxSw
                0x00836dd0                OSIntCtxSw
                0x00836e5c                OSStartHighRdy
                0x00836e7c                OSStartTsk
 .text          0x00836ea0      0x424 ../rtc_socket_bsp/\libucosii_bsp.a(os_cpu_c.o)
                0x00836ea0                OSTaskStkInit
                0x008371b0                OSTaskCreateHook
                0x008371d0                OSTaskDelHook
                0x008371f0                OSTaskSwHook
                0x0083720c                OSTaskStatHook
                0x00837228                OSTimeTickHook
                0x00837250                OSInitHookBegin
                0x0083726c                OSInitHookEnd
                0x00837288                OSTaskIdleHook
                0x008372a4                OSTCBInitHook
 .text          0x008372c4      0x460 ../rtc_socket_bsp/\libucosii_bsp.a(altera_avalon_cfi_flash_amd.o)
                0x008372c4                alt_program_amd
                0x0083732c                alt_erase_block_amd
 .text          0x00837724      0x460 ../rtc_socket_bsp/\libucosii_bsp.a(altera_avalon_cfi_flash_intel.o)
                0x00837724                alt_program_intel
                0x008377a8                alt_erase_block_intel
 .text          0x00837b84      0x238 ../rtc_socket_bsp/\libucosii_bsp.a(altera_avalon_spi.o)
                0x00837b84                alt_avalon_spi_command
 .text          0x00837dbc      0x444 ../rtc_socket_bsp/\libucosii_bsp.a(allports.o)
                0x00837dbc                netmain_init
                0x00837eb8                icmp_port_du
                0x00837f40                station_state
                0x008380a4                sysuptime
                0x00838138                packet_check
                0x00838184                mcastlist
                0x008381a8                prep_modules
 .text          0x00838200      0x580 ../rtc_socket_bsp/\libucosii_bsp.a(timeouts.o)
                0x00838200                inet_timer
                0x00838500                in_timerset
                0x008386d8                in_timerkill
 .text          0x00838780       0xa4 ../rtc_socket_bsp/\libucosii_bsp.a(tk_misc.o)
                0x00838780                create_apptasks
                0x008387a4                task_stats
 .text          0x00838824       0xb0 ../rtc_socket_bsp/\libucosii_bsp.a(alt_iniche_fcntl.o)
                0x00838824                fcntl
 .text          0x008388d4     0x15b0 ../rtc_socket_bsp/\libucosii_bsp.a(et_arp.o)
                0x008388d4                etainit
                0x00838928                et_send
                0x00838aa4                arp_free_pending
                0x00838b2c                arp_send_pending
                0x00838ba0                send_arp
                0x00839038                find_oldest_arp
                0x00839234                make_arp_entry
                0x00839348                arpReply
                0x008395dc                arprcv
                0x0083983c                send_via_arp
                0x00839a0c                cb_arpent_tmo
                0x00839bb8                grat_arp
 .text          0x00839e84      0x298 ../rtc_socket_bsp/\libucosii_bsp.a(iface.o)
                0x00839e84                if_getbynum
                0x00839f08                isbcast
                0x00839fe8                reg_type
                0x0083a084                if_killsocks
 .text          0x0083a11c     0x22a4 ../rtc_socket_bsp/\libucosii_bsp.a(ip.o)
                0x0083a11c                ip_init
                0x0083a218                ip_bldhead
                0x0083a3bc                ip_write_internal
                0x0083ab3c                ip_write
                0x0083ad84                ip_write2
                0x0083b134                ip_raw_write
                0x0083b20c                ip_fragment_lc
                0x0083b694                ip_fragment
                0x0083bcb8                ip_mymach
                0x0083bd64                ip_dump
                0x0083c01c                iproute
                0x0083c288                ip_copypkt
 .text          0x0083c3c0     0x1e08 ../rtc_socket_bsp/\libucosii_bsp.a(ip_reasm.o)
                0x0083c3c0                ip_reasm_match_frag_with_ire
                0x0083c490                ip_reasm_determine_type_of_frag
                0x0083c57c                ip_reasm_check_mem_useage
                0x0083c614                ip_reasm_incr_mem_useage
                0x0083c6bc                ip_reasm_decr_mem_useage
                0x0083c75c                ip_reasm_process_first_fragment
                0x0083ca3c                ip_reassm
                0x0083cadc                ip_reasm_compute_overlap
                0x0083d06c                ip_reasm_process_subsequent_fragments
                0x0083d600                ip_reasm_find_ire
                0x0083d664                ip_reasm_copy_queued_fragments_into_reassy_buffer
                0x0083d9c0                ip_reasm_process_timer_tick
                0x0083dae0                ip_reasm_delete_ire
                0x0083dca8                ip_reasm_mark_compact_rfq
                0x0083ddf0                ipr_stats
                0x0083e174                ip_reasm_send_icmp_timex
 .text          0x0083e1c8      0xe3c ../rtc_socket_bsp/\libucosii_bsp.a(ipdemux.o)
                0x0083e1c8                ip_rcv
                0x0083e5c8                ip_rcv_phase2
                0x0083ebd4                ip_demux
 .text          0x0083f004      0x2f0 ../rtc_socket_bsp/\libucosii_bsp.a(ipmc.o)
                0x0083f004                in_addmulti
                0x0083f16c                in_delmulti
                0x0083f284                lookup_mcast
 .text          0x0083f2f4       0xe4 ../rtc_socket_bsp/\libucosii_bsp.a(ipport.o)
                0x0083f2f4                prep_ifaces
                0x0083f388                netexit
                0x0083f3b0                evtmap_setup
 .text          0x0083f3d8      0x550 ../rtc_socket_bsp/\libucosii_bsp.a(ipraw.o)
                0x0083f3d8                ip_raw_open
                0x0083f4c8                ip_raw_close
                0x0083f588                ip_raw_input
                0x0083f7c0                ip_raw_alloc
                0x0083f88c                ip_raw_free
                0x0083f8cc                ip_raw_maxalloc
 .text          0x0083f928      0x6f0 ../rtc_socket_bsp/\libucosii_bsp.a(iproute.o)
                0x0083f928                rt_lookup
                0x0083faac                add_route
                0x0083fed4                del_route
 .text          0x00840018      0xe3c ../rtc_socket_bsp/\libucosii_bsp.a(udp.o)
                0x00840018                udpdemux
                0x00840870                udp_send
                0x00840b28                udpswap
                0x00840c58                udp_socket
                0x00840d28                udp_alloc
                0x00840de8                udp_maxalloc
                0x00840e14                udp_free
 .text          0x00840e54      0x2e8 ../rtc_socket_bsp/\libucosii_bsp.a(igmp.o)
                0x00840e54                igmpv1_input
 .text          0x0084113c      0x7c0 ../rtc_socket_bsp/\libucosii_bsp.a(igmp2.o)
                0x0084113c                igmpv2_input
                0x0084129c                igmpv2_process_report
                0x008413e8                igmpv2_process_query
                0x00841634                igmpv2_chk_set_timer
                0x0084178c                igmpv2_chk4_rtr_alert_opt
 .text          0x008418fc      0x8fc ../rtc_socket_bsp/\libucosii_bsp.a(ipopt.o)
                0x008418fc                IPADDR_TO_NETP
                0x00841a44                ip_setmoptions
                0x00842034                ip_getmoptions
                0x00842174                ip_freemoptions
 .text          0x008421f8      0x6e8 ../rtc_socket_bsp/\libucosii_bsp.a(u_mctest.o)
                0x008421f8                u_mctest_init
                0x00842228                u_mctest_run
 .text          0x008428e0      0x3d0 ../rtc_socket_bsp/\libucosii_bsp.a(dhcsetup.o)
                0x008428e0                dhc_setup
                0x00842bac                dhc_main_ipset
 .text          0x00842cb0      0x40c ../rtc_socket_bsp/\libucosii_bsp.a(memdev.o)
                0x00842cb0                init_memdev
                0x00842d28                md_fopen
                0x00842d50                md_fclose
                0x00842d70                md_fread
                0x00842ef0                md_fwrite
                0x00842f70                md_fseek
                0x00842f9c                md_ftell
                0x00842fc0                md_fgetc
                0x00843098                md_unlink
 .text          0x008430bc      0x1cc ../rtc_socket_bsp/\libucosii_bsp.a(tcpcksum.o)
                0x008430bc                tcp_cksum
 .text          0x00843288      0x900 ../rtc_socket_bsp/\libucosii_bsp.a(in_pcb.o)
                0x00843288                in_pcballoc
                0x0084331c                in_pcbdetach
                0x00843370                in_pcbbind
                0x008435c4                in_pcbconnect
                0x008437d4                in_pcbdisconnect
                0x00843834                in_setsockaddr
                0x008438b0                in_setpeeraddr
                0x0084392c                in_pcblookup
 .text          0x00843b88     0x1a74 ../rtc_socket_bsp/\libucosii_bsp.a(vfsfiles.o)
                0x00843b88                set_vfopen_error
                0x00843bb0                get_vfopen_error
                0x00843bd0                vf_alloc_and_link_vop
                0x00843c4c                vf_alloc_buffer
                0x00843d24                vf_free_buffer
                0x00843d74                vfopen_locked
                0x008440dc                vfopen
                0x0084412c                vfclose_locked
                0x008442d4                vfclose
                0x00844314                vfflush
                0x0084435c                vfgets
                0x00844440                vfeof
                0x00844498                vunlink_flag_open_files
                0x008444f4                vunlink
                0x00844714                vfread
                0x008448c0                vfwrite_locked
                0x00844ca8                vfwrite
                0x00844d08                vfseek
                0x00844e84                vftell
                0x00844fb8                vgetc_locked
                0x008450d8                vgetc
                0x00845120                vfslookup_locked
                0x00845258                vfslookup
                0x008452a0                strippath
                0x00845488                isvfile_locked
                0x008454ec                isvfile
                0x00845534                vferror
                0x008455a0                vclearerr
 .text          0x008455fc       0x24 ../rtc_socket_bsp/\libucosii_bsp.a(vfsport.o)
                0x008455fc                prep_vfs
 .text          0x00845620        0x0 ../rtc_socket_bsp/\libucosii_bsp.a(alt_exception_entry.o)
 .text          0x00845620      0x1b4 ../rtc_socket_bsp/\libucosii_bsp.a(alt_fcntl.o)
                0x00845620                alt_fcntl
 .text          0x008457d4      0x120 ../rtc_socket_bsp/\libucosii_bsp.a(alt_find_file.o)
                0x008457d4                alt_find_file
 .text          0x008458f4       0xf4 ../rtc_socket_bsp/\libucosii_bsp.a(alt_get_fd.o)
                0x008458f4                alt_get_fd
 .text          0x008459e8     0x130c ../rtc_socket_bsp/\libucosii_bsp.a(icmp.o)
                0x008459e8                icmprcv
                0x0084661c                icmp_destun
                0x0084696c                icmp_timex
                0x00846ca0                icmp_du
 .text          0x00846cf4       0x14 c:/altera/13.0sp1/nios2eds/bin/gnu/h-i686-mingw32/bin/../lib/gcc/nios2-elf/4.1.2/../../../../nios2-elf/lib\libc.a(lib_a-atexit.o)
                0x00846cf4                atexit
 .text          0x00846d08       0x1c c:/altera/13.0sp1/nios2eds/bin/gnu/h-i686-mingw32/bin/../lib/gcc/nios2-elf/4.1.2/../../../../nios2-elf/lib\libc.a(lib_a-calloc.o)
                0x00846d08                calloc
 .text          0x00846d24       0x28 c:/altera/13.0sp1/nios2eds/bin/gnu/h-i686-mingw32/bin/../lib/gcc/nios2-elf/4.1.2/../../../../nios2-elf/lib\libc.a(lib_a-malloc.o)
                0x00846d24                free
                0x00846d38                malloc
 .text          0x00846d4c       0x74 c:/altera/13.0sp1/nios2eds/bin/gnu/h-i686-mingw32/bin/../lib/gcc/nios2-elf/4.1.2/../../../../nios2-elf/lib\libc.a(lib_a-memcmp.o)
                0x00846d4c                memcmp
 .text          0x00846dc0       0x8c c:/altera/13.0sp1/nios2eds/bin/gnu/h-i686-mingw32/bin/../lib/gcc/nios2-elf/4.1.2/../../../../nios2-elf/lib\libc.a(lib_a-strcpy.o)
                0x00846dc0                strcpy
 .text          0x00846e4c       0xf0 c:/altera/13.0sp1/nios2eds/bin/gnu/h-i686-mingw32/bin/../lib/gcc/nios2-elf/4.1.2/../../../../nios2-elf/lib\libc.a(lib_a-strncmp.o)
                0x00846e4c                strncmp
 .text          0x00846f3c       0xbc c:/altera/13.0sp1/nios2eds/bin/gnu/h-i686-mingw32/bin/../lib/gcc/nios2-elf/4.1.2/../../../../nios2-elf/lib\libc.a(lib_a-strncpy.o)
                0x00846f3c                strncpy
 .text          0x00846ff8       0x34 c:/altera/13.0sp1/nios2eds/bin/gnu/h-i686-mingw32/bin/../lib/gcc/nios2-elf/4.1.2/../../../../nios2-elf/lib\libc.a(lib_a-vprintf.o)
                0x00846ff8                _vprintf_r
                0x0084700c                vprintf
 .text          0x0084702c       0x74 c:/altera/13.0sp1/nios2eds/bin/gnu/h-i686-mingw32/bin/../lib/gcc/nios2-elf/4.1.2/../../../../nios2-elf/lib\libc.a(lib_a-vsprintf.o)
                0x0084702c                _vsprintf_r
                0x0084707c                vsprintf
 .text          0x008470a0      0x134 c:/altera/13.0sp1/nios2eds/bin/gnu/h-i686-mingw32/bin/../lib/gcc/nios2-elf/4.1.2/../../../../nios2-elf/lib\libc.a(lib_a-__atexit.o)
                0x008470a0                __register_exitproc
 *(.gnu.warning.*)
 *(.fini)
                0x008471d4                PROVIDE (__etext, ABSOLUTE (.))
                0x008471d4                PROVIDE (_etext, ABSOLUTE (.))
                0x008471d4                PROVIDE (etext, ABSOLUTE (.))
 *(.eh_frame_hdr)
                0x008471d4                . = ALIGN (0x4)
                0x008471d4                PROVIDE (__preinit_array_start, ABSOLUTE (.))
 *(.preinit_array)
                0x008471d4                PROVIDE (__preinit_array_end, ABSOLUTE (.))
                0x008471d4                PROVIDE (__init_array_start, ABSOLUTE (.))
 *(.init_array)
                0x008471d4                PROVIDE (__init_array_end, ABSOLUTE (.))
                0x008471d4                PROVIDE (__fini_array_start, ABSOLUTE (.))
 *(.fini_array)
                0x008471d4                PROVIDE (__fini_array_end, ABSOLUTE (.))
 *(.eh_frame)
 *(.gcc_except_table)
 *(.dynamic)
                0x008471d4                PROVIDE (__CTOR_LIST__, ABSOLUTE (.))
 *(.ctors)
 *(SORT(.ctors.*))
 .ctors.65535   0x008471d4        0x4 c:/altera/13.0sp1/nios2eds/bin/gnu/h-i686-mingw32/bin/../lib/gcc/nios2-elf/4.1.2/../../../../nios2-elf/lib\libc.a(lib_a-__call_atexit.o)
                0x008471d8                PROVIDE (__CTOR_END__, ABSOLUTE (.))
                0x008471d8                PROVIDE (__DTOR_LIST__, ABSOLUTE (.))
 *(.dtors)
 *(SORT(.dtors.*))
                0x008471d8                PROVIDE (__DTOR_END__, ABSOLUTE (.))
 *(.jcr)
                0x008471d8                . = ALIGN (0x4)

.rodata         0x008471d8     0x4228
                0x008471d8                PROVIDE (__ram_rodata_start, ABSOLUTE (.))
                0x008471d8                . = ALIGN (0x4)
 *(.rodata .rodata.* .gnu.linkonce.r.*)
 .rodata        0x008471d8       0x60 obj/default/LCD.o
 .rodata        0x00847238       0xa8 obj/default/SSS_DE2_115.o
 .rodata        0x008472e0      0xba4 obj/default/alt_error_handler.o
 .rodata        0x00847e84       0x64 obj/default/dm9000a.o
 .rodata        0x00847ee8      0x118 obj/default/iniche_init.o
 .rodata        0x00848000      0x234 obj/default/network_utilities.o
 .rodata        0x00848234      0x2d4 obj/default/simple_socket_server.o
 .rodata        0x00848508       0x14 c:/altera/13.0sp1/nios2eds/bin/gnu/h-i686-mingw32/bin/../lib/gcc/nios2-elf/4.1.2\libgcc.a(_thenan_df.o)
                0x00848508                __thenan_df
 .rodata        0x0084851c      0x100 c:/altera/13.0sp1/nios2eds/bin/gnu/h-i686-mingw32/bin/../lib/gcc/nios2-elf/4.1.2\libgcc.a(_clz.o)
                0x0084851c                __clz_tab
 .rodata        0x0084861c      0x281 c:/altera/13.0sp1/nios2eds/bin/gnu/h-i686-mingw32/bin/../lib/gcc/nios2-elf/4.1.2/../../../../nios2-elf/lib\libc.a(lib_a-ctype_.o)
                0x0084861c                _ctype_
 *fill*         0x0084889d        0x3 00
 .rodata.str1.4
                0x008488a0        0x2 c:/altera/13.0sp1/nios2eds/bin/gnu/h-i686-mingw32/bin/../lib/gcc/nios2-elf/4.1.2/../../../../nios2-elf/lib\libc.a(lib_a-impure.o)
                                  0x4 (size before relaxing)
 *fill*         0x008488a2        0x2 00
 .rodata.str1.4
                0x008488a4        0x3 c:/altera/13.0sp1/nios2eds/bin/gnu/h-i686-mingw32/bin/../lib/gcc/nios2-elf/4.1.2/../../../../nios2-elf/lib\libc.a(lib_a-perror.o)
                                  0x4 (size before relaxing)
 *fill*         0x008488a7        0x1 00
 .rodata.str1.4
                0x008488a8        0x2 c:/altera/13.0sp1/nios2eds/bin/gnu/h-i686-mingw32/bin/../lib/gcc/nios2-elf/4.1.2/../../../../nios2-elf/lib\libc.a(lib_a-puts.o)
                                  0x4 (size before relaxing)
 *fill*         0x008488aa        0x2 00
 .rodata.str1.4
                0x008488ac      0x7a2 c:/altera/13.0sp1/nios2eds/bin/gnu/h-i686-mingw32/bin/../lib/gcc/nios2-elf/4.1.2/../../../../nios2-elf/lib\libc.a(lib_a-strerror.o)
                                0x7a8 (size before relaxing)
 *fill*         0x0084904e        0x2 00
 .rodata.str1.4
                0x00849050       0x5e c:/altera/13.0sp1/nios2eds/bin/gnu/h-i686-mingw32/bin/../lib/gcc/nios2-elf/4.1.2/../../../../nios2-elf/lib\libc.a(lib_a-vfprintf.o)
                                 0x60 (size before relaxing)
 .rodata        0x008490ae       0x20 c:/altera/13.0sp1/nios2eds/bin/gnu/h-i686-mingw32/bin/../lib/gcc/nios2-elf/4.1.2/../../../../nios2-elf/lib\libc.a(lib_a-vfprintf.o)
 *fill*         0x008490ce        0x2 00
 .rodata.str1.4
                0x008490d0       0x10 c:/altera/13.0sp1/nios2eds/bin/gnu/h-i686-mingw32/bin/../lib/gcc/nios2-elf/4.1.2/../../../../nios2-elf/lib\libc.a(lib_a-dtoa.o)
                                 0x14 (size before relaxing)
 .rodata.str1.4
                0x008490e0       0x10 c:/altera/13.0sp1/nios2eds/bin/gnu/h-i686-mingw32/bin/../lib/gcc/nios2-elf/4.1.2/../../../../nios2-elf/lib\libc.a(lib_a-locale.o)
                                 0x18 (size before relaxing)
 .rodata        0x008490f0       0x30 c:/altera/13.0sp1/nios2eds/bin/gnu/h-i686-mingw32/bin/../lib/gcc/nios2-elf/4.1.2/../../../../nios2-elf/lib\libc.a(lib_a-locale.o)
 .rodata        0x00849120      0x124 c:/altera/13.0sp1/nios2eds/bin/gnu/h-i686-mingw32/bin/../lib/gcc/nios2-elf/4.1.2/../../../../nios2-elf/lib\libc.a(lib_a-mprec.o)
                0x00849120                __mprec_tens
                0x008491e8                __mprec_bigtens
                0x00849210                __mprec_tinytens
 .rodata        0x00849244       0x14 ../rtc_socket_bsp/\libucosii_bsp.a(alt_main.o)
 .rodata        0x00849258      0x120 ../rtc_socket_bsp/\libucosii_bsp.a(os_core.o)
                0x00849258                OSUnMapTbl
 .rodata        0x00849378       0x60 ../rtc_socket_bsp/\libucosii_bsp.a(alt_sys_init.o)
 .rodata        0x008493d8       0xd8 ../rtc_socket_bsp/\libucosii_bsp.a(ipnet.o)
 .rodata        0x008494b0       0xec ../rtc_socket_bsp/\libucosii_bsp.a(ipstart.o)
 .rodata        0x0084959c      0x54c ../rtc_socket_bsp/\libucosii_bsp.a(igmp_cmn.o)
 .rodata        0x00849ae8       0xb8 ../rtc_socket_bsp/\libucosii_bsp.a(in_utils.o)
 .rodata        0x00849ba0       0x34 ../rtc_socket_bsp/\libucosii_bsp.a(netmain.o)
 .rodata        0x00849bd4       0x94 ../rtc_socket_bsp/\libucosii_bsp.a(parseip.o)
 .rodata        0x00849c68      0x1a8 ../rtc_socket_bsp/\libucosii_bsp.a(tk_crnos.o)
 .rodata        0x00849e10        0x8 ../rtc_socket_bsp/\libucosii_bsp.a(dhcpclnt.o)
 .rodata        0x00849e18      0x118 ../rtc_socket_bsp/\libucosii_bsp.a(pktalloc.o)
 .rodata        0x00849f30       0x84 ../rtc_socket_bsp/\libucosii_bsp.a(udp_open.o)
 .rodata        0x00849fb4       0x2c ../rtc_socket_bsp/\libucosii_bsp.a(brdutils.o)
 .rodata        0x00849fe0      0x26c ../rtc_socket_bsp/\libucosii_bsp.a(osportco.o)
 .rodata        0x0084a24c       0xa0 ../rtc_socket_bsp/\libucosii_bsp.a(targnios.o)
 .rodata        0x0084a2ec       0x90 ../rtc_socket_bsp/\libucosii_bsp.a(nptcp.o)
 .rodata        0x0084a37c        0x8 ../rtc_socket_bsp/\libucosii_bsp.a(sockcall.o)
 .rodata        0x0084a384       0x50 ../rtc_socket_bsp/\libucosii_bsp.a(socket.o)
 .rodata        0x0084a3d4       0x40 ../rtc_socket_bsp/\libucosii_bsp.a(socket2.o)
 .rodata        0x0084a414       0x20 ../rtc_socket_bsp/\libucosii_bsp.a(tcp_in.o)
 .rodata        0x0084a434       0x40 ../rtc_socket_bsp/\libucosii_bsp.a(tcp_out.o)
 .rodata        0x0084a474       0x24 ../rtc_socket_bsp/\libucosii_bsp.a(tcp_subr.o)
 .rodata        0x0084a498       0x2c ../rtc_socket_bsp/\libucosii_bsp.a(tcp_usr.o)
 .rodata        0x0084a4c4        0xc ../rtc_socket_bsp/\libucosii_bsp.a(alt_dev.o)
 .rodata        0x0084a4d0        0x4 ../rtc_socket_bsp/\libucosii_bsp.a(os_cpu_c.o)
 .rodata        0x0084a4d4      0x1d4 ../rtc_socket_bsp/\libucosii_bsp.a(allports.o)
 .rodata        0x0084a6a8       0x34 ../rtc_socket_bsp/\libucosii_bsp.a(tk_misc.o)
 .rodata        0x0084a6dc       0x44 ../rtc_socket_bsp/\libucosii_bsp.a(et_arp.o)
 .rodata        0x0084a720      0x1dc ../rtc_socket_bsp/\libucosii_bsp.a(ip.o)
 .rodata        0x0084a8fc      0x158 ../rtc_socket_bsp/\libucosii_bsp.a(ip_reasm.o)
 .rodata        0x0084aa54      0x120 ../rtc_socket_bsp/\libucosii_bsp.a(ipdemux.o)
 .rodata        0x0084ab74       0x34 ../rtc_socket_bsp/\libucosii_bsp.a(ipport.o)
 .rodata        0x0084aba8       0x24 ../rtc_socket_bsp/\libucosii_bsp.a(ipraw.o)
 .rodata        0x0084abcc       0x38 ../rtc_socket_bsp/\libucosii_bsp.a(iproute.o)
 .rodata        0x0084ac04       0xe8 ../rtc_socket_bsp/\libucosii_bsp.a(udp.o)
 .rodata        0x0084acec      0x2d0 ../rtc_socket_bsp/\libucosii_bsp.a(u_mctest.o)
 .rodata        0x0084afbc       0xf8 ../rtc_socket_bsp/\libucosii_bsp.a(dhcsetup.o)
 .rodata        0x0084b0b4       0x34 ../rtc_socket_bsp/\libucosii_bsp.a(vfsfiles.o)
 .rodata        0x0084b0e8      0x318 ../rtc_socket_bsp/\libucosii_bsp.a(icmp.o)
 *(.rodata1)
                0x0084b400                . = ALIGN (0x4)
                0x0084b400                PROVIDE (__ram_rodata_end, ABSOLUTE (.))
                0x008471d8                PROVIDE (__flash_rodata_start, LOADADDR (.rodata))

.rwdata         0x0084b400     0x213c
                0x0084b400                PROVIDE (__ram_rwdata_start, ABSOLUTE (.))
                0x0084b400                . = ALIGN (0x4)
 *(.got.plt)
 *(.got)
 *(.data1)
 *(.data .data.* .gnu.linkonce.d.*)
 .data          0x0084b400        0x0 ../rtc_socket_bsp//obj/HAL/src/crt0.o
 .data          0x0084b400        0x0 obj/default/LCD.o
 .data          0x0084b400        0x0 obj/default/SSS_DE2_115.o
 .data          0x0084b400        0x0 obj/default/alt_error_handler.o
 .data          0x0084b400        0x0 obj/default/dm9000a.o
 .data          0x0084b400       0x18 obj/default/iniche_init.o
                0x0084b400                ssstask
 .data          0x0084b418        0x0 obj/default/led.o
 .data          0x0084b418        0x0 obj/default/network_utilities.o
 .data          0x0084b418        0x0 obj/default/simple_socket_server.o
 .data          0x0084b418        0x0 obj/default/tse_my_system.o
 .data          0x0084b418        0x0 c:/altera/13.0sp1/nios2eds/bin/gnu/h-i686-mingw32/bin/../lib/gcc/nios2-elf/4.1.2\libgcc.a(_fixunsdfsi.o)
 .data          0x0084b418        0x0 c:/altera/13.0sp1/nios2eds/bin/gnu/h-i686-mingw32/bin/../lib/gcc/nios2-elf/4.1.2\libgcc.a(_addsub_df.o)
 .data          0x0084b418        0x0 c:/altera/13.0sp1/nios2eds/bin/gnu/h-i686-mingw32/bin/../lib/gcc/nios2-elf/4.1.2\libgcc.a(_mul_df.o)
 .data          0x0084b418        0x0 c:/altera/13.0sp1/nios2eds/bin/gnu/h-i686-mingw32/bin/../lib/gcc/nios2-elf/4.1.2\libgcc.a(_ge_df.o)
 .data          0x0084b418        0x0 c:/altera/13.0sp1/nios2eds/bin/gnu/h-i686-mingw32/bin/../lib/gcc/nios2-elf/4.1.2\libgcc.a(_df_to_si.o)
 .data          0x0084b418        0x0 c:/altera/13.0sp1/nios2eds/bin/gnu/h-i686-mingw32/bin/../lib/gcc/nios2-elf/4.1.2\libgcc.a(_thenan_df.o)
 .data          0x0084b418        0x0 c:/altera/13.0sp1/nios2eds/bin/gnu/h-i686-mingw32/bin/../lib/gcc/nios2-elf/4.1.2\libgcc.a(_usi_to_df.o)
 .data          0x0084b418        0x0 c:/altera/13.0sp1/nios2eds/bin/gnu/h-i686-mingw32/bin/../lib/gcc/nios2-elf/4.1.2\libgcc.a(_muldi3.o)
 .data          0x0084b418        0x0 c:/altera/13.0sp1/nios2eds/bin/gnu/h-i686-mingw32/bin/../lib/gcc/nios2-elf/4.1.2\libgcc.a(_clzsi2.o)
 .data          0x0084b418        0x0 c:/altera/13.0sp1/nios2eds/bin/gnu/h-i686-mingw32/bin/../lib/gcc/nios2-elf/4.1.2\libgcc.a(_pack_df.o)
 .data          0x0084b418        0x0 c:/altera/13.0sp1/nios2eds/bin/gnu/h-i686-mingw32/bin/../lib/gcc/nios2-elf/4.1.2\libgcc.a(_unpack_df.o)
 .data          0x0084b418        0x0 c:/altera/13.0sp1/nios2eds/bin/gnu/h-i686-mingw32/bin/../lib/gcc/nios2-elf/4.1.2\libgcc.a(_fpcmp_parts_df.o)
 .data          0x0084b418        0x0 c:/altera/13.0sp1/nios2eds/bin/gnu/h-i686-mingw32/bin/../lib/gcc/nios2-elf/4.1.2\libgcc.a(_clz.o)
 .data          0x0084b418        0x0 c:/altera/13.0sp1/nios2eds/bin/gnu/h-i686-mingw32/bin/../lib/gcc/nios2-elf/4.1.2/../../../../nios2-elf/lib\libc.a(lib_a-atoi.o)
 .data          0x0084b418        0x0 c:/altera/13.0sp1/nios2eds/bin/gnu/h-i686-mingw32/bin/../lib/gcc/nios2-elf/4.1.2/../../../../nios2-elf/lib\libc.a(lib_a-ctype_.o)
 .data          0x0084b418        0x0 c:/altera/13.0sp1/nios2eds/bin/gnu/h-i686-mingw32/bin/../lib/gcc/nios2-elf/4.1.2/../../../../nios2-elf/lib\libc.a(lib_a-errno.o)
 .data          0x0084b418        0x0 c:/altera/13.0sp1/nios2eds/bin/gnu/h-i686-mingw32/bin/../lib/gcc/nios2-elf/4.1.2/../../../../nios2-elf/lib\libc.a(lib_a-exit.o)
 .data          0x0084b418        0x0 c:/altera/13.0sp1/nios2eds/bin/gnu/h-i686-mingw32/bin/../lib/gcc/nios2-elf/4.1.2/../../../../nios2-elf/lib\libc.a(lib_a-fprintf.o)
 .data          0x0084b418        0x0 c:/altera/13.0sp1/nios2eds/bin/gnu/h-i686-mingw32/bin/../lib/gcc/nios2-elf/4.1.2/../../../../nios2-elf/lib\libc.a(lib_a-fwrite.o)
 .data          0x0084b418        0x0 c:/altera/13.0sp1/nios2eds/bin/gnu/h-i686-mingw32/bin/../lib/gcc/nios2-elf/4.1.2/../../../../nios2-elf/lib\libc.a(lib_a-getc.o)
 .data          0x0084b418      0x400 c:/altera/13.0sp1/nios2eds/bin/gnu/h-i686-mingw32/bin/../lib/gcc/nios2-elf/4.1.2/../../../../nios2-elf/lib\libc.a(lib_a-impure.o)
 .data          0x0084b818        0x0 c:/altera/13.0sp1/nios2eds/bin/gnu/h-i686-mingw32/bin/../lib/gcc/nios2-elf/4.1.2/../../../../nios2-elf/lib\libc.a(lib_a-memcpy.o)
 .data          0x0084b818        0x0 c:/altera/13.0sp1/nios2eds/bin/gnu/h-i686-mingw32/bin/../lib/gcc/nios2-elf/4.1.2/../../../../nios2-elf/lib\libc.a(lib_a-memmove.o)
 .data          0x0084b818        0x0 c:/altera/13.0sp1/nios2eds/bin/gnu/h-i686-mingw32/bin/../lib/gcc/nios2-elf/4.1.2/../../../../nios2-elf/lib\libc.a(lib_a-memset.o)
 .data          0x0084b818        0x0 c:/altera/13.0sp1/nios2eds/bin/gnu/h-i686-mingw32/bin/../lib/gcc/nios2-elf/4.1.2/../../../../nios2-elf/lib\libc.a(lib_a-perror.o)
 .data          0x0084b818        0x0 c:/altera/13.0sp1/nios2eds/bin/gnu/h-i686-mingw32/bin/../lib/gcc/nios2-elf/4.1.2/../../../../nios2-elf/lib\libc.a(lib_a-printf.o)
 .data          0x0084b818        0x0 c:/altera/13.0sp1/nios2eds/bin/gnu/h-i686-mingw32/bin/../lib/gcc/nios2-elf/4.1.2/../../../../nios2-elf/lib\libc.a(lib_a-putc.o)
 .data          0x0084b818        0x0 c:/altera/13.0sp1/nios2eds/bin/gnu/h-i686-mingw32/bin/../lib/gcc/nios2-elf/4.1.2/../../../../nios2-elf/lib\libc.a(lib_a-putchar.o)
 .data          0x0084b818        0x0 c:/altera/13.0sp1/nios2eds/bin/gnu/h-i686-mingw32/bin/../lib/gcc/nios2-elf/4.1.2/../../../../nios2-elf/lib\libc.a(lib_a-puts.o)
 .data          0x0084b818        0x0 c:/altera/13.0sp1/nios2eds/bin/gnu/h-i686-mingw32/bin/../lib/gcc/nios2-elf/4.1.2/../../../../nios2-elf/lib\libc.a(lib_a-rand.o)
 .data          0x0084b818        0x0 c:/altera/13.0sp1/nios2eds/bin/gnu/h-i686-mingw32/bin/../lib/gcc/nios2-elf/4.1.2/../../../../nios2-elf/lib\libc.a(lib_a-rget.o)
 .data          0x0084b818        0x0 c:/altera/13.0sp1/nios2eds/bin/gnu/h-i686-mingw32/bin/../lib/gcc/nios2-elf/4.1.2/../../../../nios2-elf/lib\libc.a(lib_a-sprintf.o)
 .data          0x0084b818        0x0 c:/altera/13.0sp1/nios2eds/bin/gnu/h-i686-mingw32/bin/../lib/gcc/nios2-elf/4.1.2/../../../../nios2-elf/lib\libc.a(lib_a-strchr.o)
 .data          0x0084b818        0x0 c:/altera/13.0sp1/nios2eds/bin/gnu/h-i686-mingw32/bin/../lib/gcc/nios2-elf/4.1.2/../../../../nios2-elf/lib\libc.a(lib_a-strcmp.o)
 .data          0x0084b818        0x0 c:/altera/13.0sp1/nios2eds/bin/gnu/h-i686-mingw32/bin/../lib/gcc/nios2-elf/4.1.2/../../../../nios2-elf/lib\libc.a(lib_a-strerror.o)
 .data          0x0084b818        0x0 c:/altera/13.0sp1/nios2eds/bin/gnu/h-i686-mingw32/bin/../lib/gcc/nios2-elf/4.1.2/../../../../nios2-elf/lib\libc.a(lib_a-strlen.o)
 .data          0x0084b818        0x0 c:/altera/13.0sp1/nios2eds/bin/gnu/h-i686-mingw32/bin/../lib/gcc/nios2-elf/4.1.2/../../../../nios2-elf/lib\libc.a(lib_a-strtol.o)
 .data          0x0084b818        0x0 c:/altera/13.0sp1/nios2eds/bin/gnu/h-i686-mingw32/bin/../lib/gcc/nios2-elf/4.1.2/../../../../nios2-elf/lib\libc.a(lib_a-time.o)
 .data          0x0084b818        0x0 c:/altera/13.0sp1/nios2eds/bin/gnu/h-i686-mingw32/bin/../lib/gcc/nios2-elf/4.1.2/../../../../nios2-elf/lib\libc.a(lib_a-u_strerr.o)
 .data          0x0084b818        0x0 c:/altera/13.0sp1/nios2eds/bin/gnu/h-i686-mingw32/bin/../lib/gcc/nios2-elf/4.1.2/../../../../nios2-elf/lib\libc.a(lib_a-vfprintf.o)
 .data          0x0084b818        0x0 c:/altera/13.0sp1/nios2eds/bin/gnu/h-i686-mingw32/bin/../lib/gcc/nios2-elf/4.1.2/../../../../nios2-elf/lib\libc.a(lib_a-wbuf.o)
 .data          0x0084b818        0x0 c:/altera/13.0sp1/nios2eds/bin/gnu/h-i686-mingw32/bin/../lib/gcc/nios2-elf/4.1.2/../../../../nios2-elf/lib\libc.a(lib_a-wsetup.o)
 .data          0x0084b818        0x0 c:/altera/13.0sp1/nios2eds/bin/gnu/h-i686-mingw32/bin/../lib/gcc/nios2-elf/4.1.2/../../../../nios2-elf/lib\libc.a(lib_a-__call_atexit.o)
 .data          0x0084b818        0x0 c:/altera/13.0sp1/nios2eds/bin/gnu/h-i686-mingw32/bin/../lib/gcc/nios2-elf/4.1.2/../../../../nios2-elf/lib\libc.a(lib_a-dtoa.o)
 .data          0x0084b818        0x0 c:/altera/13.0sp1/nios2eds/bin/gnu/h-i686-mingw32/bin/../lib/gcc/nios2-elf/4.1.2/../../../../nios2-elf/lib\libc.a(lib_a-fflush.o)
 .data          0x0084b818        0x0 c:/altera/13.0sp1/nios2eds/bin/gnu/h-i686-mingw32/bin/../lib/gcc/nios2-elf/4.1.2/../../../../nios2-elf/lib\libc.a(lib_a-findfp.o)
 .data          0x0084b818        0x0 c:/altera/13.0sp1/nios2eds/bin/gnu/h-i686-mingw32/bin/../lib/gcc/nios2-elf/4.1.2/../../../../nios2-elf/lib\libc.a(lib_a-fputc.o)
 .data          0x0084b818        0x0 c:/altera/13.0sp1/nios2eds/bin/gnu/h-i686-mingw32/bin/../lib/gcc/nios2-elf/4.1.2/../../../../nios2-elf/lib\libc.a(lib_a-fputs.o)
 .data          0x0084b818        0x0 c:/altera/13.0sp1/nios2eds/bin/gnu/h-i686-mingw32/bin/../lib/gcc/nios2-elf/4.1.2/../../../../nios2-elf/lib\libc.a(lib_a-freer.o)
 .data          0x0084b818        0x0 c:/altera/13.0sp1/nios2eds/bin/gnu/h-i686-mingw32/bin/../lib/gcc/nios2-elf/4.1.2/../../../../nios2-elf/lib\libc.a(lib_a-fvwrite.o)
 .data          0x0084b818        0x0 c:/altera/13.0sp1/nios2eds/bin/gnu/h-i686-mingw32/bin/../lib/gcc/nios2-elf/4.1.2/../../../../nios2-elf/lib\libc.a(lib_a-fwalk.o)
 .data          0x0084b818        0x0 c:/altera/13.0sp1/nios2eds/bin/gnu/h-i686-mingw32/bin/../lib/gcc/nios2-elf/4.1.2/../../../../nios2-elf/lib\libc.a(lib_a-gettimeofdayr.o)
 .data          0x0084b818        0x0 c:/altera/13.0sp1/nios2eds/bin/gnu/h-i686-mingw32/bin/../lib/gcc/nios2-elf/4.1.2/../../../../nios2-elf/lib\libc.a(lib_a-int_errno.o)
 .data          0x0084b818        0xc c:/altera/13.0sp1/nios2eds/bin/gnu/h-i686-mingw32/bin/../lib/gcc/nios2-elf/4.1.2/../../../../nios2-elf/lib\libc.a(lib_a-locale.o)
                0x0084b818                __lc_ctype
 .data          0x0084b824        0x0 c:/altera/13.0sp1/nios2eds/bin/gnu/h-i686-mingw32/bin/../lib/gcc/nios2-elf/4.1.2/../../../../nios2-elf/lib\libc.a(lib_a-makebuf.o)
 .data          0x0084b824      0x408 c:/altera/13.0sp1/nios2eds/bin/gnu/h-i686-mingw32/bin/../lib/gcc/nios2-elf/4.1.2/../../../../nios2-elf/lib\libc.a(lib_a-mallocr.o)
                0x0084b824                __malloc_av_
 .data          0x0084bc2c        0x0 c:/altera/13.0sp1/nios2eds/bin/gnu/h-i686-mingw32/bin/../lib/gcc/nios2-elf/4.1.2/../../../../nios2-elf/lib\libc.a(lib_a-memchr.o)
 .data          0x0084bc2c        0x0 c:/altera/13.0sp1/nios2eds/bin/gnu/h-i686-mingw32/bin/../lib/gcc/nios2-elf/4.1.2/../../../../nios2-elf/lib\libc.a(lib_a-mprec.o)
 .data          0x0084bc2c        0x0 c:/altera/13.0sp1/nios2eds/bin/gnu/h-i686-mingw32/bin/../lib/gcc/nios2-elf/4.1.2/../../../../nios2-elf/lib\libc.a(lib_a-reallocr.o)
 .data          0x0084bc2c        0x0 c:/altera/13.0sp1/nios2eds/bin/gnu/h-i686-mingw32/bin/../lib/gcc/nios2-elf/4.1.2/../../../../nios2-elf/lib\libc.a(lib_a-refill.o)
 .data          0x0084bc2c        0x0 c:/altera/13.0sp1/nios2eds/bin/gnu/h-i686-mingw32/bin/../lib/gcc/nios2-elf/4.1.2/../../../../nios2-elf/lib\libc.a(lib_a-s_isinfd.o)
 .data          0x0084bc2c        0x0 c:/altera/13.0sp1/nios2eds/bin/gnu/h-i686-mingw32/bin/../lib/gcc/nios2-elf/4.1.2/../../../../nios2-elf/lib\libc.a(lib_a-s_isnand.o)
 .data          0x0084bc2c        0x0 c:/altera/13.0sp1/nios2eds/bin/gnu/h-i686-mingw32/bin/../lib/gcc/nios2-elf/4.1.2/../../../../nios2-elf/lib\libc.a(lib_a-sbrkr.o)
 .data          0x0084bc2c        0x0 c:/altera/13.0sp1/nios2eds/bin/gnu/h-i686-mingw32/bin/../lib/gcc/nios2-elf/4.1.2/../../../../nios2-elf/lib\libc.a(lib_a-stdio.o)
 .data          0x0084bc2c        0x0 c:/altera/13.0sp1/nios2eds/bin/gnu/h-i686-mingw32/bin/../lib/gcc/nios2-elf/4.1.2/../../../../nios2-elf/lib\libc.a(lib_a-writer.o)
 .data          0x0084bc2c        0x0 c:/altera/13.0sp1/nios2eds/bin/gnu/h-i686-mingw32/bin/../lib/gcc/nios2-elf/4.1.2/../../../../nios2-elf/lib\libc.a(lib_a-callocr.o)
 .data          0x0084bc2c        0x0 c:/altera/13.0sp1/nios2eds/bin/gnu/h-i686-mingw32/bin/../lib/gcc/nios2-elf/4.1.2/../../../../nios2-elf/lib\libc.a(lib_a-closer.o)
 .data          0x0084bc2c        0x0 c:/altera/13.0sp1/nios2eds/bin/gnu/h-i686-mingw32/bin/../lib/gcc/nios2-elf/4.1.2/../../../../nios2-elf/lib\libc.a(lib_a-fclose.o)
 .data          0x0084bc2c        0x0 c:/altera/13.0sp1/nios2eds/bin/gnu/h-i686-mingw32/bin/../lib/gcc/nios2-elf/4.1.2/../../../../nios2-elf/lib\libc.a(lib_a-fstatr.o)
 .data          0x0084bc2c        0x0 c:/altera/13.0sp1/nios2eds/bin/gnu/h-i686-mingw32/bin/../lib/gcc/nios2-elf/4.1.2/../../../../nios2-elf/lib\libc.a(lib_a-isattyr.o)
 .data          0x0084bc2c        0x0 c:/altera/13.0sp1/nios2eds/bin/gnu/h-i686-mingw32/bin/../lib/gcc/nios2-elf/4.1.2/../../../../nios2-elf/lib\libc.a(lib_a-lseekr.o)
 .data          0x0084bc2c        0x0 c:/altera/13.0sp1/nios2eds/bin/gnu/h-i686-mingw32/bin/../lib/gcc/nios2-elf/4.1.2/../../../../nios2-elf/lib\libc.a(lib_a-readr.o)
 .data          0x0084bc2c        0x0 c:/altera/13.0sp1/nios2eds/bin/gnu/h-i686-mingw32/bin/../lib/gcc/nios2-elf/4.1.2\libgcc.a(_udivdi3.o)
 .data          0x0084bc2c        0x0 c:/altera/13.0sp1/nios2eds/bin/gnu/h-i686-mingw32/bin/../lib/gcc/nios2-elf/4.1.2\libgcc.a(_umoddi3.o)
 .data          0x0084bc2c        0x0 c:/altera/13.0sp1/nios2eds/bin/gnu/h-i686-mingw32/bin/../lib/gcc/nios2-elf/4.1.2\libgcc.a(_div_df.o)
 .data          0x0084bc2c        0x0 c:/altera/13.0sp1/nios2eds/bin/gnu/h-i686-mingw32/bin/../lib/gcc/nios2-elf/4.1.2\libgcc.a(_eq_df.o)
 .data          0x0084bc2c        0x0 c:/altera/13.0sp1/nios2eds/bin/gnu/h-i686-mingw32/bin/../lib/gcc/nios2-elf/4.1.2\libgcc.a(_ne_df.o)
 .data          0x0084bc2c        0x0 c:/altera/13.0sp1/nios2eds/bin/gnu/h-i686-mingw32/bin/../lib/gcc/nios2-elf/4.1.2\libgcc.a(_gt_df.o)
 .data          0x0084bc2c        0x0 c:/altera/13.0sp1/nios2eds/bin/gnu/h-i686-mingw32/bin/../lib/gcc/nios2-elf/4.1.2\libgcc.a(_lt_df.o)
 .data          0x0084bc2c        0x0 c:/altera/13.0sp1/nios2eds/bin/gnu/h-i686-mingw32/bin/../lib/gcc/nios2-elf/4.1.2\libgcc.a(_si_to_df.o)
 .data          0x0084bc2c        0x0 c:/altera/13.0sp1/nios2eds/bin/gnu/h-i686-mingw32/bin/../lib/gcc/nios2-elf/4.1.2\libgcc.a(lib2-divmod.o)
 .data          0x0084bc2c        0x0 ../rtc_socket_bsp/\libucosii_bsp.a(alt_exit.o)
 .data          0x0084bc2c        0x0 ../rtc_socket_bsp/\libucosii_bsp.a(alt_flash_dev.o)
 .data          0x0084bc2c        0x0 ../rtc_socket_bsp/\libucosii_bsp.a(alt_fstat.o)
 .data          0x0084bc2c        0x0 ../rtc_socket_bsp/\libucosii_bsp.a(alt_gettod.o)
 .data          0x0084bc2c        0x0 ../rtc_socket_bsp/\libucosii_bsp.a(alt_irq_register.o)
 .data          0x0084bc2c        0x0 ../rtc_socket_bsp/\libucosii_bsp.a(alt_irq_vars.o)
 .data          0x0084bc2c        0x0 ../rtc_socket_bsp/\libucosii_bsp.a(alt_isatty.o)
 .data          0x0084bc2c        0x0 ../rtc_socket_bsp/\libucosii_bsp.a(alt_lseek.o)
 .data          0x0084bc2c        0x0 ../rtc_socket_bsp/\libucosii_bsp.a(alt_main.o)
 .data          0x0084bc2c        0x0 ../rtc_socket_bsp/\libucosii_bsp.a(alt_sbrk.o)
 .data          0x0084bc2c        0x0 ../rtc_socket_bsp/\libucosii_bsp.a(alt_tick.o)
 .data          0x0084bc2c        0x0 ../rtc_socket_bsp/\libucosii_bsp.a(alt_usleep.o)
 .data          0x0084bc2c        0x0 ../rtc_socket_bsp/\libucosii_bsp.a(alt_env_lock.o)
 .data          0x0084bc2c        0x0 ../rtc_socket_bsp/\libucosii_bsp.a(alt_malloc_lock.o)
 .data          0x0084bc2c        0x0 ../rtc_socket_bsp/\libucosii_bsp.a(os_core.o)
 .data          0x0084bc2c        0x0 ../rtc_socket_bsp/\libucosii_bsp.a(os_dbg.o)
 .data          0x0084bc2c        0x0 ../rtc_socket_bsp/\libucosii_bsp.a(os_flag.o)
 .data          0x0084bc2c        0x0 ../rtc_socket_bsp/\libucosii_bsp.a(os_mem.o)
 .data          0x0084bc2c        0x0 ../rtc_socket_bsp/\libucosii_bsp.a(os_q.o)
 .data          0x0084bc2c        0x0 ../rtc_socket_bsp/\libucosii_bsp.a(os_sem.o)
 .data          0x0084bc2c        0x0 ../rtc_socket_bsp/\libucosii_bsp.a(os_task.o)
 .data          0x0084bc2c        0x0 ../rtc_socket_bsp/\libucosii_bsp.a(os_time.o)
 .data          0x0084bc2c     0x1400 ../rtc_socket_bsp/\libucosii_bsp.a(alt_sys_init.o)
 .data          0x0084d02c        0x0 ../rtc_socket_bsp/\libucosii_bsp.a(altera_avalon_cfi_flash.o)
 .data          0x0084d02c        0x0 ../rtc_socket_bsp/\libucosii_bsp.a(altera_avalon_cfi_flash_table.o)
 .data          0x0084d02c        0x0 ../rtc_socket_bsp/\libucosii_bsp.a(altera_avalon_epcs_flash_controller.o)
 .data          0x0084d02c        0x0 ../rtc_socket_bsp/\libucosii_bsp.a(altera_avalon_jtag_uart_fd.o)
 .data          0x0084d02c        0x0 ../rtc_socket_bsp/\libucosii_bsp.a(altera_avalon_jtag_uart_init.o)
 .data          0x0084d02c        0x0 ../rtc_socket_bsp/\libucosii_bsp.a(altera_avalon_jtag_uart_ioctl.o)
 .data          0x0084d02c        0x0 ../rtc_socket_bsp/\libucosii_bsp.a(altera_avalon_jtag_uart_read.o)
 .data          0x0084d02c        0x0 ../rtc_socket_bsp/\libucosii_bsp.a(altera_avalon_jtag_uart_write.o)
 .data          0x0084d02c        0x0 ../rtc_socket_bsp/\libucosii_bsp.a(altera_avalon_lcd_16207.o)
 .data          0x0084d02c        0x0 ../rtc_socket_bsp/\libucosii_bsp.a(altera_avalon_lcd_16207_fd.o)
 .data          0x0084d02c        0x0 ../rtc_socket_bsp/\libucosii_bsp.a(altera_avalon_timer_sc.o)
 .data          0x0084d02c        0x0 ../rtc_socket_bsp/\libucosii_bsp.a(altera_avalon_uart_fd.o)
 .data          0x0084d02c        0x0 ../rtc_socket_bsp/\libucosii_bsp.a(altera_avalon_uart_init.o)
 .data          0x0084d02c        0x0 ../rtc_socket_bsp/\libucosii_bsp.a(altera_avalon_uart_read.o)
 .data          0x0084d02c        0x0 ../rtc_socket_bsp/\libucosii_bsp.a(altera_avalon_uart_write.o)
 .data          0x0084d02c        0x0 ../rtc_socket_bsp/\libucosii_bsp.a(epcs_commands.o)
 .data          0x0084d02c        0x0 ../rtc_socket_bsp/\libucosii_bsp.a(alt_iniche_close.o)
 .data          0x0084d02c        0x0 ../rtc_socket_bsp/\libucosii_bsp.a(alt_iniche_dev.o)
 .data          0x0084d02c        0x0 ../rtc_socket_bsp/\libucosii_bsp.a(alt_iniche_read.o)
 .data          0x0084d02c        0x0 ../rtc_socket_bsp/\libucosii_bsp.a(alt_iniche_write.o)
 .data          0x0084d02c        0x0 ../rtc_socket_bsp/\libucosii_bsp.a(ipnet.o)
 .data          0x0084d02c        0x0 ../rtc_socket_bsp/\libucosii_bsp.a(ipstart.o)
 .data          0x0084d02c        0x0 ../rtc_socket_bsp/\libucosii_bsp.a(igmp_cmn.o)
 .data          0x0084d02c        0x0 ../rtc_socket_bsp/\libucosii_bsp.a(bsdsock.o)
 .data          0x0084d02c        0x0 ../rtc_socket_bsp/\libucosii_bsp.a(cksum.o)
 .data          0x0084d02c        0x0 ../rtc_socket_bsp/\libucosii_bsp.a(in_utils.o)
 .data          0x0084d02c       0x30 ../rtc_socket_bsp/\libucosii_bsp.a(netmain.o)
                0x0084d02c                nettasks
 .data          0x0084d05c        0x0 ../rtc_socket_bsp/\libucosii_bsp.a(parseip.o)
 .data          0x0084d05c        0x0 ../rtc_socket_bsp/\libucosii_bsp.a(tk_crnos.o)
 .data          0x0084d05c        0x0 ../rtc_socket_bsp/\libucosii_bsp.a(dhcpclnt.o)
 .data          0x0084d05c        0x0 ../rtc_socket_bsp/\libucosii_bsp.a(dhcputil.o)
 .data          0x0084d05c        0x0 ../rtc_socket_bsp/\libucosii_bsp.a(pktalloc.o)
 .data          0x0084d05c        0x0 ../rtc_socket_bsp/\libucosii_bsp.a(q.o)
 .data          0x0084d05c        0x0 ../rtc_socket_bsp/\libucosii_bsp.a(udp_open.o)
 .data          0x0084d05c        0x0 ../rtc_socket_bsp/\libucosii_bsp.a(asm_cksum.o)
 .data          0x0084d05c        0x0 ../rtc_socket_bsp/\libucosii_bsp.a(brdutils.o)
 .data          0x0084d05c        0x0 ../rtc_socket_bsp/\libucosii_bsp.a(osportco.o)
 .data          0x0084d05c        0x0 ../rtc_socket_bsp/\libucosii_bsp.a(targnios.o)
 .data          0x0084d05c       0x48 ../rtc_socket_bsp/\libucosii_bsp.a(nptcp.o)
                0x0084d05c                tcp_protosw
                0x0084d074                udp_protosw
                0x0084d08c                rawip_protosw
 .data          0x0084d0a4        0x0 ../rtc_socket_bsp/\libucosii_bsp.a(rawsock.o)
 .data          0x0084d0a4        0x0 ../rtc_socket_bsp/\libucosii_bsp.a(sockcall.o)
 .data          0x0084d0a4        0x0 ../rtc_socket_bsp/\libucosii_bsp.a(socket.o)
 .data          0x0084d0a4        0x0 ../rtc_socket_bsp/\libucosii_bsp.a(socket2.o)
 .data          0x0084d0a4        0x0 ../rtc_socket_bsp/\libucosii_bsp.a(soselect.o)
 .data          0x0084d0a4        0x0 ../rtc_socket_bsp/\libucosii_bsp.a(tcp_in.o)
 .data          0x0084d0a4        0xb ../rtc_socket_bsp/\libucosii_bsp.a(tcp_out.o)
                0x0084d0a4                tcp_outflags
 .data          0x0084d0af        0x0 ../rtc_socket_bsp/\libucosii_bsp.a(tcp_subr.o)
 .data          0x0084d0af        0xd ../rtc_socket_bsp/\libucosii_bsp.a(tcp_timr.o)
                0x0084d0af                tcp_backoff
 .data          0x0084d0bc        0x0 ../rtc_socket_bsp/\libucosii_bsp.a(tcp_usr.o)
 .data          0x0084d0bc        0x0 ../rtc_socket_bsp/\libucosii_bsp.a(tcpport.o)
 .data          0x0084d0bc        0x0 ../rtc_socket_bsp/\libucosii_bsp.a(udpsock.o)
 .data          0x0084d0bc        0x0 ../rtc_socket_bsp/\libucosii_bsp.a(alt_alarm_start.o)
 .data          0x0084d0bc        0x0 ../rtc_socket_bsp/\libucosii_bsp.a(alt_busy_sleep.o)
 .data          0x0084d0bc        0x0 ../rtc_socket_bsp/\libucosii_bsp.a(alt_close.o)
 .data          0x0084d0bc        0x0 ../rtc_socket_bsp/\libucosii_bsp.a(alt_dcache_flush.o)
 .data          0x0084d0bc      0x1a8 ../rtc_socket_bsp/\libucosii_bsp.a(alt_dev.o)
                0x0084d0bc                alt_dev_null
                0x0084d0e4                alt_fd_list
 .data          0x0084d264        0x0 ../rtc_socket_bsp/\libucosii_bsp.a(alt_dev_llist_insert.o)
 .data          0x0084d264        0x0 ../rtc_socket_bsp/\libucosii_bsp.a(alt_do_ctors.o)
 .data          0x0084d264        0x0 ../rtc_socket_bsp/\libucosii_bsp.a(alt_do_dtors.o)
 .data          0x0084d264        0x0 ../rtc_socket_bsp/\libucosii_bsp.a(alt_errno.o)
 .data          0x0084d264        0x0 ../rtc_socket_bsp/\libucosii_bsp.a(alt_find_dev.o)
 .data          0x0084d264        0x0 ../rtc_socket_bsp/\libucosii_bsp.a(alt_iic.o)
 .data          0x0084d264        0x0 ../rtc_socket_bsp/\libucosii_bsp.a(alt_iic_isr_register.o)
 .data          0x0084d264        0x0 ../rtc_socket_bsp/\libucosii_bsp.a(alt_io_redirect.o)
 .data          0x0084d264        0x0 ../rtc_socket_bsp/\libucosii_bsp.a(alt_irq_entry.o)
 .data          0x0084d264        0x0 ../rtc_socket_bsp/\libucosii_bsp.a(alt_irq_handler.o)
 .data          0x0084d264        0x0 ../rtc_socket_bsp/\libucosii_bsp.a(alt_open.o)
 .data          0x0084d264        0x0 ../rtc_socket_bsp/\libucosii_bsp.a(alt_read.o)
 .data          0x0084d264        0x0 ../rtc_socket_bsp/\libucosii_bsp.a(alt_release_fd.o)
 .data          0x0084d264        0x0 ../rtc_socket_bsp/\libucosii_bsp.a(alt_remap_cached.o)
 .data          0x0084d264        0x0 ../rtc_socket_bsp/\libucosii_bsp.a(alt_remap_uncached.o)
 .data          0x0084d264        0x0 ../rtc_socket_bsp/\libucosii_bsp.a(alt_write.o)
 .data          0x0084d264        0x0 ../rtc_socket_bsp/\libucosii_bsp.a(altera_nios2_qsys_irq.o)
 .data          0x0084d264        0x0 ../rtc_socket_bsp/\libucosii_bsp.a(os_cpu_a.o)
 .data          0x0084d264        0x0 ../rtc_socket_bsp/\libucosii_bsp.a(os_cpu_c.o)
 .data          0x0084d264        0x0 ../rtc_socket_bsp/\libucosii_bsp.a(altera_avalon_cfi_flash_amd.o)
 .data          0x0084d264        0x0 ../rtc_socket_bsp/\libucosii_bsp.a(altera_avalon_cfi_flash_intel.o)
 .data          0x0084d264        0x0 ../rtc_socket_bsp/\libucosii_bsp.a(altera_avalon_spi.o)
 .data          0x0084d264       0x18 ../rtc_socket_bsp/\libucosii_bsp.a(allports.o)
                0x0084d264                icmpdu_types
 .data          0x0084d27c        0x0 ../rtc_socket_bsp/\libucosii_bsp.a(timeouts.o)
 .data          0x0084d27c        0x0 ../rtc_socket_bsp/\libucosii_bsp.a(tk_misc.o)
 .data          0x0084d27c        0x0 ../rtc_socket_bsp/\libucosii_bsp.a(alt_iniche_fcntl.o)
 .data          0x0084d27c        0x0 ../rtc_socket_bsp/\libucosii_bsp.a(et_arp.o)
 .data          0x0084d27c        0x0 ../rtc_socket_bsp/\libucosii_bsp.a(iface.o)
 .data          0x0084d27c        0x0 ../rtc_socket_bsp/\libucosii_bsp.a(ip.o)
 .data          0x0084d27c        0x0 ../rtc_socket_bsp/\libucosii_bsp.a(ip_reasm.o)
 .data          0x0084d27c        0x0 ../rtc_socket_bsp/\libucosii_bsp.a(ipdemux.o)
 .data          0x0084d27c        0x0 ../rtc_socket_bsp/\libucosii_bsp.a(ipmc.o)
 .data          0x0084d27c        0x0 ../rtc_socket_bsp/\libucosii_bsp.a(ipport.o)
 .data          0x0084d27c        0x0 ../rtc_socket_bsp/\libucosii_bsp.a(ipraw.o)
 .data          0x0084d27c        0x9 ../rtc_socket_bsp/\libucosii_bsp.a(iproute.o)
                0x0084d27c                rtp_priority
 .data          0x0084d285        0x0 ../rtc_socket_bsp/\libucosii_bsp.a(udp.o)
 .data          0x0084d285        0x0 ../rtc_socket_bsp/\libucosii_bsp.a(igmp.o)
 .data          0x0084d285        0x0 ../rtc_socket_bsp/\libucosii_bsp.a(igmp2.o)
 .data          0x0084d285        0x0 ../rtc_socket_bsp/\libucosii_bsp.a(ipopt.o)
 .data          0x0084d285        0x0 ../rtc_socket_bsp/\libucosii_bsp.a(u_mctest.o)
 .data          0x0084d285        0x0 ../rtc_socket_bsp/\libucosii_bsp.a(dhcsetup.o)
 *fill*         0x0084d285        0x3 00
 .data          0x0084d288       0xd4 ../rtc_socket_bsp/\libucosii_bsp.a(memdev.o)
                0x0084d288                mdio
                0x0084d2ac                mdlist
 .data          0x0084d35c        0x0 ../rtc_socket_bsp/\libucosii_bsp.a(tcpcksum.o)
 .data          0x0084d35c        0x0 ../rtc_socket_bsp/\libucosii_bsp.a(in_pcb.o)
 .data          0x0084d35c       0x80 ../rtc_socket_bsp/\libucosii_bsp.a(vfsfiles.o)
                0x0084d35c                vfs_root_path
 .data          0x0084d3dc        0x0 ../rtc_socket_bsp/\libucosii_bsp.a(vfsport.o)
 .data          0x0084d3dc        0x0 ../rtc_socket_bsp/\libucosii_bsp.a(alt_exception_entry.o)
 .data          0x0084d3dc        0x0 ../rtc_socket_bsp/\libucosii_bsp.a(alt_fcntl.o)
 .data          0x0084d3dc        0x0 ../rtc_socket_bsp/\libucosii_bsp.a(alt_find_file.o)
 .data          0x0084d3dc        0x0 ../rtc_socket_bsp/\libucosii_bsp.a(alt_get_fd.o)
 .data          0x0084d3dc       0x18 ../rtc_socket_bsp/\libucosii_bsp.a(icmp.o)
 .data          0x0084d3f4        0x0 c:/altera/13.0sp1/nios2eds/bin/gnu/h-i686-mingw32/bin/../lib/gcc/nios2-elf/4.1.2/../../../../nios2-elf/lib\libc.a(lib_a-atexit.o)
 .data          0x0084d3f4        0x0 c:/altera/13.0sp1/nios2eds/bin/gnu/h-i686-mingw32/bin/../lib/gcc/nios2-elf/4.1.2/../../../../nios2-elf/lib\libc.a(lib_a-calloc.o)
 .data          0x0084d3f4        0x0 c:/altera/13.0sp1/nios2eds/bin/gnu/h-i686-mingw32/bin/../lib/gcc/nios2-elf/4.1.2/../../../../nios2-elf/lib\libc.a(lib_a-malloc.o)
 .data          0x0084d3f4        0x0 c:/altera/13.0sp1/nios2eds/bin/gnu/h-i686-mingw32/bin/../lib/gcc/nios2-elf/4.1.2/../../../../nios2-elf/lib\libc.a(lib_a-memcmp.o)
 .data          0x0084d3f4        0x0 c:/altera/13.0sp1/nios2eds/bin/gnu/h-i686-mingw32/bin/../lib/gcc/nios2-elf/4.1.2/../../../../nios2-elf/lib\libc.a(lib_a-strcpy.o)
 .data          0x0084d3f4        0x0 c:/altera/13.0sp1/nios2eds/bin/gnu/h-i686-mingw32/bin/../lib/gcc/nios2-elf/4.1.2/../../../../nios2-elf/lib\libc.a(lib_a-strncmp.o)
 .data          0x0084d3f4        0x0 c:/altera/13.0sp1/nios2eds/bin/gnu/h-i686-mingw32/bin/../lib/gcc/nios2-elf/4.1.2/../../../../nios2-elf/lib\libc.a(lib_a-strncpy.o)
 .data          0x0084d3f4        0x0 c:/altera/13.0sp1/nios2eds/bin/gnu/h-i686-mingw32/bin/../lib/gcc/nios2-elf/4.1.2/../../../../nios2-elf/lib\libc.a(lib_a-vprintf.o)
 .data          0x0084d3f4        0x0 c:/altera/13.0sp1/nios2eds/bin/gnu/h-i686-mingw32/bin/../lib/gcc/nios2-elf/4.1.2/../../../../nios2-elf/lib\libc.a(lib_a-vsprintf.o)
 .data          0x0084d3f4        0x0 c:/altera/13.0sp1/nios2eds/bin/gnu/h-i686-mingw32/bin/../lib/gcc/nios2-elf/4.1.2/../../../../nios2-elf/lib\libc.a(lib_a-__atexit.o)
                0x008553f4                _gp = ABSOLUTE ((. + 0x8000))
                0x008553f4                PROVIDE (gp, _gp)
 *(.rwdata .rwdata.*)
 *(.sdata .sdata.* .gnu.linkonce.s.*)
 .sdata         0x0084d3f4        0x4 c:/altera/13.0sp1/nios2eds/bin/gnu/h-i686-mingw32/bin/../lib/gcc/nios2-elf/4.1.2/../../../../nios2-elf/lib\libc.a(lib_a-ctype_.o)
                0x0084d3f4                __ctype_ptr
 .sdata         0x0084d3f8        0x8 c:/altera/13.0sp1/nios2eds/bin/gnu/h-i686-mingw32/bin/../lib/gcc/nios2-elf/4.1.2/../../../../nios2-elf/lib\libc.a(lib_a-impure.o)
                0x0084d3f8                _impure_ptr
                0x0084d3fc                _global_impure_ptr
 .sdata         0x0084d400        0x8 c:/altera/13.0sp1/nios2eds/bin/gnu/h-i686-mingw32/bin/../lib/gcc/nios2-elf/4.1.2/../../../../nios2-elf/lib\libc.a(lib_a-locale.o)
                0x0084d400                __mb_cur_max
 .sdata         0x0084d408        0x8 c:/altera/13.0sp1/nios2eds/bin/gnu/h-i686-mingw32/bin/../lib/gcc/nios2-elf/4.1.2/../../../../nios2-elf/lib\libc.a(lib_a-mallocr.o)
                0x0084d408                __malloc_trim_threshold
                0x0084d40c                __malloc_sbrk_base
 .sdata         0x0084d410        0x8 ../rtc_socket_bsp/\libucosii_bsp.a(alt_flash_dev.o)
                0x0084d410                alt_flash_dev_list
 .sdata         0x0084d418        0x4 ../rtc_socket_bsp/\libucosii_bsp.a(alt_irq_vars.o)
                0x0084d418                alt_priority_mask
 .sdata         0x0084d41c        0x4 ../rtc_socket_bsp/\libucosii_bsp.a(alt_sbrk.o)
 .sdata         0x0084d420        0x8 ../rtc_socket_bsp/\libucosii_bsp.a(alt_tick.o)
                0x0084d420                alt_alarm_list
 .sdata         0x0084d428        0x4 ../rtc_socket_bsp/\libucosii_bsp.a(alt_env_lock.o)
 .sdata         0x0084d42c        0x4 ../rtc_socket_bsp/\libucosii_bsp.a(alt_malloc_lock.o)
 .sdata         0x0084d430       0x74 ../rtc_socket_bsp/\libucosii_bsp.a(os_dbg.o)
                0x0084d430                OSDebugEn
                0x0084d434                OSEndiannessTest
                0x0084d438                OSEventEn
                0x0084d43a                OSEventMax
                0x0084d43c                OSEventNameSize
                0x0084d43e                OSEventSize
                0x0084d440                OSEventTblSize
                0x0084d442                OSEventMultiEn
                0x0084d444                OSFlagEn
                0x0084d446                OSFlagGrpSize
                0x0084d448                OSFlagNodeSize
                0x0084d44a                OSFlagWidth
                0x0084d44c                OSFlagMax
                0x0084d44e                OSFlagNameSize
                0x0084d450                OSLowestPrio
                0x0084d452                OSMboxEn
                0x0084d454                OSMemEn
                0x0084d456                OSMemMax
                0x0084d458                OSMemNameSize
                0x0084d45a                OSMemSize
                0x0084d45c                OSMemTblSize
                0x0084d45e                OSMutexEn
                0x0084d460                OSPtrSize
                0x0084d462                OSQEn
                0x0084d464                OSQMax
                0x0084d466                OSQSize
                0x0084d468                OSRdyTblSize
                0x0084d46a                OSSemEn
                0x0084d46c                OSStkWidth
                0x0084d46e                OSTaskCreateEn
                0x0084d470                OSTaskCreateExtEn
                0x0084d472                OSTaskDelEn
                0x0084d474                OSTaskIdleStkSize
                0x0084d476                OSTaskProfileEn
                0x0084d478                OSTaskMax
                0x0084d47a                OSTaskNameSize
                0x0084d47c                OSTaskStatEn
                0x0084d47e                OSTaskStatStkSize
                0x0084d480                OSTaskStatStkChkEn
                0x0084d482                OSTaskSwHookEn
                0x0084d484                OSTCBPrioTblMax
                0x0084d486                OSTCBSize
                0x0084d488                OSTicksPerSec
                0x0084d48a                OSTimeTickHookEn
                0x0084d48c                OSVersionNbr
                0x0084d48e                OSTmrEn
                0x0084d490                OSTmrCfgMax
                0x0084d492                OSTmrCfgNameSize
                0x0084d494                OSTmrCfgWheelSize
                0x0084d496                OSTmrCfgTicksPerSec
                0x0084d498                OSTmrSize
                0x0084d49a                OSTmrTblSize
                0x0084d49c                OSTmrWheelSize
                0x0084d49e                OSTmrWheelTblSize
                0x0084d4a0                OSDataSize
 .sdata         0x0084d4a4        0x4 ../rtc_socket_bsp/\libucosii_bsp.a(altera_avalon_lcd_16207.o)
 .sdata         0x0084d4a8        0x8 ../rtc_socket_bsp/\libucosii_bsp.a(alt_iniche_dev.o)
                0x0084d4a8                alt_iniche_dev_list
 .sdata         0x0084d4b0        0x4 ../rtc_socket_bsp/\libucosii_bsp.a(ipstart.o)
                0x0084d4b0                ipmcfail_str
 .sdata         0x0084d4b4        0x4 ../rtc_socket_bsp/\libucosii_bsp.a(cksum.o)
 .sdata         0x0084d4b8        0x4 ../rtc_socket_bsp/\libucosii_bsp.a(netmain.o)
                0x0084d4b8                num_net_tasks
 .sdata         0x0084d4bc        0x4 ../rtc_socket_bsp/\libucosii_bsp.a(parseip.o)
                0x0084d4bc                pton_error
 .sdata         0x0084d4c0        0xc ../rtc_socket_bsp/\libucosii_bsp.a(dhcpclnt.o)
                0x0084d4c0                xids
                0x0084d4c4                reqlist
                0x0084d4c8                reqlist_len
 .sdata         0x0084d4cc       0x10 ../rtc_socket_bsp/\libucosii_bsp.a(pktalloc.o)
                0x0084d4cc                lilbufs
                0x0084d4d0                lilbufsiz
                0x0084d4d4                bigbufs
                0x0084d4d8                bigbufsiz
 .sdata         0x0084d4dc        0x4 ../rtc_socket_bsp/\libucosii_bsp.a(brdutils.o)
                0x0084d4dc                kb_last
 .sdata         0x0084d4e0        0x4 ../rtc_socket_bsp/\libucosii_bsp.a(nptcp.o)
                0x0084d4e0                TCPTV_MSL
 .sdata         0x0084d4e4        0x2 ../rtc_socket_bsp/\libucosii_bsp.a(socket.o)
                0x0084d4e4                socket_defaults
 .sdata         0x0084d4e6        0x1 ../rtc_socket_bsp/\libucosii_bsp.a(tcp_in.o)
                0x0084d4e6                tcprexmtthresh
 *fill*         0x0084d4e7        0x1 00
 .sdata         0x0084d4e8        0x4 ../rtc_socket_bsp/\libucosii_bsp.a(tcp_subr.o)
                0x0084d4e8                tcp_ttl
 .sdata         0x0084d4ec        0x8 ../rtc_socket_bsp/\libucosii_bsp.a(tcp_timr.o)
                0x0084d4ec                tcp_keepidle
                0x0084d4f0                tcp_keepintvl
 .sdata         0x0084d4f4        0x8 ../rtc_socket_bsp/\libucosii_bsp.a(tcp_usr.o)
                0x0084d4f4                tcp_sendspace
                0x0084d4f8                tcp_recvspace
 .sdata         0x0084d4fc       0x14 ../rtc_socket_bsp/\libucosii_bsp.a(alt_dev.o)
                0x0084d4fc                alt_fs_list
                0x0084d504                alt_dev_list
                0x0084d50c                alt_max_fd
 .sdata         0x0084d510        0x4 ../rtc_socket_bsp/\libucosii_bsp.a(alt_errno.o)
                0x0084d510                alt_errno
 .sdata         0x0084d514       0x10 ../rtc_socket_bsp/\libucosii_bsp.a(allports.o)
                0x0084d514                name
                0x0084d518                prompt
                0x0084d51c                pingdelay
                0x0084d520                deflength
 .sdata         0x0084d524        0x4 ../rtc_socket_bsp/\libucosii_bsp.a(et_arp.o)
                0x0084d524                arp_ageout
 .sdata         0x0084d528        0x8 ../rtc_socket_bsp/\libucosii_bsp.a(ip.o)
                0x0084d52c                ipRoutes
 .sdata         0x0084d530        0x4 ../rtc_socket_bsp/\libucosii_bsp.a(u_mctest.o)
 .sdata         0x0084d534        0x4 ../rtc_socket_bsp/\libucosii_bsp.a(memdev.o)
                0x0084d534                mdlist_size
 .sdata         0x0084d538        0x4 ../rtc_socket_bsp/\libucosii_bsp.a(vfsfiles.o)
                0x0084d538                http_root_path
 *(.sdata2 .sdata2.* .gnu.linkonce.s2.*)
                0x0084d53c                . = ALIGN (0x4)
                0x0084d53c                _edata = ABSOLUTE (.)
                0x0084d53c                PROVIDE (edata, ABSOLUTE (.))
                0x0084d53c                PROVIDE (__ram_rwdata_end, ABSOLUTE (.))
                0x0084b400                PROVIDE (__flash_rwdata_start, LOADADDR (.rwdata))

.bss            0x0084d53c     0xca48
                0x0084d53c                __bss_start = ABSOLUTE (.)
                0x0084d53c                PROVIDE (__sbss_start, ABSOLUTE (.))
                0x0084d53c                PROVIDE (___sbss_start, ABSOLUTE (.))
 *(.dynsbss)
 *(.sbss .sbss.* .gnu.linkonce.sb.*)
 .sbss          0x0084d53c        0x8 obj/default/SSS_DE2_115.o
                0x0084d53c                last_flash_sector_offset
                0x0084d540                last_flash_sector
 .sbss          0x0084d544        0x8 obj/default/dm9000a.o
                0x0084d544                autoReset
                0x0084d548                netisrs
 .sbss          0x0084d54c       0x17 obj/default/iniche_init.o
                0x0084d54c                correct_answer
                0x0084d550                wrong_answer
                0x0084d554                timed_out
                0x0084d558                player_score
                0x0084d55c                event_flag_group
                0x0084d560                event_flags
                0x0084d562                to_ssstask
 *fill*         0x0084d563        0x1 00
 .sbss          0x0084d564       0x10 obj/default/simple_socket_server.o
                0x0084d568                SSSLEDCommandQ
                0x0084d56c                SSSLEDLightshowSem
                0x0084d570                SSSLEDEventFlag
 .sbss          0x0084d574        0x4 c:/altera/13.0sp1/nios2eds/bin/gnu/h-i686-mingw32/bin/../lib/gcc/nios2-elf/4.1.2/../../../../nios2-elf/lib\libc.a(lib_a-int_errno.o)
                0x0084d574                errno
 .sbss          0x0084d578        0xc c:/altera/13.0sp1/nios2eds/bin/gnu/h-i686-mingw32/bin/../lib/gcc/nios2-elf/4.1.2/../../../../nios2-elf/lib\libc.a(lib_a-locale.o)
                0x0084d578                __nlocale_changed
                0x0084d57c                __mlocale_changed
                0x0084d580                _PathLocale
 .sbss          0x0084d584        0xc c:/altera/13.0sp1/nios2eds/bin/gnu/h-i686-mingw32/bin/../lib/gcc/nios2-elf/4.1.2/../../../../nios2-elf/lib\libc.a(lib_a-mallocr.o)
                0x0084d584                __malloc_top_pad
                0x0084d588                __malloc_max_sbrked_mem
                0x0084d58c                __malloc_max_total_mem
 .sbss          0x0084d590       0x10 ../rtc_socket_bsp/\libucosii_bsp.a(alt_gettod.o)
                0x0084d590                alt_timezone
                0x0084d598                alt_resettime
 .sbss          0x0084d5a0        0x4 ../rtc_socket_bsp/\libucosii_bsp.a(alt_irq_vars.o)
                0x0084d5a0                alt_irq_active
 .sbss          0x0084d5a4        0xc ../rtc_socket_bsp/\libucosii_bsp.a(alt_main.o)
                0x0084d5a4                alt_argc
                0x0084d5a8                alt_argv
                0x0084d5ac                alt_envp
 .sbss          0x0084d5b0        0x8 ../rtc_socket_bsp/\libucosii_bsp.a(alt_tick.o)
                0x0084d5b0                _alt_tick_rate
                0x0084d5b4                _alt_nticks
 .sbss          0x0084d5b8        0x8 ../rtc_socket_bsp/\libucosii_bsp.a(alt_env_lock.o)
                0x0084d5bc                alt_envsem
 .sbss          0x0084d5c0        0x8 ../rtc_socket_bsp/\libucosii_bsp.a(alt_malloc_lock.o)
                0x0084d5c4                alt_heapsem
 .sbss          0x0084d5c8       0x50 ../rtc_socket_bsp/\libucosii_bsp.a(os_core.o)
                0x0084d5c8                OSLockNesting
                0x0084d5c9                OSRunning
                0x0084d5cc                OSIdleCtr
                0x0084d5d0                OSPrioHighRdy
                0x0084d5d1                OSPrioCur
                0x0084d5d4                OSTCBList
                0x0084d5d8                OSTickStepState
                0x0084d5dc                OSCtxSwCtr
                0x0084d5e0                OSIdleCtrMax
                0x0084d5e4                OSTCBFreeList
                0x0084d5e8                OSCPUUsage
                0x0084d5e9                OSTaskCtr
                0x0084d5ec                OSMemFreeList
                0x0084d5f0                OSTCBHighRdy
                0x0084d5f4                OSQFreeList
                0x0084d5f8                OSRdyGrp
                0x0084d5f9                OSRdyTbl
                0x0084d5fc                OSEventFreeList
                0x0084d600                OSIntNesting
                0x0084d604                OSTCBCur
                0x0084d608                OSTime
                0x0084d60c                OSFlagFreeList
                0x0084d610                OSStatRdy
                0x0084d614                OSIdleCtrRun
 .sbss          0x0084d618        0xc ../rtc_socket_bsp/\libucosii_bsp.a(ipnet.o)
                0x0084d618                MaxLnh
                0x0084d61c                MaxMtu
                0x0084d620                NDEBUG
 .sbss          0x0084d624        0x8 ../rtc_socket_bsp/\libucosii_bsp.a(ipstart.o)
                0x0084d624                ifNumber
 .sbss          0x0084d62c       0x10 ../rtc_socket_bsp/\libucosii_bsp.a(igmp_cmn.o)
                0x0084d62c                igmp_timers_are_running
                0x0084d630                igmp_cticks
                0x0084d634                igmp_all_hosts_group
                0x0084d638                igmp_all_rtrs_group
 .sbss          0x0084d63c        0xe ../rtc_socket_bsp/\libucosii_bsp.a(netmain.o)
                0x0084d63c                netmain_wakes
                0x0084d640                nettick_wakes
                0x0084d644                iniche_net_ready
                0x0084d648                to_netmain
                0x0084d649                to_nettick
 *fill*         0x0084d64a        0x2 00
 .sbss          0x0084d64c        0x4 ../rtc_socket_bsp/\libucosii_bsp.a(tk_crnos.o)
                0x0084d64c                tcp_sleep_timeout
 .sbss          0x0084d650       0x34 ../rtc_socket_bsp/\libucosii_bsp.a(dhcpclnt.o)
                0x0084d650                dhc_conn
                0x0084d654                dsc_errors
                0x0084d658                dsc_discovers
                0x0084d65c                dsc_offers
                0x0084d660                dsc_requests
                0x0084d664                dsc_acks
                0x0084d668                dsc_bpreplys
                0x0084d66c                dsc_declines
                0x0084d670                dsc_releases
                0x0084d674                dsc_naks
                0x0084d678                dsc_renew
                0x0084d67c                dsc_rebind
                0x0084d680                dsc_rlyerrs
 .sbss          0x0084d684        0x4 ../rtc_socket_bsp/\libucosii_bsp.a(udp_open.o)
                0x0084d684                firstudp
 .sbss          0x0084d688       0x18 ../rtc_socket_bsp/\libucosii_bsp.a(brdutils.o)
                0x0084d68c                cticks_initialized
                0x0084d690                irq_level
                0x0084d698                cticks_factor
                0x0084d69c                OS_TPS
 .sbss          0x0084d6a0       0x18 ../rtc_socket_bsp/\libucosii_bsp.a(osportco.o)
                0x0084d6a0                tcp_sleep_count
                0x0084d6a4                tcp_wakeup_count
                0x0084d6a8                netq_intmask
                0x0084d6ac                old_mode
                0x0084d6b0                global_TCPwakeup_setIndx
                0x0084d6b4                cticks
 .sbss          0x0084d6b8        0xc ../rtc_socket_bsp/\libucosii_bsp.a(targnios.o)
                0x0084d6b8                memtrapsize
                0x0084d6bc                mheap_sem_ptr
                0x0084d6c0                rcvdq_sem_ptr
 .sbss          0x0084d6c4       0x12 ../rtc_socket_bsp/\libucosii_bsp.a(nptcp.o)
                0x0084d6c4                nextslow
                0x0084d6cc                mbstat
                0x0084d6d4                select_wait
 *fill*         0x0084d6d6        0x2 00
 .sbss          0x0084d6d8        0x8 ../rtc_socket_bsp/\libucosii_bsp.a(tcp_in.o)
                0x0084d6d8                tcpprintfs
                0x0084d6dc                dropline
 .sbss          0x0084d6e0        0x4 ../rtc_socket_bsp/\libucosii_bsp.a(tcp_out.o)
                0x0084d6e0                tcp_optionbuf
 .sbss          0x0084d6e4        0x8 ../rtc_socket_bsp/\libucosii_bsp.a(tcp_timr.o)
                0x0084d6e4                tcp_maxidle
                0x0084d6e8                tcp_iss
 .sbss          0x0084d6ec        0x4 ../rtc_socket_bsp/\libucosii_bsp.a(alt_dev.o)
                0x0084d6ec                alt_fd_list_lock
 .sbss          0x0084d6f0        0x8 ../rtc_socket_bsp/\libucosii_bsp.a(allports.o)
                0x0084d6f0                activehost
 .sbss          0x0084d6f8        0xc ../rtc_socket_bsp/\libucosii_bsp.a(timeouts.o)
                0x0084d6f8                nextppp
                0x0084d6fc                port_1s_callout
 .sbss          0x0084d704       0x1c ../rtc_socket_bsp/\libucosii_bsp.a(et_arp.o)
                0x0084d708                arpcache
                0x0084d70c                arpReqsIn
                0x0084d710                arpReqsOut
                0x0084d714                arpRepsIn
                0x0084d718                arpRepsOut
 .sbss          0x0084d720        0x4 ../rtc_socket_bsp/\libucosii_bsp.a(ip.o)
                0x0084d720                rt_mib
 .sbss          0x0084d724        0xc ../rtc_socket_bsp/\libucosii_bsp.a(ip_reasm.o)
                0x0084d724                ipr_curr_mem
                0x0084d728                h_ireq
                0x0084d72c                ire_cticks
 .sbss          0x0084d730       0x11 ../rtc_socket_bsp/\libucosii_bsp.a(ipport.o)
                0x0084d730                port_prep
                0x0084d734                net_system_exit
                0x0084d738                so_evtmap_create
                0x0084d73c                so_evtmap_delete
                0x0084d740                so_evtmap
 *fill*         0x0084d741        0x3 00
 .sbss          0x0084d744        0x4 ../rtc_socket_bsp/\libucosii_bsp.a(ipraw.o)
                0x0084d744                ipraw_eps
 .sbss          0x0084d748        0x4 ../rtc_socket_bsp/\libucosii_bsp.a(iproute.o)
                0x0084d748                cachedRoute
 .sbss          0x0084d74c        0x2 ../rtc_socket_bsp/\libucosii_bsp.a(udp.o)
 *fill*         0x0084d74e        0x2 00
 .sbss          0x0084d750        0x8 ../rtc_socket_bsp/\libucosii_bsp.a(in_pcb.o)
                0x0084d750                inpcb_cachehits
                0x0084d754                inpcb_cachemiss
 .sbss          0x0084d758       0x20 ../rtc_socket_bsp/\libucosii_bsp.a(vfsfiles.o)
                0x0084d758                vfsystems
                0x0084d75c                vfiles
                0x0084d760                vfsfiles
                0x0084d764                vfopen_error
                0x0084d768                vfs_dir_stale
                0x0084d76c                vfs_open_files
                0x0084d770                vfs_total_rw_space
                0x0084d774                vfs_total_dyna_files
 .sbss          0x0084d778        0x4 ../rtc_socket_bsp/\libucosii_bsp.a(icmp.o)
                0x0084d778                icmpdu_hook
 *(.sbss2 .sbss2.* .gnu.linkonce.sb2.*)
 *(.scommon)
                0x0084d77c                PROVIDE (__sbss_end, ABSOLUTE (.))
                0x0084d77c                PROVIDE (___sbss_end, ABSOLUTE (.))
 *(.dynbss)
 *(.bss .bss.* .gnu.linkonce.b.*)
 .bss           0x0084d77c        0x0 ../rtc_socket_bsp//obj/HAL/src/crt0.o
 .bss           0x0084d77c        0x0 obj/default/LCD.o
 .bss           0x0084d77c        0x0 obj/default/SSS_DE2_115.o
 .bss           0x0084d77c        0x0 obj/default/alt_error_handler.o
 .bss           0x0084d77c        0x0 obj/default/dm9000a.o
 .bss           0x0084d77c        0x0 obj/default/iniche_init.o
 .bss           0x0084d77c        0x0 obj/default/led.o
 .bss           0x0084d77c        0x0 obj/default/network_utilities.o
 .bss           0x0084d77c      0x5f0 obj/default/simple_socket_server.o
 .bss           0x0084dd6c        0x0 obj/default/tse_my_system.o
 .bss           0x0084dd6c        0x0 c:/altera/13.0sp1/nios2eds/bin/gnu/h-i686-mingw32/bin/../lib/gcc/nios2-elf/4.1.2\libgcc.a(_fixunsdfsi.o)
 .bss           0x0084dd6c        0x0 c:/altera/13.0sp1/nios2eds/bin/gnu/h-i686-mingw32/bin/../lib/gcc/nios2-elf/4.1.2\libgcc.a(_addsub_df.o)
 .bss           0x0084dd6c        0x0 c:/altera/13.0sp1/nios2eds/bin/gnu/h-i686-mingw32/bin/../lib/gcc/nios2-elf/4.1.2\libgcc.a(_mul_df.o)
 .bss           0x0084dd6c        0x0 c:/altera/13.0sp1/nios2eds/bin/gnu/h-i686-mingw32/bin/../lib/gcc/nios2-elf/4.1.2\libgcc.a(_ge_df.o)
 .bss           0x0084dd6c        0x0 c:/altera/13.0sp1/nios2eds/bin/gnu/h-i686-mingw32/bin/../lib/gcc/nios2-elf/4.1.2\libgcc.a(_df_to_si.o)
 .bss           0x0084dd6c        0x0 c:/altera/13.0sp1/nios2eds/bin/gnu/h-i686-mingw32/bin/../lib/gcc/nios2-elf/4.1.2\libgcc.a(_thenan_df.o)
 .bss           0x0084dd6c        0x0 c:/altera/13.0sp1/nios2eds/bin/gnu/h-i686-mingw32/bin/../lib/gcc/nios2-elf/4.1.2\libgcc.a(_usi_to_df.o)
 .bss           0x0084dd6c        0x0 c:/altera/13.0sp1/nios2eds/bin/gnu/h-i686-mingw32/bin/../lib/gcc/nios2-elf/4.1.2\libgcc.a(_muldi3.o)
 .bss           0x0084dd6c        0x0 c:/altera/13.0sp1/nios2eds/bin/gnu/h-i686-mingw32/bin/../lib/gcc/nios2-elf/4.1.2\libgcc.a(_clzsi2.o)
 .bss           0x0084dd6c        0x0 c:/altera/13.0sp1/nios2eds/bin/gnu/h-i686-mingw32/bin/../lib/gcc/nios2-elf/4.1.2\libgcc.a(_pack_df.o)
 .bss           0x0084dd6c        0x0 c:/altera/13.0sp1/nios2eds/bin/gnu/h-i686-mingw32/bin/../lib/gcc/nios2-elf/4.1.2\libgcc.a(_unpack_df.o)
 .bss           0x0084dd6c        0x0 c:/altera/13.0sp1/nios2eds/bin/gnu/h-i686-mingw32/bin/../lib/gcc/nios2-elf/4.1.2\libgcc.a(_fpcmp_parts_df.o)
 .bss           0x0084dd6c        0x0 c:/altera/13.0sp1/nios2eds/bin/gnu/h-i686-mingw32/bin/../lib/gcc/nios2-elf/4.1.2\libgcc.a(_clz.o)
 .bss           0x0084dd6c        0x0 c:/altera/13.0sp1/nios2eds/bin/gnu/h-i686-mingw32/bin/../lib/gcc/nios2-elf/4.1.2/../../../../nios2-elf/lib\libc.a(lib_a-atoi.o)
 .bss           0x0084dd6c        0x0 c:/altera/13.0sp1/nios2eds/bin/gnu/h-i686-mingw32/bin/../lib/gcc/nios2-elf/4.1.2/../../../../nios2-elf/lib\libc.a(lib_a-ctype_.o)
 .bss           0x0084dd6c        0x0 c:/altera/13.0sp1/nios2eds/bin/gnu/h-i686-mingw32/bin/../lib/gcc/nios2-elf/4.1.2/../../../../nios2-elf/lib\libc.a(lib_a-errno.o)
 .bss           0x0084dd6c        0x0 c:/altera/13.0sp1/nios2eds/bin/gnu/h-i686-mingw32/bin/../lib/gcc/nios2-elf/4.1.2/../../../../nios2-elf/lib\libc.a(lib_a-exit.o)
 .bss           0x0084dd6c        0x0 c:/altera/13.0sp1/nios2eds/bin/gnu/h-i686-mingw32/bin/../lib/gcc/nios2-elf/4.1.2/../../../../nios2-elf/lib\libc.a(lib_a-fprintf.o)
 .bss           0x0084dd6c        0x0 c:/altera/13.0sp1/nios2eds/bin/gnu/h-i686-mingw32/bin/../lib/gcc/nios2-elf/4.1.2/../../../../nios2-elf/lib\libc.a(lib_a-fwrite.o)
 .bss           0x0084dd6c        0x0 c:/altera/13.0sp1/nios2eds/bin/gnu/h-i686-mingw32/bin/../lib/gcc/nios2-elf/4.1.2/../../../../nios2-elf/lib\libc.a(lib_a-getc.o)
 .bss           0x0084dd6c        0x0 c:/altera/13.0sp1/nios2eds/bin/gnu/h-i686-mingw32/bin/../lib/gcc/nios2-elf/4.1.2/../../../../nios2-elf/lib\libc.a(lib_a-impure.o)
 .bss           0x0084dd6c        0x0 c:/altera/13.0sp1/nios2eds/bin/gnu/h-i686-mingw32/bin/../lib/gcc/nios2-elf/4.1.2/../../../../nios2-elf/lib\libc.a(lib_a-memcpy.o)
 .bss           0x0084dd6c        0x0 c:/altera/13.0sp1/nios2eds/bin/gnu/h-i686-mingw32/bin/../lib/gcc/nios2-elf/4.1.2/../../../../nios2-elf/lib\libc.a(lib_a-memmove.o)
 .bss           0x0084dd6c        0x0 c:/altera/13.0sp1/nios2eds/bin/gnu/h-i686-mingw32/bin/../lib/gcc/nios2-elf/4.1.2/../../../../nios2-elf/lib\libc.a(lib_a-memset.o)
 .bss           0x0084dd6c        0x0 c:/altera/13.0sp1/nios2eds/bin/gnu/h-i686-mingw32/bin/../lib/gcc/nios2-elf/4.1.2/../../../../nios2-elf/lib\libc.a(lib_a-perror.o)
 .bss           0x0084dd6c        0x0 c:/altera/13.0sp1/nios2eds/bin/gnu/h-i686-mingw32/bin/../lib/gcc/nios2-elf/4.1.2/../../../../nios2-elf/lib\libc.a(lib_a-printf.o)
 .bss           0x0084dd6c        0x0 c:/altera/13.0sp1/nios2eds/bin/gnu/h-i686-mingw32/bin/../lib/gcc/nios2-elf/4.1.2/../../../../nios2-elf/lib\libc.a(lib_a-putc.o)
 .bss           0x0084dd6c        0x0 c:/altera/13.0sp1/nios2eds/bin/gnu/h-i686-mingw32/bin/../lib/gcc/nios2-elf/4.1.2/../../../../nios2-elf/lib\libc.a(lib_a-putchar.o)
 .bss           0x0084dd6c        0x0 c:/altera/13.0sp1/nios2eds/bin/gnu/h-i686-mingw32/bin/../lib/gcc/nios2-elf/4.1.2/../../../../nios2-elf/lib\libc.a(lib_a-puts.o)
 .bss           0x0084dd6c        0x0 c:/altera/13.0sp1/nios2eds/bin/gnu/h-i686-mingw32/bin/../lib/gcc/nios2-elf/4.1.2/../../../../nios2-elf/lib\libc.a(lib_a-rand.o)
 .bss           0x0084dd6c        0x0 c:/altera/13.0sp1/nios2eds/bin/gnu/h-i686-mingw32/bin/../lib/gcc/nios2-elf/4.1.2/../../../../nios2-elf/lib\libc.a(lib_a-rget.o)
 .bss           0x0084dd6c        0x0 c:/altera/13.0sp1/nios2eds/bin/gnu/h-i686-mingw32/bin/../lib/gcc/nios2-elf/4.1.2/../../../../nios2-elf/lib\libc.a(lib_a-sprintf.o)
 .bss           0x0084dd6c        0x0 c:/altera/13.0sp1/nios2eds/bin/gnu/h-i686-mingw32/bin/../lib/gcc/nios2-elf/4.1.2/../../../../nios2-elf/lib\libc.a(lib_a-strchr.o)
 .bss           0x0084dd6c        0x0 c:/altera/13.0sp1/nios2eds/bin/gnu/h-i686-mingw32/bin/../lib/gcc/nios2-elf/4.1.2/../../../../nios2-elf/lib\libc.a(lib_a-strcmp.o)
 .bss           0x0084dd6c        0x0 c:/altera/13.0sp1/nios2eds/bin/gnu/h-i686-mingw32/bin/../lib/gcc/nios2-elf/4.1.2/../../../../nios2-elf/lib\libc.a(lib_a-strerror.o)
 .bss           0x0084dd6c        0x0 c:/altera/13.0sp1/nios2eds/bin/gnu/h-i686-mingw32/bin/../lib/gcc/nios2-elf/4.1.2/../../../../nios2-elf/lib\libc.a(lib_a-strlen.o)
 .bss           0x0084dd6c        0x0 c:/altera/13.0sp1/nios2eds/bin/gnu/h-i686-mingw32/bin/../lib/gcc/nios2-elf/4.1.2/../../../../nios2-elf/lib\libc.a(lib_a-strtol.o)
 .bss           0x0084dd6c        0x0 c:/altera/13.0sp1/nios2eds/bin/gnu/h-i686-mingw32/bin/../lib/gcc/nios2-elf/4.1.2/../../../../nios2-elf/lib\libc.a(lib_a-time.o)
 .bss           0x0084dd6c        0x0 c:/altera/13.0sp1/nios2eds/bin/gnu/h-i686-mingw32/bin/../lib/gcc/nios2-elf/4.1.2/../../../../nios2-elf/lib\libc.a(lib_a-u_strerr.o)
 .bss           0x0084dd6c        0x0 c:/altera/13.0sp1/nios2eds/bin/gnu/h-i686-mingw32/bin/../lib/gcc/nios2-elf/4.1.2/../../../../nios2-elf/lib\libc.a(lib_a-vfprintf.o)
 .bss           0x0084dd6c        0x0 c:/altera/13.0sp1/nios2eds/bin/gnu/h-i686-mingw32/bin/../lib/gcc/nios2-elf/4.1.2/../../../../nios2-elf/lib\libc.a(lib_a-wbuf.o)
 .bss           0x0084dd6c        0x0 c:/altera/13.0sp1/nios2eds/bin/gnu/h-i686-mingw32/bin/../lib/gcc/nios2-elf/4.1.2/../../../../nios2-elf/lib\libc.a(lib_a-wsetup.o)
 .bss           0x0084dd6c        0x0 c:/altera/13.0sp1/nios2eds/bin/gnu/h-i686-mingw32/bin/../lib/gcc/nios2-elf/4.1.2/../../../../nios2-elf/lib\libc.a(lib_a-__call_atexit.o)
 .bss           0x0084dd6c        0x0 c:/altera/13.0sp1/nios2eds/bin/gnu/h-i686-mingw32/bin/../lib/gcc/nios2-elf/4.1.2/../../../../nios2-elf/lib\libc.a(lib_a-dtoa.o)
 .bss           0x0084dd6c        0x0 c:/altera/13.0sp1/nios2eds/bin/gnu/h-i686-mingw32/bin/../lib/gcc/nios2-elf/4.1.2/../../../../nios2-elf/lib\libc.a(lib_a-fflush.o)
 .bss           0x0084dd6c        0x0 c:/altera/13.0sp1/nios2eds/bin/gnu/h-i686-mingw32/bin/../lib/gcc/nios2-elf/4.1.2/../../../../nios2-elf/lib\libc.a(lib_a-findfp.o)
 .bss           0x0084dd6c        0x0 c:/altera/13.0sp1/nios2eds/bin/gnu/h-i686-mingw32/bin/../lib/gcc/nios2-elf/4.1.2/../../../../nios2-elf/lib\libc.a(lib_a-fputc.o)
 .bss           0x0084dd6c        0x0 c:/altera/13.0sp1/nios2eds/bin/gnu/h-i686-mingw32/bin/../lib/gcc/nios2-elf/4.1.2/../../../../nios2-elf/lib\libc.a(lib_a-fputs.o)
 .bss           0x0084dd6c        0x0 c:/altera/13.0sp1/nios2eds/bin/gnu/h-i686-mingw32/bin/../lib/gcc/nios2-elf/4.1.2/../../../../nios2-elf/lib\libc.a(lib_a-freer.o)
 .bss           0x0084dd6c        0x0 c:/altera/13.0sp1/nios2eds/bin/gnu/h-i686-mingw32/bin/../lib/gcc/nios2-elf/4.1.2/../../../../nios2-elf/lib\libc.a(lib_a-fvwrite.o)
 .bss           0x0084dd6c        0x0 c:/altera/13.0sp1/nios2eds/bin/gnu/h-i686-mingw32/bin/../lib/gcc/nios2-elf/4.1.2/../../../../nios2-elf/lib\libc.a(lib_a-fwalk.o)
 .bss           0x0084dd6c        0x0 c:/altera/13.0sp1/nios2eds/bin/gnu/h-i686-mingw32/bin/../lib/gcc/nios2-elf/4.1.2/../../../../nios2-elf/lib\libc.a(lib_a-gettimeofdayr.o)
 .bss           0x0084dd6c        0x0 c:/altera/13.0sp1/nios2eds/bin/gnu/h-i686-mingw32/bin/../lib/gcc/nios2-elf/4.1.2/../../../../nios2-elf/lib\libc.a(lib_a-int_errno.o)
 .bss           0x0084dd6c        0x0 c:/altera/13.0sp1/nios2eds/bin/gnu/h-i686-mingw32/bin/../lib/gcc/nios2-elf/4.1.2/../../../../nios2-elf/lib\libc.a(lib_a-locale.o)
 .bss           0x0084dd6c        0x0 c:/altera/13.0sp1/nios2eds/bin/gnu/h-i686-mingw32/bin/../lib/gcc/nios2-elf/4.1.2/../../../../nios2-elf/lib\libc.a(lib_a-makebuf.o)
 .bss           0x0084dd6c       0x28 c:/altera/13.0sp1/nios2eds/bin/gnu/h-i686-mingw32/bin/../lib/gcc/nios2-elf/4.1.2/../../../../nios2-elf/lib\libc.a(lib_a-mallocr.o)
                0x0084dd6c                __malloc_current_mallinfo
 .bss           0x0084dd94        0x0 c:/altera/13.0sp1/nios2eds/bin/gnu/h-i686-mingw32/bin/../lib/gcc/nios2-elf/4.1.2/../../../../nios2-elf/lib\libc.a(lib_a-memchr.o)
 .bss           0x0084dd94        0x0 c:/altera/13.0sp1/nios2eds/bin/gnu/h-i686-mingw32/bin/../lib/gcc/nios2-elf/4.1.2/../../../../nios2-elf/lib\libc.a(lib_a-mprec.o)
 .bss           0x0084dd94        0x0 c:/altera/13.0sp1/nios2eds/bin/gnu/h-i686-mingw32/bin/../lib/gcc/nios2-elf/4.1.2/../../../../nios2-elf/lib\libc.a(lib_a-reallocr.o)
 .bss           0x0084dd94        0x0 c:/altera/13.0sp1/nios2eds/bin/gnu/h-i686-mingw32/bin/../lib/gcc/nios2-elf/4.1.2/../../../../nios2-elf/lib\libc.a(lib_a-refill.o)
 .bss           0x0084dd94        0x0 c:/altera/13.0sp1/nios2eds/bin/gnu/h-i686-mingw32/bin/../lib/gcc/nios2-elf/4.1.2/../../../../nios2-elf/lib\libc.a(lib_a-s_isinfd.o)
 .bss           0x0084dd94        0x0 c:/altera/13.0sp1/nios2eds/bin/gnu/h-i686-mingw32/bin/../lib/gcc/nios2-elf/4.1.2/../../../../nios2-elf/lib\libc.a(lib_a-s_isnand.o)
 .bss           0x0084dd94        0x0 c:/altera/13.0sp1/nios2eds/bin/gnu/h-i686-mingw32/bin/../lib/gcc/nios2-elf/4.1.2/../../../../nios2-elf/lib\libc.a(lib_a-sbrkr.o)
 .bss           0x0084dd94        0x0 c:/altera/13.0sp1/nios2eds/bin/gnu/h-i686-mingw32/bin/../lib/gcc/nios2-elf/4.1.2/../../../../nios2-elf/lib\libc.a(lib_a-stdio.o)
 .bss           0x0084dd94        0x0 c:/altera/13.0sp1/nios2eds/bin/gnu/h-i686-mingw32/bin/../lib/gcc/nios2-elf/4.1.2/../../../../nios2-elf/lib\libc.a(lib_a-writer.o)
 .bss           0x0084dd94        0x0 c:/altera/13.0sp1/nios2eds/bin/gnu/h-i686-mingw32/bin/../lib/gcc/nios2-elf/4.1.2/../../../../nios2-elf/lib\libc.a(lib_a-callocr.o)
 .bss           0x0084dd94        0x0 c:/altera/13.0sp1/nios2eds/bin/gnu/h-i686-mingw32/bin/../lib/gcc/nios2-elf/4.1.2/../../../../nios2-elf/lib\libc.a(lib_a-closer.o)
 .bss           0x0084dd94        0x0 c:/altera/13.0sp1/nios2eds/bin/gnu/h-i686-mingw32/bin/../lib/gcc/nios2-elf/4.1.2/../../../../nios2-elf/lib\libc.a(lib_a-fclose.o)
 .bss           0x0084dd94        0x0 c:/altera/13.0sp1/nios2eds/bin/gnu/h-i686-mingw32/bin/../lib/gcc/nios2-elf/4.1.2/../../../../nios2-elf/lib\libc.a(lib_a-fstatr.o)
 .bss           0x0084dd94        0x0 c:/altera/13.0sp1/nios2eds/bin/gnu/h-i686-mingw32/bin/../lib/gcc/nios2-elf/4.1.2/../../../../nios2-elf/lib\libc.a(lib_a-isattyr.o)
 .bss           0x0084dd94        0x0 c:/altera/13.0sp1/nios2eds/bin/gnu/h-i686-mingw32/bin/../lib/gcc/nios2-elf/4.1.2/../../../../nios2-elf/lib\libc.a(lib_a-lseekr.o)
 .bss           0x0084dd94        0x0 c:/altera/13.0sp1/nios2eds/bin/gnu/h-i686-mingw32/bin/../lib/gcc/nios2-elf/4.1.2/../../../../nios2-elf/lib\libc.a(lib_a-readr.o)
 .bss           0x0084dd94        0x0 c:/altera/13.0sp1/nios2eds/bin/gnu/h-i686-mingw32/bin/../lib/gcc/nios2-elf/4.1.2\libgcc.a(_udivdi3.o)
 .bss           0x0084dd94        0x0 c:/altera/13.0sp1/nios2eds/bin/gnu/h-i686-mingw32/bin/../lib/gcc/nios2-elf/4.1.2\libgcc.a(_umoddi3.o)
 .bss           0x0084dd94        0x0 c:/altera/13.0sp1/nios2eds/bin/gnu/h-i686-mingw32/bin/../lib/gcc/nios2-elf/4.1.2\libgcc.a(_div_df.o)
 .bss           0x0084dd94        0x0 c:/altera/13.0sp1/nios2eds/bin/gnu/h-i686-mingw32/bin/../lib/gcc/nios2-elf/4.1.2\libgcc.a(_eq_df.o)
 .bss           0x0084dd94        0x0 c:/altera/13.0sp1/nios2eds/bin/gnu/h-i686-mingw32/bin/../lib/gcc/nios2-elf/4.1.2\libgcc.a(_ne_df.o)
 .bss           0x0084dd94        0x0 c:/altera/13.0sp1/nios2eds/bin/gnu/h-i686-mingw32/bin/../lib/gcc/nios2-elf/4.1.2\libgcc.a(_gt_df.o)
 .bss           0x0084dd94        0x0 c:/altera/13.0sp1/nios2eds/bin/gnu/h-i686-mingw32/bin/../lib/gcc/nios2-elf/4.1.2\libgcc.a(_lt_df.o)
 .bss           0x0084dd94        0x0 c:/altera/13.0sp1/nios2eds/bin/gnu/h-i686-mingw32/bin/../lib/gcc/nios2-elf/4.1.2\libgcc.a(_si_to_df.o)
 .bss           0x0084dd94        0x0 c:/altera/13.0sp1/nios2eds/bin/gnu/h-i686-mingw32/bin/../lib/gcc/nios2-elf/4.1.2\libgcc.a(lib2-divmod.o)
 .bss           0x0084dd94        0x0 ../rtc_socket_bsp/\libucosii_bsp.a(alt_exit.o)
 .bss           0x0084dd94        0x0 ../rtc_socket_bsp/\libucosii_bsp.a(alt_flash_dev.o)
 .bss           0x0084dd94        0x0 ../rtc_socket_bsp/\libucosii_bsp.a(alt_fstat.o)
 .bss           0x0084dd94        0x0 ../rtc_socket_bsp/\libucosii_bsp.a(alt_gettod.o)
 .bss           0x0084dd94        0x0 ../rtc_socket_bsp/\libucosii_bsp.a(alt_irq_register.o)
 .bss           0x0084dd94        0x0 ../rtc_socket_bsp/\libucosii_bsp.a(alt_irq_vars.o)
 .bss           0x0084dd94        0x0 ../rtc_socket_bsp/\libucosii_bsp.a(alt_isatty.o)
 .bss           0x0084dd94        0x0 ../rtc_socket_bsp/\libucosii_bsp.a(alt_lseek.o)
 .bss           0x0084dd94        0x0 ../rtc_socket_bsp/\libucosii_bsp.a(alt_main.o)
 .bss           0x0084dd94        0x0 ../rtc_socket_bsp/\libucosii_bsp.a(alt_sbrk.o)
 .bss           0x0084dd94        0x0 ../rtc_socket_bsp/\libucosii_bsp.a(alt_tick.o)
 .bss           0x0084dd94        0x0 ../rtc_socket_bsp/\libucosii_bsp.a(alt_usleep.o)
 .bss           0x0084dd94        0x0 ../rtc_socket_bsp/\libucosii_bsp.a(alt_env_lock.o)
 .bss           0x0084dd94        0x0 ../rtc_socket_bsp/\libucosii_bsp.a(alt_malloc_lock.o)
 .bss           0x0084dd94        0x0 ../rtc_socket_bsp/\libucosii_bsp.a(os_core.o)
 .bss           0x0084dd94        0x0 ../rtc_socket_bsp/\libucosii_bsp.a(os_dbg.o)
 .bss           0x0084dd94        0x0 ../rtc_socket_bsp/\libucosii_bsp.a(os_flag.o)
 .bss           0x0084dd94        0x0 ../rtc_socket_bsp/\libucosii_bsp.a(os_mem.o)
 .bss           0x0084dd94        0x0 ../rtc_socket_bsp/\libucosii_bsp.a(os_q.o)
 .bss           0x0084dd94        0x0 ../rtc_socket_bsp/\libucosii_bsp.a(os_sem.o)
 .bss           0x0084dd94        0x0 ../rtc_socket_bsp/\libucosii_bsp.a(os_task.o)
 .bss           0x0084dd94        0x0 ../rtc_socket_bsp/\libucosii_bsp.a(os_time.o)
 .bss           0x0084dd94        0x0 ../rtc_socket_bsp/\libucosii_bsp.a(alt_sys_init.o)
 .bss           0x0084dd94        0x0 ../rtc_socket_bsp/\libucosii_bsp.a(altera_avalon_cfi_flash.o)
 .bss           0x0084dd94        0x0 ../rtc_socket_bsp/\libucosii_bsp.a(altera_avalon_cfi_flash_table.o)
 .bss           0x0084dd94        0x0 ../rtc_socket_bsp/\libucosii_bsp.a(altera_avalon_epcs_flash_controller.o)
 .bss           0x0084dd94        0x0 ../rtc_socket_bsp/\libucosii_bsp.a(altera_avalon_jtag_uart_fd.o)
 .bss           0x0084dd94        0x0 ../rtc_socket_bsp/\libucosii_bsp.a(altera_avalon_jtag_uart_init.o)
 .bss           0x0084dd94        0x0 ../rtc_socket_bsp/\libucosii_bsp.a(altera_avalon_jtag_uart_ioctl.o)
 .bss           0x0084dd94        0x0 ../rtc_socket_bsp/\libucosii_bsp.a(altera_avalon_jtag_uart_read.o)
 .bss           0x0084dd94        0x0 ../rtc_socket_bsp/\libucosii_bsp.a(altera_avalon_jtag_uart_write.o)
 .bss           0x0084dd94        0x0 ../rtc_socket_bsp/\libucosii_bsp.a(altera_avalon_lcd_16207.o)
 .bss           0x0084dd94        0x0 ../rtc_socket_bsp/\libucosii_bsp.a(altera_avalon_lcd_16207_fd.o)
 .bss           0x0084dd94        0x0 ../rtc_socket_bsp/\libucosii_bsp.a(altera_avalon_timer_sc.o)
 .bss           0x0084dd94        0x0 ../rtc_socket_bsp/\libucosii_bsp.a(altera_avalon_uart_fd.o)
 .bss           0x0084dd94        0x0 ../rtc_socket_bsp/\libucosii_bsp.a(altera_avalon_uart_init.o)
 .bss           0x0084dd94        0x0 ../rtc_socket_bsp/\libucosii_bsp.a(altera_avalon_uart_read.o)
 .bss           0x0084dd94        0x0 ../rtc_socket_bsp/\libucosii_bsp.a(altera_avalon_uart_write.o)
 .bss           0x0084dd94        0x0 ../rtc_socket_bsp/\libucosii_bsp.a(epcs_commands.o)
 .bss           0x0084dd94        0x0 ../rtc_socket_bsp/\libucosii_bsp.a(alt_iniche_close.o)
 .bss           0x0084dd94        0x0 ../rtc_socket_bsp/\libucosii_bsp.a(alt_iniche_dev.o)
 .bss           0x0084dd94        0x0 ../rtc_socket_bsp/\libucosii_bsp.a(alt_iniche_read.o)
 .bss           0x0084dd94        0x0 ../rtc_socket_bsp/\libucosii_bsp.a(alt_iniche_write.o)
 .bss           0x0084dd94        0x0 ../rtc_socket_bsp/\libucosii_bsp.a(ipnet.o)
 .bss           0x0084dd94       0x3c ../rtc_socket_bsp/\libucosii_bsp.a(ipstart.o)
 .bss           0x0084ddd0        0x0 ../rtc_socket_bsp/\libucosii_bsp.a(igmp_cmn.o)
 .bss           0x0084ddd0        0x0 ../rtc_socket_bsp/\libucosii_bsp.a(bsdsock.o)
 .bss           0x0084ddd0        0x0 ../rtc_socket_bsp/\libucosii_bsp.a(cksum.o)
 .bss           0x0084ddd0       0x18 ../rtc_socket_bsp/\libucosii_bsp.a(in_utils.o)
 .bss           0x0084dde8        0x0 ../rtc_socket_bsp/\libucosii_bsp.a(netmain.o)
 .bss           0x0084dde8       0x1e ../rtc_socket_bsp/\libucosii_bsp.a(parseip.o)
 .bss           0x0084de06        0x0 ../rtc_socket_bsp/\libucosii_bsp.a(tk_crnos.o)
 .bss           0x0084de06        0x0 ../rtc_socket_bsp/\libucosii_bsp.a(dhcpclnt.o)
 .bss           0x0084de06        0x0 ../rtc_socket_bsp/\libucosii_bsp.a(dhcputil.o)
 .bss           0x0084de06        0x0 ../rtc_socket_bsp/\libucosii_bsp.a(pktalloc.o)
 .bss           0x0084de06        0x0 ../rtc_socket_bsp/\libucosii_bsp.a(q.o)
 .bss           0x0084de06        0x0 ../rtc_socket_bsp/\libucosii_bsp.a(udp_open.o)
 .bss           0x0084de06        0x0 ../rtc_socket_bsp/\libucosii_bsp.a(asm_cksum.o)
 .bss           0x0084de06        0x0 ../rtc_socket_bsp/\libucosii_bsp.a(brdutils.o)
 .bss           0x0084de06        0x0 ../rtc_socket_bsp/\libucosii_bsp.a(osportco.o)
 .bss           0x0084de06        0x0 ../rtc_socket_bsp/\libucosii_bsp.a(targnios.o)
 .bss           0x0084de06        0x0 ../rtc_socket_bsp/\libucosii_bsp.a(nptcp.o)
 .bss           0x0084de06        0x0 ../rtc_socket_bsp/\libucosii_bsp.a(rawsock.o)
 .bss           0x0084de06        0x0 ../rtc_socket_bsp/\libucosii_bsp.a(sockcall.o)
 .bss           0x0084de06        0x0 ../rtc_socket_bsp/\libucosii_bsp.a(socket.o)
 .bss           0x0084de06        0x0 ../rtc_socket_bsp/\libucosii_bsp.a(socket2.o)
 .bss           0x0084de06        0x0 ../rtc_socket_bsp/\libucosii_bsp.a(soselect.o)
 .bss           0x0084de06        0x0 ../rtc_socket_bsp/\libucosii_bsp.a(tcp_in.o)
 .bss           0x0084de06        0x0 ../rtc_socket_bsp/\libucosii_bsp.a(tcp_out.o)
 .bss           0x0084de06        0x0 ../rtc_socket_bsp/\libucosii_bsp.a(tcp_subr.o)
 .bss           0x0084de06        0x0 ../rtc_socket_bsp/\libucosii_bsp.a(tcp_timr.o)
 .bss           0x0084de06        0x0 ../rtc_socket_bsp/\libucosii_bsp.a(tcp_usr.o)
 .bss           0x0084de06        0x0 ../rtc_socket_bsp/\libucosii_bsp.a(tcpport.o)
 .bss           0x0084de06        0x0 ../rtc_socket_bsp/\libucosii_bsp.a(udpsock.o)
 .bss           0x0084de06        0x0 ../rtc_socket_bsp/\libucosii_bsp.a(alt_alarm_start.o)
 .bss           0x0084de06        0x0 ../rtc_socket_bsp/\libucosii_bsp.a(alt_busy_sleep.o)
 .bss           0x0084de06        0x0 ../rtc_socket_bsp/\libucosii_bsp.a(alt_close.o)
 .bss           0x0084de06        0x0 ../rtc_socket_bsp/\libucosii_bsp.a(alt_dcache_flush.o)
 .bss           0x0084de06        0x0 ../rtc_socket_bsp/\libucosii_bsp.a(alt_dev.o)
 .bss           0x0084de06        0x0 ../rtc_socket_bsp/\libucosii_bsp.a(alt_dev_llist_insert.o)
 .bss           0x0084de06        0x0 ../rtc_socket_bsp/\libucosii_bsp.a(alt_do_ctors.o)
 .bss           0x0084de06        0x0 ../rtc_socket_bsp/\libucosii_bsp.a(alt_do_dtors.o)
 .bss           0x0084de06        0x0 ../rtc_socket_bsp/\libucosii_bsp.a(alt_errno.o)
 .bss           0x0084de06        0x0 ../rtc_socket_bsp/\libucosii_bsp.a(alt_find_dev.o)
 .bss           0x0084de06        0x0 ../rtc_socket_bsp/\libucosii_bsp.a(alt_iic.o)
 .bss           0x0084de06        0x0 ../rtc_socket_bsp/\libucosii_bsp.a(alt_iic_isr_register.o)
 .bss           0x0084de06        0x0 ../rtc_socket_bsp/\libucosii_bsp.a(alt_io_redirect.o)
 .bss           0x0084de06        0x0 ../rtc_socket_bsp/\libucosii_bsp.a(alt_irq_entry.o)
 .bss           0x0084de06        0x0 ../rtc_socket_bsp/\libucosii_bsp.a(alt_irq_handler.o)
 .bss           0x0084de06        0x0 ../rtc_socket_bsp/\libucosii_bsp.a(alt_open.o)
 .bss           0x0084de06        0x0 ../rtc_socket_bsp/\libucosii_bsp.a(alt_read.o)
 .bss           0x0084de06        0x0 ../rtc_socket_bsp/\libucosii_bsp.a(alt_release_fd.o)
 .bss           0x0084de06        0x0 ../rtc_socket_bsp/\libucosii_bsp.a(alt_remap_cached.o)
 .bss           0x0084de06        0x0 ../rtc_socket_bsp/\libucosii_bsp.a(alt_remap_uncached.o)
 .bss           0x0084de06        0x0 ../rtc_socket_bsp/\libucosii_bsp.a(alt_write.o)
 .bss           0x0084de06        0x0 ../rtc_socket_bsp/\libucosii_bsp.a(altera_nios2_qsys_irq.o)
 .bss           0x0084de06        0x0 ../rtc_socket_bsp/\libucosii_bsp.a(os_cpu_a.o)
 .bss           0x0084de06        0x0 ../rtc_socket_bsp/\libucosii_bsp.a(os_cpu_c.o)
 .bss           0x0084de06        0x0 ../rtc_socket_bsp/\libucosii_bsp.a(altera_avalon_cfi_flash_amd.o)
 .bss           0x0084de06        0x0 ../rtc_socket_bsp/\libucosii_bsp.a(altera_avalon_cfi_flash_intel.o)
 .bss           0x0084de06        0x0 ../rtc_socket_bsp/\libucosii_bsp.a(altera_avalon_spi.o)
 .bss           0x0084de06        0x0 ../rtc_socket_bsp/\libucosii_bsp.a(allports.o)
 .bss           0x0084de06        0x0 ../rtc_socket_bsp/\libucosii_bsp.a(timeouts.o)
 .bss           0x0084de06        0x0 ../rtc_socket_bsp/\libucosii_bsp.a(tk_misc.o)
 .bss           0x0084de06        0x0 ../rtc_socket_bsp/\libucosii_bsp.a(alt_iniche_fcntl.o)
 .bss           0x0084de06        0x0 ../rtc_socket_bsp/\libucosii_bsp.a(et_arp.o)
 .bss           0x0084de06        0x0 ../rtc_socket_bsp/\libucosii_bsp.a(iface.o)
 .bss           0x0084de06        0x0 ../rtc_socket_bsp/\libucosii_bsp.a(ip.o)
 .bss           0x0084de06        0x0 ../rtc_socket_bsp/\libucosii_bsp.a(ip_reasm.o)
 .bss           0x0084de06        0x0 ../rtc_socket_bsp/\libucosii_bsp.a(ipdemux.o)
 .bss           0x0084de06        0x0 ../rtc_socket_bsp/\libucosii_bsp.a(ipmc.o)
 .bss           0x0084de06        0x0 ../rtc_socket_bsp/\libucosii_bsp.a(ipport.o)
 .bss           0x0084de06        0x0 ../rtc_socket_bsp/\libucosii_bsp.a(ipraw.o)
 .bss           0x0084de06        0x0 ../rtc_socket_bsp/\libucosii_bsp.a(iproute.o)
 .bss           0x0084de06        0x0 ../rtc_socket_bsp/\libucosii_bsp.a(udp.o)
 .bss           0x0084de06        0x0 ../rtc_socket_bsp/\libucosii_bsp.a(igmp.o)
 .bss           0x0084de06        0x0 ../rtc_socket_bsp/\libucosii_bsp.a(igmp2.o)
 .bss           0x0084de06        0x0 ../rtc_socket_bsp/\libucosii_bsp.a(ipopt.o)
 .bss           0x0084de06        0x0 ../rtc_socket_bsp/\libucosii_bsp.a(u_mctest.o)
 .bss           0x0084de06        0x0 ../rtc_socket_bsp/\libucosii_bsp.a(dhcsetup.o)
 .bss           0x0084de06        0x0 ../rtc_socket_bsp/\libucosii_bsp.a(memdev.o)
 .bss           0x0084de06        0x0 ../rtc_socket_bsp/\libucosii_bsp.a(tcpcksum.o)
 .bss           0x0084de06        0x0 ../rtc_socket_bsp/\libucosii_bsp.a(in_pcb.o)
 .bss           0x0084de06        0x0 ../rtc_socket_bsp/\libucosii_bsp.a(vfsfiles.o)
 .bss           0x0084de06        0x0 ../rtc_socket_bsp/\libucosii_bsp.a(vfsport.o)
 .bss           0x0084de06        0x0 ../rtc_socket_bsp/\libucosii_bsp.a(alt_exception_entry.o)
 .bss           0x0084de06        0x0 ../rtc_socket_bsp/\libucosii_bsp.a(alt_fcntl.o)
 .bss           0x0084de06        0x0 ../rtc_socket_bsp/\libucosii_bsp.a(alt_find_file.o)
 .bss           0x0084de06        0x0 ../rtc_socket_bsp/\libucosii_bsp.a(alt_get_fd.o)
 .bss           0x0084de06        0x0 ../rtc_socket_bsp/\libucosii_bsp.a(icmp.o)
 .bss           0x0084de06        0x0 c:/altera/13.0sp1/nios2eds/bin/gnu/h-i686-mingw32/bin/../lib/gcc/nios2-elf/4.1.2/../../../../nios2-elf/lib\libc.a(lib_a-atexit.o)
 .bss           0x0084de06        0x0 c:/altera/13.0sp1/nios2eds/bin/gnu/h-i686-mingw32/bin/../lib/gcc/nios2-elf/4.1.2/../../../../nios2-elf/lib\libc.a(lib_a-calloc.o)
 .bss           0x0084de06        0x0 c:/altera/13.0sp1/nios2eds/bin/gnu/h-i686-mingw32/bin/../lib/gcc/nios2-elf/4.1.2/../../../../nios2-elf/lib\libc.a(lib_a-malloc.o)
 .bss           0x0084de06        0x0 c:/altera/13.0sp1/nios2eds/bin/gnu/h-i686-mingw32/bin/../lib/gcc/nios2-elf/4.1.2/../../../../nios2-elf/lib\libc.a(lib_a-memcmp.o)
 .bss           0x0084de06        0x0 c:/altera/13.0sp1/nios2eds/bin/gnu/h-i686-mingw32/bin/../lib/gcc/nios2-elf/4.1.2/../../../../nios2-elf/lib\libc.a(lib_a-strcpy.o)
 .bss           0x0084de06        0x0 c:/altera/13.0sp1/nios2eds/bin/gnu/h-i686-mingw32/bin/../lib/gcc/nios2-elf/4.1.2/../../../../nios2-elf/lib\libc.a(lib_a-strncmp.o)
 .bss           0x0084de06        0x0 c:/altera/13.0sp1/nios2eds/bin/gnu/h-i686-mingw32/bin/../lib/gcc/nios2-elf/4.1.2/../../../../nios2-elf/lib\libc.a(lib_a-strncpy.o)
 .bss           0x0084de06        0x0 c:/altera/13.0sp1/nios2eds/bin/gnu/h-i686-mingw32/bin/../lib/gcc/nios2-elf/4.1.2/../../../../nios2-elf/lib\libc.a(lib_a-vprintf.o)
 .bss           0x0084de06        0x0 c:/altera/13.0sp1/nios2eds/bin/gnu/h-i686-mingw32/bin/../lib/gcc/nios2-elf/4.1.2/../../../../nios2-elf/lib\libc.a(lib_a-vsprintf.o)
 .bss           0x0084de06        0x0 c:/altera/13.0sp1/nios2eds/bin/gnu/h-i686-mingw32/bin/../lib/gcc/nios2-elf/4.1.2/../../../../nios2-elf/lib\libc.a(lib_a-__atexit.o)
 *(COMMON)
 *fill*         0x0084de06        0x2 00
 COMMON         0x0084de08       0x44 obj/default/dm9000a.o
                0x0084de08                g_dm9ka
 COMMON         0x0084de4c     0x4000 obj/default/iniche_init.o
                0x0084de4c                SSSInitialTaskStk2
                0x0084fe4c                SSSInitialTaskStk
 COMMON         0x00851e4c     0x4078 obj/default/simple_socket_server.o
                0x00851e4c                LED7SegLightshowTaskStk
                0x00853e4c                SSSLEDCommandQTbl
                0x00853ec4                LEDManagementTaskStk
 COMMON         0x00855ec4     0x3224 ../rtc_socket_bsp/\libucosii_bsp.a(os_core.o)
                0x00855ec4                OSFlagTbl
                0x00856234                OSMemTbl
                0x00856e64                OSTaskStatStk
                0x00857664                OSQTbl
                0x00857844                OSTaskIdleStk
                0x00858044                OSEventTbl
                0x00858b84                OSTCBTbl
                0x00859094                OSTCBPrioTbl
 COMMON         0x008590e8       0x14 ../rtc_socket_bsp/\libucosii_bsp.a(ipnet.o)
                0x008590e8                rcvdq
 COMMON         0x008590fc      0x310 ../rtc_socket_bsp/\libucosii_bsp.a(ipstart.o)
                0x008590fc                netstatic
                0x008593fc                nets
 COMMON         0x0085940c       0x64 ../rtc_socket_bsp/\libucosii_bsp.a(igmp_cmn.o)
                0x0085940c                igmpstats
 COMMON         0x00859470       0x24 ../rtc_socket_bsp/\libucosii_bsp.a(in_utils.o)
                0x00859470                eth_prt_buf
                0x00859482                ipreturn
 COMMON         0x00859494       0xf0 ../rtc_socket_bsp/\libucosii_bsp.a(dhcpclnt.o)
                0x00859494                dhc_states
 COMMON         0x00859584      0x128 ../rtc_socket_bsp/\libucosii_bsp.a(pktalloc.o)
                0x00859584                lilfreeq
                0x00859598                memestats
                0x008595a8                pktlog
                0x00859698                bigfreeq
 COMMON         0x008596ac      0x1ec ../rtc_socket_bsp/\libucosii_bsp.a(osportco.o)
                0x008596ac                global_tcb_ext
                0x008597a8                global_TCPwakeup_set
 COMMON         0x00859898       0x58 ../rtc_socket_bsp/\libucosii_bsp.a(targnios.o)
                0x00859898                resid_semaphore
                0x008598d8                app_semaphore
 COMMON         0x008598f0       0x78 ../rtc_socket_bsp/\libucosii_bsp.a(nptcp.o)
                0x008598f0                soq
                0x00859904                tcpmib
                0x00859940                mbufq
                0x00859954                mfreeq
 COMMON         0x00859968       0x28 ../rtc_socket_bsp/\libucosii_bsp.a(tcp_in.o)
                0x00859968                tcp_saveti
 COMMON         0x00859990      0x10c ../rtc_socket_bsp/\libucosii_bsp.a(tcp_subr.o)
                0x00859990                tcb
                0x008599bc                tcpstat
 COMMON         0x00859a9c      0x100 ../rtc_socket_bsp/\libucosii_bsp.a(alt_irq_handler.o)
                0x00859a9c                alt_irq
 COMMON         0x00859b9c       0x64 ../rtc_socket_bsp/\libucosii_bsp.a(timeouts.o)
                0x00859b9c                intimers
 COMMON         0x00859c00      0x100 ../rtc_socket_bsp/\libucosii_bsp.a(et_arp.o)
                0x00859c00                arp_table
 COMMON         0x00859d00       0x14 ../rtc_socket_bsp/\libucosii_bsp.a(iface.o)
                0x00859d00                netlist
 COMMON         0x00859d14       0x50 ../rtc_socket_bsp/\libucosii_bsp.a(ip.o)
                0x00859d14                ip_mib
 COMMON         0x00859d64       0x18 ../rtc_socket_bsp/\libucosii_bsp.a(ip_reasm.o)
                0x00859d64                ire_stats
 COMMON         0x00859d7c       0x10 ../rtc_socket_bsp/\libucosii_bsp.a(udp.o)
                0x00859d7c                udp_mib
 COMMON         0x00859d8c       0x68 ../rtc_socket_bsp/\libucosii_bsp.a(icmp.o)
                0x00859d8c                icmp_mib
 COMMON         0x00859df4      0x190 c:/altera/13.0sp1/nios2eds/bin/gnu/h-i686-mingw32/bin/../lib/gcc/nios2-elf/4.1.2/../../../../nios2-elf/lib\libc.a(lib_a-atexit.o)
                0x00859df4                _atexit0
                0x00859f84                . = ALIGN (0x4)
                0x00859f84                __bss_end = ABSOLUTE (.)

.sdram_0        0x00859f84        0x0
                0x00859f84                PROVIDE (_alt_partition_sdram_0_start, ABSOLUTE (.))
 *(.sdram_0. sdram_0.*)
                0x00859f84                . = ALIGN (0x4)
                0x00859f84                PROVIDE (_alt_partition_sdram_0_end, ABSOLUTE (.))
                0x00859f84                _end = ABSOLUTE (.)
                0x00859f84                end = ABSOLUTE (.)
                0x00859f84                __alt_stack_base = ABSOLUTE (.)
                0x00859f84                PROVIDE (_alt_partition_sdram_0_load_addr, LOADADDR (.sdram_0))

.cfi_flash_0    0x01400020        0x0
                0x01400020                PROVIDE (_alt_partition_cfi_flash_0_start, ABSOLUTE (.))
 *(.cfi_flash_0. cfi_flash_0.*)
                0x01400020                . = ALIGN (0x4)
                0x01400020                PROVIDE (_alt_partition_cfi_flash_0_end, ABSOLUTE (.))
                0x01400020                PROVIDE (_alt_partition_cfi_flash_0_load_addr, LOADADDR (.cfi_flash_0))

.sram_0         0x01a00000        0x0
                0x01a00000                PROVIDE (_alt_partition_sram_0_start, ABSOLUTE (.))
 *(.sram_0. sram_0.*)
                0x01a00000                . = ALIGN (0x4)
                0x01a00000                PROVIDE (_alt_partition_sram_0_end, ABSOLUTE (.))
                0x01a00000                PROVIDE (_alt_partition_sram_0_load_addr, LOADADDR (.sram_0))

.epcs_controller
                0x01a81800        0x0
                0x01a81800                PROVIDE (_alt_partition_epcs_controller_start, ABSOLUTE (.))
 *(.epcs_controller. epcs_controller.*)
                0x01a81800                . = ALIGN (0x4)
                0x01a81800                PROVIDE (_alt_partition_epcs_controller_end, ABSOLUTE (.))
                0x01a81800                PROVIDE (_alt_partition_epcs_controller_load_addr, LOADADDR (.epcs_controller))

.stab
 *(.stab)

.stabstr
 *(.stabstr)

.stab.excl
 *(.stab.excl)

.stab.exclstr
 *(.stab.exclstr)

.stab.index
 *(.stab.index)

.stab.indexstr
 *(.stab.indexstr)

.comment        0x00000000       0x26
 *(.comment)
 .comment       0x00000000       0x26 obj/default/LCD.o
                                 0x27 (size before relaxing)
 .comment       0x00000000       0x27 obj/default/SSS_DE2_115.o
 .comment       0x00000000       0x27 obj/default/alt_error_handler.o
 .comment       0x00000000       0x27 obj/default/dm9000a.o
 .comment       0x00000000       0x27 obj/default/iniche_init.o
 .comment       0x00000000       0x27 obj/default/led.o
 .comment       0x00000000       0x27 obj/default/network_utilities.o
 .comment       0x00000000       0x27 obj/default/simple_socket_server.o
 .comment       0x00000000       0x27 obj/default/tse_my_system.o
 .comment       0x00000000       0x27 c:/altera/13.0sp1/nios2eds/bin/gnu/h-i686-mingw32/bin/../lib/gcc/nios2-elf/4.1.2\libgcc.a(_fixunsdfsi.o)
 .comment       0x00000000       0x27 c:/altera/13.0sp1/nios2eds/bin/gnu/h-i686-mingw32/bin/../lib/gcc/nios2-elf/4.1.2\libgcc.a(_addsub_df.o)
 .comment       0x00000000       0x27 c:/altera/13.0sp1/nios2eds/bin/gnu/h-i686-mingw32/bin/../lib/gcc/nios2-elf/4.1.2\libgcc.a(_mul_df.o)
 .comment       0x00000000       0x27 c:/altera/13.0sp1/nios2eds/bin/gnu/h-i686-mingw32/bin/../lib/gcc/nios2-elf/4.1.2\libgcc.a(_ge_df.o)
 .comment       0x00000000       0x27 c:/altera/13.0sp1/nios2eds/bin/gnu/h-i686-mingw32/bin/../lib/gcc/nios2-elf/4.1.2\libgcc.a(_df_to_si.o)
 .comment       0x00000000       0x27 c:/altera/13.0sp1/nios2eds/bin/gnu/h-i686-mingw32/bin/../lib/gcc/nios2-elf/4.1.2\libgcc.a(_thenan_df.o)
 .comment       0x00000000       0x27 c:/altera/13.0sp1/nios2eds/bin/gnu/h-i686-mingw32/bin/../lib/gcc/nios2-elf/4.1.2\libgcc.a(_usi_to_df.o)
 .comment       0x00000000       0x27 c:/altera/13.0sp1/nios2eds/bin/gnu/h-i686-mingw32/bin/../lib/gcc/nios2-elf/4.1.2\libgcc.a(_muldi3.o)
 .comment       0x00000000       0x27 c:/altera/13.0sp1/nios2eds/bin/gnu/h-i686-mingw32/bin/../lib/gcc/nios2-elf/4.1.2\libgcc.a(_clzsi2.o)
 .comment       0x00000000       0x27 c:/altera/13.0sp1/nios2eds/bin/gnu/h-i686-mingw32/bin/../lib/gcc/nios2-elf/4.1.2\libgcc.a(_pack_df.o)
 .comment       0x00000000       0x27 c:/altera/13.0sp1/nios2eds/bin/gnu/h-i686-mingw32/bin/../lib/gcc/nios2-elf/4.1.2\libgcc.a(_unpack_df.o)
 .comment       0x00000000       0x27 c:/altera/13.0sp1/nios2eds/bin/gnu/h-i686-mingw32/bin/../lib/gcc/nios2-elf/4.1.2\libgcc.a(_fpcmp_parts_df.o)
 .comment       0x00000000       0x27 c:/altera/13.0sp1/nios2eds/bin/gnu/h-i686-mingw32/bin/../lib/gcc/nios2-elf/4.1.2\libgcc.a(_clz.o)
 .comment       0x00000000       0x27 c:/altera/13.0sp1/nios2eds/bin/gnu/h-i686-mingw32/bin/../lib/gcc/nios2-elf/4.1.2/../../../../nios2-elf/lib\libc.a(lib_a-atoi.o)
 .comment       0x00000000       0x27 c:/altera/13.0sp1/nios2eds/bin/gnu/h-i686-mingw32/bin/../lib/gcc/nios2-elf/4.1.2/../../../../nios2-elf/lib\libc.a(lib_a-ctype_.o)
 .comment       0x00000000       0x27 c:/altera/13.0sp1/nios2eds/bin/gnu/h-i686-mingw32/bin/../lib/gcc/nios2-elf/4.1.2/../../../../nios2-elf/lib\libc.a(lib_a-errno.o)
 .comment       0x00000000       0x27 c:/altera/13.0sp1/nios2eds/bin/gnu/h-i686-mingw32/bin/../lib/gcc/nios2-elf/4.1.2/../../../../nios2-elf/lib\libc.a(lib_a-exit.o)
 .comment       0x00000000       0x27 c:/altera/13.0sp1/nios2eds/bin/gnu/h-i686-mingw32/bin/../lib/gcc/nios2-elf/4.1.2/../../../../nios2-elf/lib\libc.a(lib_a-fprintf.o)
 .comment       0x00000000       0x27 c:/altera/13.0sp1/nios2eds/bin/gnu/h-i686-mingw32/bin/../lib/gcc/nios2-elf/4.1.2/../../../../nios2-elf/lib\libc.a(lib_a-fwrite.o)
 .comment       0x00000000       0x27 c:/altera/13.0sp1/nios2eds/bin/gnu/h-i686-mingw32/bin/../lib/gcc/nios2-elf/4.1.2/../../../../nios2-elf/lib\libc.a(lib_a-getc.o)
 .comment       0x00000000       0x27 c:/altera/13.0sp1/nios2eds/bin/gnu/h-i686-mingw32/bin/../lib/gcc/nios2-elf/4.1.2/../../../../nios2-elf/lib\libc.a(lib_a-impure.o)
 .comment       0x00000000       0x27 c:/altera/13.0sp1/nios2eds/bin/gnu/h-i686-mingw32/bin/../lib/gcc/nios2-elf/4.1.2/../../../../nios2-elf/lib\libc.a(lib_a-memcpy.o)
 .comment       0x00000000       0x27 c:/altera/13.0sp1/nios2eds/bin/gnu/h-i686-mingw32/bin/../lib/gcc/nios2-elf/4.1.2/../../../../nios2-elf/lib\libc.a(lib_a-memmove.o)
 .comment       0x00000000       0x27 c:/altera/13.0sp1/nios2eds/bin/gnu/h-i686-mingw32/bin/../lib/gcc/nios2-elf/4.1.2/../../../../nios2-elf/lib\libc.a(lib_a-memset.o)
 .comment       0x00000000       0x27 c:/altera/13.0sp1/nios2eds/bin/gnu/h-i686-mingw32/bin/../lib/gcc/nios2-elf/4.1.2/../../../../nios2-elf/lib\libc.a(lib_a-perror.o)
 .comment       0x00000000       0x27 c:/altera/13.0sp1/nios2eds/bin/gnu/h-i686-mingw32/bin/../lib/gcc/nios2-elf/4.1.2/../../../../nios2-elf/lib\libc.a(lib_a-printf.o)
 .comment       0x00000000       0x27 c:/altera/13.0sp1/nios2eds/bin/gnu/h-i686-mingw32/bin/../lib/gcc/nios2-elf/4.1.2/../../../../nios2-elf/lib\libc.a(lib_a-putc.o)
 .comment       0x00000000       0x27 c:/altera/13.0sp1/nios2eds/bin/gnu/h-i686-mingw32/bin/../lib/gcc/nios2-elf/4.1.2/../../../../nios2-elf/lib\libc.a(lib_a-putchar.o)
 .comment       0x00000000       0x27 c:/altera/13.0sp1/nios2eds/bin/gnu/h-i686-mingw32/bin/../lib/gcc/nios2-elf/4.1.2/../../../../nios2-elf/lib\libc.a(lib_a-puts.o)
 .comment       0x00000000       0x27 c:/altera/13.0sp1/nios2eds/bin/gnu/h-i686-mingw32/bin/../lib/gcc/nios2-elf/4.1.2/../../../../nios2-elf/lib\libc.a(lib_a-rand.o)
 .comment       0x00000000       0x27 c:/altera/13.0sp1/nios2eds/bin/gnu/h-i686-mingw32/bin/../lib/gcc/nios2-elf/4.1.2/../../../../nios2-elf/lib\libc.a(lib_a-rget.o)
 .comment       0x00000000       0x27 c:/altera/13.0sp1/nios2eds/bin/gnu/h-i686-mingw32/bin/../lib/gcc/nios2-elf/4.1.2/../../../../nios2-elf/lib\libc.a(lib_a-sprintf.o)
 .comment       0x00000000       0x27 c:/altera/13.0sp1/nios2eds/bin/gnu/h-i686-mingw32/bin/../lib/gcc/nios2-elf/4.1.2/../../../../nios2-elf/lib\libc.a(lib_a-strchr.o)
 .comment       0x00000000       0x27 c:/altera/13.0sp1/nios2eds/bin/gnu/h-i686-mingw32/bin/../lib/gcc/nios2-elf/4.1.2/../../../../nios2-elf/lib\libc.a(lib_a-strcmp.o)
 .comment       0x00000000       0x27 c:/altera/13.0sp1/nios2eds/bin/gnu/h-i686-mingw32/bin/../lib/gcc/nios2-elf/4.1.2/../../../../nios2-elf/lib\libc.a(lib_a-strerror.o)
 .comment       0x00000000       0x27 c:/altera/13.0sp1/nios2eds/bin/gnu/h-i686-mingw32/bin/../lib/gcc/nios2-elf/4.1.2/../../../../nios2-elf/lib\libc.a(lib_a-strlen.o)
 .comment       0x00000000       0x27 c:/altera/13.0sp1/nios2eds/bin/gnu/h-i686-mingw32/bin/../lib/gcc/nios2-elf/4.1.2/../../../../nios2-elf/lib\libc.a(lib_a-strtol.o)
 .comment       0x00000000       0x27 c:/altera/13.0sp1/nios2eds/bin/gnu/h-i686-mingw32/bin/../lib/gcc/nios2-elf/4.1.2/../../../../nios2-elf/lib\libc.a(lib_a-time.o)
 .comment       0x00000000       0x27 c:/altera/13.0sp1/nios2eds/bin/gnu/h-i686-mingw32/bin/../lib/gcc/nios2-elf/4.1.2/../../../../nios2-elf/lib\libc.a(lib_a-u_strerr.o)
 .comment       0x00000000       0x27 c:/altera/13.0sp1/nios2eds/bin/gnu/h-i686-mingw32/bin/../lib/gcc/nios2-elf/4.1.2/../../../../nios2-elf/lib\libc.a(lib_a-vfprintf.o)
 .comment       0x00000000       0x27 c:/altera/13.0sp1/nios2eds/bin/gnu/h-i686-mingw32/bin/../lib/gcc/nios2-elf/4.1.2/../../../../nios2-elf/lib\libc.a(lib_a-wbuf.o)
 .comment       0x00000000       0x27 c:/altera/13.0sp1/nios2eds/bin/gnu/h-i686-mingw32/bin/../lib/gcc/nios2-elf/4.1.2/../../../../nios2-elf/lib\libc.a(lib_a-wsetup.o)
 .comment       0x00000000       0x27 c:/altera/13.0sp1/nios2eds/bin/gnu/h-i686-mingw32/bin/../lib/gcc/nios2-elf/4.1.2/../../../../nios2-elf/lib\libc.a(lib_a-__call_atexit.o)
 .comment       0x00000000       0x27 c:/altera/13.0sp1/nios2eds/bin/gnu/h-i686-mingw32/bin/../lib/gcc/nios2-elf/4.1.2/../../../../nios2-elf/lib\libc.a(lib_a-dtoa.o)
 .comment       0x00000000       0x27 c:/altera/13.0sp1/nios2eds/bin/gnu/h-i686-mingw32/bin/../lib/gcc/nios2-elf/4.1.2/../../../../nios2-elf/lib\libc.a(lib_a-fflush.o)
 .comment       0x00000000       0x27 c:/altera/13.0sp1/nios2eds/bin/gnu/h-i686-mingw32/bin/../lib/gcc/nios2-elf/4.1.2/../../../../nios2-elf/lib\libc.a(lib_a-findfp.o)
 .comment       0x00000000       0x27 c:/altera/13.0sp1/nios2eds/bin/gnu/h-i686-mingw32/bin/../lib/gcc/nios2-elf/4.1.2/../../../../nios2-elf/lib\libc.a(lib_a-fputc.o)
 .comment       0x00000000       0x27 c:/altera/13.0sp1/nios2eds/bin/gnu/h-i686-mingw32/bin/../lib/gcc/nios2-elf/4.1.2/../../../../nios2-elf/lib\libc.a(lib_a-fputs.o)
 .comment       0x00000000       0x27 c:/altera/13.0sp1/nios2eds/bin/gnu/h-i686-mingw32/bin/../lib/gcc/nios2-elf/4.1.2/../../../../nios2-elf/lib\libc.a(lib_a-freer.o)
 .comment       0x00000000       0x27 c:/altera/13.0sp1/nios2eds/bin/gnu/h-i686-mingw32/bin/../lib/gcc/nios2-elf/4.1.2/../../../../nios2-elf/lib\libc.a(lib_a-fvwrite.o)
 .comment       0x00000000       0x27 c:/altera/13.0sp1/nios2eds/bin/gnu/h-i686-mingw32/bin/../lib/gcc/nios2-elf/4.1.2/../../../../nios2-elf/lib\libc.a(lib_a-fwalk.o)
 .comment       0x00000000       0x27 c:/altera/13.0sp1/nios2eds/bin/gnu/h-i686-mingw32/bin/../lib/gcc/nios2-elf/4.1.2/../../../../nios2-elf/lib\libc.a(lib_a-gettimeofdayr.o)
 .comment       0x00000000       0x27 c:/altera/13.0sp1/nios2eds/bin/gnu/h-i686-mingw32/bin/../lib/gcc/nios2-elf/4.1.2/../../../../nios2-elf/lib\libc.a(lib_a-int_errno.o)
 .comment       0x00000000       0x27 c:/altera/13.0sp1/nios2eds/bin/gnu/h-i686-mingw32/bin/../lib/gcc/nios2-elf/4.1.2/../../../../nios2-elf/lib\libc.a(lib_a-locale.o)
 .comment       0x00000000       0x27 c:/altera/13.0sp1/nios2eds/bin/gnu/h-i686-mingw32/bin/../lib/gcc/nios2-elf/4.1.2/../../../../nios2-elf/lib\libc.a(lib_a-makebuf.o)
 .comment       0x00000000       0x27 c:/altera/13.0sp1/nios2eds/bin/gnu/h-i686-mingw32/bin/../lib/gcc/nios2-elf/4.1.2/../../../../nios2-elf/lib\libc.a(lib_a-mallocr.o)
 .comment       0x00000000       0x27 c:/altera/13.0sp1/nios2eds/bin/gnu/h-i686-mingw32/bin/../lib/gcc/nios2-elf/4.1.2/../../../../nios2-elf/lib\libc.a(lib_a-memchr.o)
 .comment       0x00000000       0x27 c:/altera/13.0sp1/nios2eds/bin/gnu/h-i686-mingw32/bin/../lib/gcc/nios2-elf/4.1.2/../../../../nios2-elf/lib\libc.a(lib_a-mprec.o)
 .comment       0x00000000       0x27 c:/altera/13.0sp1/nios2eds/bin/gnu/h-i686-mingw32/bin/../lib/gcc/nios2-elf/4.1.2/../../../../nios2-elf/lib\libc.a(lib_a-reallocr.o)
 .comment       0x00000000       0x27 c:/altera/13.0sp1/nios2eds/bin/gnu/h-i686-mingw32/bin/../lib/gcc/nios2-elf/4.1.2/../../../../nios2-elf/lib\libc.a(lib_a-refill.o)
 .comment       0x00000000       0x27 c:/altera/13.0sp1/nios2eds/bin/gnu/h-i686-mingw32/bin/../lib/gcc/nios2-elf/4.1.2/../../../../nios2-elf/lib\libc.a(lib_a-s_isinfd.o)
 .comment       0x00000000       0x27 c:/altera/13.0sp1/nios2eds/bin/gnu/h-i686-mingw32/bin/../lib/gcc/nios2-elf/4.1.2/../../../../nios2-elf/lib\libc.a(lib_a-s_isnand.o)
 .comment       0x00000000       0x27 c:/altera/13.0sp1/nios2eds/bin/gnu/h-i686-mingw32/bin/../lib/gcc/nios2-elf/4.1.2/../../../../nios2-elf/lib\libc.a(lib_a-sbrkr.o)
 .comment       0x00000000       0x27 c:/altera/13.0sp1/nios2eds/bin/gnu/h-i686-mingw32/bin/../lib/gcc/nios2-elf/4.1.2/../../../../nios2-elf/lib\libc.a(lib_a-stdio.o)
 .comment       0x00000000       0x27 c:/altera/13.0sp1/nios2eds/bin/gnu/h-i686-mingw32/bin/../lib/gcc/nios2-elf/4.1.2/../../../../nios2-elf/lib\libc.a(lib_a-writer.o)
 .comment       0x00000000       0x27 c:/altera/13.0sp1/nios2eds/bin/gnu/h-i686-mingw32/bin/../lib/gcc/nios2-elf/4.1.2/../../../../nios2-elf/lib\libc.a(lib_a-callocr.o)
 .comment       0x00000000       0x27 c:/altera/13.0sp1/nios2eds/bin/gnu/h-i686-mingw32/bin/../lib/gcc/nios2-elf/4.1.2/../../../../nios2-elf/lib\libc.a(lib_a-closer.o)
 .comment       0x00000000       0x27 c:/altera/13.0sp1/nios2eds/bin/gnu/h-i686-mingw32/bin/../lib/gcc/nios2-elf/4.1.2/../../../../nios2-elf/lib\libc.a(lib_a-fclose.o)
 .comment       0x00000000       0x27 c:/altera/13.0sp1/nios2eds/bin/gnu/h-i686-mingw32/bin/../lib/gcc/nios2-elf/4.1.2/../../../../nios2-elf/lib\libc.a(lib_a-fstatr.o)
 .comment       0x00000000       0x27 c:/altera/13.0sp1/nios2eds/bin/gnu/h-i686-mingw32/bin/../lib/gcc/nios2-elf/4.1.2/../../../../nios2-elf/lib\libc.a(lib_a-isattyr.o)
 .comment       0x00000000       0x27 c:/altera/13.0sp1/nios2eds/bin/gnu/h-i686-mingw32/bin/../lib/gcc/nios2-elf/4.1.2/../../../../nios2-elf/lib\libc.a(lib_a-lseekr.o)
 .comment       0x00000000       0x27 c:/altera/13.0sp1/nios2eds/bin/gnu/h-i686-mingw32/bin/../lib/gcc/nios2-elf/4.1.2/../../../../nios2-elf/lib\libc.a(lib_a-readr.o)
 .comment       0x00000000       0x27 c:/altera/13.0sp1/nios2eds/bin/gnu/h-i686-mingw32/bin/../lib/gcc/nios2-elf/4.1.2\libgcc.a(_udivdi3.o)
 .comment       0x00000000       0x27 c:/altera/13.0sp1/nios2eds/bin/gnu/h-i686-mingw32/bin/../lib/gcc/nios2-elf/4.1.2\libgcc.a(_umoddi3.o)
 .comment       0x00000000       0x27 c:/altera/13.0sp1/nios2eds/bin/gnu/h-i686-mingw32/bin/../lib/gcc/nios2-elf/4.1.2\libgcc.a(_div_df.o)
 .comment       0x00000000       0x27 c:/altera/13.0sp1/nios2eds/bin/gnu/h-i686-mingw32/bin/../lib/gcc/nios2-elf/4.1.2\libgcc.a(_eq_df.o)
 .comment       0x00000000       0x27 c:/altera/13.0sp1/nios2eds/bin/gnu/h-i686-mingw32/bin/../lib/gcc/nios2-elf/4.1.2\libgcc.a(_ne_df.o)
 .comment       0x00000000       0x27 c:/altera/13.0sp1/nios2eds/bin/gnu/h-i686-mingw32/bin/../lib/gcc/nios2-elf/4.1.2\libgcc.a(_gt_df.o)
 .comment       0x00000000       0x27 c:/altera/13.0sp1/nios2eds/bin/gnu/h-i686-mingw32/bin/../lib/gcc/nios2-elf/4.1.2\libgcc.a(_lt_df.o)
 .comment       0x00000000       0x27 c:/altera/13.0sp1/nios2eds/bin/gnu/h-i686-mingw32/bin/../lib/gcc/nios2-elf/4.1.2\libgcc.a(_si_to_df.o)
 .comment       0x00000000       0x27 c:/altera/13.0sp1/nios2eds/bin/gnu/h-i686-mingw32/bin/../lib/gcc/nios2-elf/4.1.2\libgcc.a(lib2-divmod.o)
 .comment       0x00000000       0x27 ../rtc_socket_bsp/\libucosii_bsp.a(alt_exit.o)
 .comment       0x00000000       0x27 ../rtc_socket_bsp/\libucosii_bsp.a(alt_flash_dev.o)
 .comment       0x00000000       0x27 ../rtc_socket_bsp/\libucosii_bsp.a(alt_fstat.o)
 .comment       0x00000000       0x27 ../rtc_socket_bsp/\libucosii_bsp.a(alt_gettod.o)
 .comment       0x00000000       0x27 ../rtc_socket_bsp/\libucosii_bsp.a(alt_irq_register.o)
 .comment       0x00000000       0x27 ../rtc_socket_bsp/\libucosii_bsp.a(alt_irq_vars.o)
 .comment       0x00000000       0x27 ../rtc_socket_bsp/\libucosii_bsp.a(alt_isatty.o)
 .comment       0x00000000       0x27 ../rtc_socket_bsp/\libucosii_bsp.a(alt_lseek.o)
 .comment       0x00000000       0x27 ../rtc_socket_bsp/\libucosii_bsp.a(alt_main.o)
 .comment       0x00000000       0x27 ../rtc_socket_bsp/\libucosii_bsp.a(alt_sbrk.o)
 .comment       0x00000000       0x27 ../rtc_socket_bsp/\libucosii_bsp.a(alt_tick.o)
 .comment       0x00000000       0x27 ../rtc_socket_bsp/\libucosii_bsp.a(alt_usleep.o)
 .comment       0x00000000       0x27 ../rtc_socket_bsp/\libucosii_bsp.a(alt_env_lock.o)
 .comment       0x00000000       0x27 ../rtc_socket_bsp/\libucosii_bsp.a(alt_malloc_lock.o)
 .comment       0x00000000       0x27 ../rtc_socket_bsp/\libucosii_bsp.a(os_core.o)
 .comment       0x00000000       0x27 ../rtc_socket_bsp/\libucosii_bsp.a(os_dbg.o)
 .comment       0x00000000       0x27 ../rtc_socket_bsp/\libucosii_bsp.a(os_flag.o)
 .comment       0x00000000       0x27 ../rtc_socket_bsp/\libucosii_bsp.a(os_mem.o)
 .comment       0x00000000       0x27 ../rtc_socket_bsp/\libucosii_bsp.a(os_q.o)
 .comment       0x00000000       0x27 ../rtc_socket_bsp/\libucosii_bsp.a(os_sem.o)
 .comment       0x00000000       0x27 ../rtc_socket_bsp/\libucosii_bsp.a(os_task.o)
 .comment       0x00000000       0x27 ../rtc_socket_bsp/\libucosii_bsp.a(os_time.o)
 .comment       0x00000000       0x27 ../rtc_socket_bsp/\libucosii_bsp.a(alt_sys_init.o)
 .comment       0x00000000       0x27 ../rtc_socket_bsp/\libucosii_bsp.a(altera_avalon_cfi_flash.o)
 .comment       0x00000000       0x27 ../rtc_socket_bsp/\libucosii_bsp.a(altera_avalon_cfi_flash_table.o)
 .comment       0x00000000       0x27 ../rtc_socket_bsp/\libucosii_bsp.a(altera_avalon_epcs_flash_controller.o)
 .comment       0x00000000       0x27 ../rtc_socket_bsp/\libucosii_bsp.a(altera_avalon_jtag_uart_fd.o)
 .comment       0x00000000       0x27 ../rtc_socket_bsp/\libucosii_bsp.a(altera_avalon_jtag_uart_init.o)
 .comment       0x00000000       0x27 ../rtc_socket_bsp/\libucosii_bsp.a(altera_avalon_jtag_uart_ioctl.o)
 .comment       0x00000000       0x27 ../rtc_socket_bsp/\libucosii_bsp.a(altera_avalon_jtag_uart_read.o)
 .comment       0x00000000       0x27 ../rtc_socket_bsp/\libucosii_bsp.a(altera_avalon_jtag_uart_write.o)
 .comment       0x00000000       0x27 ../rtc_socket_bsp/\libucosii_bsp.a(altera_avalon_lcd_16207.o)
 .comment       0x00000000       0x27 ../rtc_socket_bsp/\libucosii_bsp.a(altera_avalon_lcd_16207_fd.o)
 .comment       0x00000000       0x27 ../rtc_socket_bsp/\libucosii_bsp.a(altera_avalon_timer_sc.o)
 .comment       0x00000000       0x27 ../rtc_socket_bsp/\libucosii_bsp.a(altera_avalon_uart_fd.o)
 .comment       0x00000000       0x27 ../rtc_socket_bsp/\libucosii_bsp.a(altera_avalon_uart_init.o)
 .comment       0x00000000       0x27 ../rtc_socket_bsp/\libucosii_bsp.a(altera_avalon_uart_read.o)
 .comment       0x00000000       0x27 ../rtc_socket_bsp/\libucosii_bsp.a(altera_avalon_uart_write.o)
 .comment       0x00000000       0x27 ../rtc_socket_bsp/\libucosii_bsp.a(epcs_commands.o)
 .comment       0x00000000       0x27 ../rtc_socket_bsp/\libucosii_bsp.a(alt_iniche_close.o)
 .comment       0x00000000       0x27 ../rtc_socket_bsp/\libucosii_bsp.a(alt_iniche_dev.o)
 .comment       0x00000000       0x27 ../rtc_socket_bsp/\libucosii_bsp.a(alt_iniche_read.o)
 .comment       0x00000000       0x27 ../rtc_socket_bsp/\libucosii_bsp.a(alt_iniche_write.o)
 .comment       0x00000000       0x27 ../rtc_socket_bsp/\libucosii_bsp.a(ipnet.o)
 .comment       0x00000000       0x27 ../rtc_socket_bsp/\libucosii_bsp.a(ipstart.o)
 .comment       0x00000000       0x27 ../rtc_socket_bsp/\libucosii_bsp.a(igmp_cmn.o)
 .comment       0x00000000       0x27 ../rtc_socket_bsp/\libucosii_bsp.a(bsdsock.o)
 .comment       0x00000000       0x27 ../rtc_socket_bsp/\libucosii_bsp.a(cksum.o)
 .comment       0x00000000       0x27 ../rtc_socket_bsp/\libucosii_bsp.a(in_utils.o)
 .comment       0x00000000       0x27 ../rtc_socket_bsp/\libucosii_bsp.a(netmain.o)
 .comment       0x00000000       0x27 ../rtc_socket_bsp/\libucosii_bsp.a(parseip.o)
 .comment       0x00000000       0x27 ../rtc_socket_bsp/\libucosii_bsp.a(tk_crnos.o)
 .comment       0x00000000       0x27 ../rtc_socket_bsp/\libucosii_bsp.a(dhcpclnt.o)
 .comment       0x00000000       0x27 ../rtc_socket_bsp/\libucosii_bsp.a(dhcputil.o)
 .comment       0x00000000       0x27 ../rtc_socket_bsp/\libucosii_bsp.a(pktalloc.o)
 .comment       0x00000000       0x27 ../rtc_socket_bsp/\libucosii_bsp.a(q.o)
 .comment       0x00000000       0x27 ../rtc_socket_bsp/\libucosii_bsp.a(udp_open.o)
 .comment       0x00000000       0x27 ../rtc_socket_bsp/\libucosii_bsp.a(brdutils.o)
 .comment       0x00000000       0x27 ../rtc_socket_bsp/\libucosii_bsp.a(osportco.o)
 .comment       0x00000000       0x27 ../rtc_socket_bsp/\libucosii_bsp.a(targnios.o)
 .comment       0x00000000       0x27 ../rtc_socket_bsp/\libucosii_bsp.a(nptcp.o)
 .comment       0x00000000       0x27 ../rtc_socket_bsp/\libucosii_bsp.a(rawsock.o)
 .comment       0x00000000       0x27 ../rtc_socket_bsp/\libucosii_bsp.a(sockcall.o)
 .comment       0x00000000       0x27 ../rtc_socket_bsp/\libucosii_bsp.a(socket.o)
 .comment       0x00000000       0x27 ../rtc_socket_bsp/\libucosii_bsp.a(socket2.o)
 .comment       0x00000000       0x27 ../rtc_socket_bsp/\libucosii_bsp.a(soselect.o)
 .comment       0x00000000       0x27 ../rtc_socket_bsp/\libucosii_bsp.a(tcp_in.o)
 .comment       0x00000000       0x27 ../rtc_socket_bsp/\libucosii_bsp.a(tcp_out.o)
 .comment       0x00000000       0x27 ../rtc_socket_bsp/\libucosii_bsp.a(tcp_subr.o)
 .comment       0x00000000       0x27 ../rtc_socket_bsp/\libucosii_bsp.a(tcp_timr.o)
 .comment       0x00000000       0x27 ../rtc_socket_bsp/\libucosii_bsp.a(tcp_usr.o)
 .comment       0x00000000       0x27 ../rtc_socket_bsp/\libucosii_bsp.a(tcpport.o)
 .comment       0x00000000       0x27 ../rtc_socket_bsp/\libucosii_bsp.a(udpsock.o)
 .comment       0x00000000       0x27 ../rtc_socket_bsp/\libucosii_bsp.a(alt_alarm_start.o)
 .comment       0x00000000       0x27 ../rtc_socket_bsp/\libucosii_bsp.a(alt_busy_sleep.o)
 .comment       0x00000000       0x27 ../rtc_socket_bsp/\libucosii_bsp.a(alt_close.o)
 .comment       0x00000000       0x27 ../rtc_socket_bsp/\libucosii_bsp.a(alt_dcache_flush.o)
 .comment       0x00000000       0x27 ../rtc_socket_bsp/\libucosii_bsp.a(alt_dev.o)
 .comment       0x00000000       0x27 ../rtc_socket_bsp/\libucosii_bsp.a(alt_dev_llist_insert.o)
 .comment       0x00000000       0x27 ../rtc_socket_bsp/\libucosii_bsp.a(alt_do_ctors.o)
 .comment       0x00000000       0x27 ../rtc_socket_bsp/\libucosii_bsp.a(alt_do_dtors.o)
 .comment       0x00000000       0x27 ../rtc_socket_bsp/\libucosii_bsp.a(alt_errno.o)
 .comment       0x00000000       0x27 ../rtc_socket_bsp/\libucosii_bsp.a(alt_find_dev.o)
 .comment       0x00000000       0x27 ../rtc_socket_bsp/\libucosii_bsp.a(alt_iic.o)
 .comment       0x00000000       0x27 ../rtc_socket_bsp/\libucosii_bsp.a(alt_iic_isr_register.o)
 .comment       0x00000000       0x27 ../rtc_socket_bsp/\libucosii_bsp.a(alt_io_redirect.o)
 .comment       0x00000000       0x27 ../rtc_socket_bsp/\libucosii_bsp.a(alt_irq_handler.o)
 .comment       0x00000000       0x27 ../rtc_socket_bsp/\libucosii_bsp.a(alt_open.o)
 .comment       0x00000000       0x27 ../rtc_socket_bsp/\libucosii_bsp.a(alt_read.o)
 .comment       0x00000000       0x27 ../rtc_socket_bsp/\libucosii_bsp.a(alt_release_fd.o)
 .comment       0x00000000       0x27 ../rtc_socket_bsp/\libucosii_bsp.a(alt_remap_cached.o)
 .comment       0x00000000       0x27 ../rtc_socket_bsp/\libucosii_bsp.a(alt_remap_uncached.o)
 .comment       0x00000000       0x27 ../rtc_socket_bsp/\libucosii_bsp.a(alt_write.o)
 .comment       0x00000000       0x27 ../rtc_socket_bsp/\libucosii_bsp.a(altera_nios2_qsys_irq.o)
 .comment       0x00000000       0x27 ../rtc_socket_bsp/\libucosii_bsp.a(os_cpu_c.o)
 .comment       0x00000000       0x27 ../rtc_socket_bsp/\libucosii_bsp.a(altera_avalon_cfi_flash_amd.o)
 .comment       0x00000000       0x27 ../rtc_socket_bsp/\libucosii_bsp.a(altera_avalon_cfi_flash_intel.o)
 .comment       0x00000000       0x27 ../rtc_socket_bsp/\libucosii_bsp.a(altera_avalon_spi.o)
 .comment       0x00000000       0x27 ../rtc_socket_bsp/\libucosii_bsp.a(allports.o)
 .comment       0x00000000       0x27 ../rtc_socket_bsp/\libucosii_bsp.a(timeouts.o)
 .comment       0x00000000       0x27 ../rtc_socket_bsp/\libucosii_bsp.a(tk_misc.o)
 .comment       0x00000000       0x27 ../rtc_socket_bsp/\libucosii_bsp.a(alt_iniche_fcntl.o)
 .comment       0x00000000       0x27 ../rtc_socket_bsp/\libucosii_bsp.a(et_arp.o)
 .comment       0x00000000       0x27 ../rtc_socket_bsp/\libucosii_bsp.a(iface.o)
 .comment       0x00000000       0x27 ../rtc_socket_bsp/\libucosii_bsp.a(ip.o)
 .comment       0x00000000       0x27 ../rtc_socket_bsp/\libucosii_bsp.a(ip_reasm.o)
 .comment       0x00000000       0x27 ../rtc_socket_bsp/\libucosii_bsp.a(ipdemux.o)
 .comment       0x00000000       0x27 ../rtc_socket_bsp/\libucosii_bsp.a(ipmc.o)
 .comment       0x00000000       0x27 ../rtc_socket_bsp/\libucosii_bsp.a(ipport.o)
 .comment       0x00000000       0x27 ../rtc_socket_bsp/\libucosii_bsp.a(ipraw.o)
 .comment       0x00000000       0x27 ../rtc_socket_bsp/\libucosii_bsp.a(iproute.o)
 .comment       0x00000000       0x27 ../rtc_socket_bsp/\libucosii_bsp.a(udp.o)
 .comment       0x00000000       0x27 ../rtc_socket_bsp/\libucosii_bsp.a(igmp.o)
 .comment       0x00000000       0x27 ../rtc_socket_bsp/\libucosii_bsp.a(igmp2.o)
 .comment       0x00000000       0x27 ../rtc_socket_bsp/\libucosii_bsp.a(ipopt.o)
 .comment       0x00000000       0x27 ../rtc_socket_bsp/\libucosii_bsp.a(u_mctest.o)
 .comment       0x00000000       0x27 ../rtc_socket_bsp/\libucosii_bsp.a(dhcsetup.o)
 .comment       0x00000000       0x27 ../rtc_socket_bsp/\libucosii_bsp.a(memdev.o)
 .comment       0x00000000       0x27 ../rtc_socket_bsp/\libucosii_bsp.a(tcpcksum.o)
 .comment       0x00000000       0x27 ../rtc_socket_bsp/\libucosii_bsp.a(in_pcb.o)
 .comment       0x00000000       0x27 ../rtc_socket_bsp/\libucosii_bsp.a(vfsfiles.o)
 .comment       0x00000000       0x27 ../rtc_socket_bsp/\libucosii_bsp.a(vfsport.o)
 .comment       0x00000000       0x27 ../rtc_socket_bsp/\libucosii_bsp.a(alt_fcntl.o)
 .comment       0x00000000       0x27 ../rtc_socket_bsp/\libucosii_bsp.a(alt_find_file.o)
 .comment       0x00000000       0x27 ../rtc_socket_bsp/\libucosii_bsp.a(alt_get_fd.o)
 .comment       0x00000000       0x27 ../rtc_socket_bsp/\libucosii_bsp.a(icmp.o)
 .comment       0x00000000       0x27 c:/altera/13.0sp1/nios2eds/bin/gnu/h-i686-mingw32/bin/../lib/gcc/nios2-elf/4.1.2/../../../../nios2-elf/lib\libc.a(lib_a-atexit.o)
 .comment       0x00000000       0x27 c:/altera/13.0sp1/nios2eds/bin/gnu/h-i686-mingw32/bin/../lib/gcc/nios2-elf/4.1.2/../../../../nios2-elf/lib\libc.a(lib_a-calloc.o)
 .comment       0x00000000       0x27 c:/altera/13.0sp1/nios2eds/bin/gnu/h-i686-mingw32/bin/../lib/gcc/nios2-elf/4.1.2/../../../../nios2-elf/lib\libc.a(lib_a-malloc.o)
 .comment       0x00000000       0x27 c:/altera/13.0sp1/nios2eds/bin/gnu/h-i686-mingw32/bin/../lib/gcc/nios2-elf/4.1.2/../../../../nios2-elf/lib\libc.a(lib_a-memcmp.o)
 .comment       0x00000000       0x27 c:/altera/13.0sp1/nios2eds/bin/gnu/h-i686-mingw32/bin/../lib/gcc/nios2-elf/4.1.2/../../../../nios2-elf/lib\libc.a(lib_a-strcpy.o)
 .comment       0x00000000       0x27 c:/altera/13.0sp1/nios2eds/bin/gnu/h-i686-mingw32/bin/../lib/gcc/nios2-elf/4.1.2/../../../../nios2-elf/lib\libc.a(lib_a-strncmp.o)
 .comment       0x00000000       0x27 c:/altera/13.0sp1/nios2eds/bin/gnu/h-i686-mingw32/bin/../lib/gcc/nios2-elf/4.1.2/../../../../nios2-elf/lib\libc.a(lib_a-strncpy.o)
 .comment       0x00000000       0x27 c:/altera/13.0sp1/nios2eds/bin/gnu/h-i686-mingw32/bin/../lib/gcc/nios2-elf/4.1.2/../../../../nios2-elf/lib\libc.a(lib_a-vprintf.o)
 .comment       0x00000000       0x27 c:/altera/13.0sp1/nios2eds/bin/gnu/h-i686-mingw32/bin/../lib/gcc/nios2-elf/4.1.2/../../../../nios2-elf/lib\libc.a(lib_a-vsprintf.o)
 .comment       0x00000000       0x27 c:/altera/13.0sp1/nios2eds/bin/gnu/h-i686-mingw32/bin/../lib/gcc/nios2-elf/4.1.2/../../../../nios2-elf/lib\libc.a(lib_a-__atexit.o)

.debug
 *(.debug)

.line
 *(.line)

.debug_srcinfo
 *(.debug_srcinfo)

.debug_sfnames
 *(.debug_sfnames)

.debug_aranges  0x00000000     0x1c10
 *(.debug_aranges)
 .debug_aranges
                0x00000000       0x20 ../rtc_socket_bsp//obj/HAL/src/crt0.o
 .debug_aranges
                0x00000020       0x20 obj/default/LCD.o
 .debug_aranges
                0x00000040       0x20 obj/default/SSS_DE2_115.o
 .debug_aranges
                0x00000060       0x20 obj/default/alt_error_handler.o
 .debug_aranges
                0x00000080       0x20 obj/default/dm9000a.o
 .debug_aranges
                0x000000a0       0x20 obj/default/iniche_init.o
 .debug_aranges
                0x000000c0       0x20 obj/default/led.o
 .debug_aranges
                0x000000e0       0x20 obj/default/network_utilities.o
 .debug_aranges
                0x00000100       0x20 obj/default/simple_socket_server.o
 .debug_aranges
                0x00000120       0x20 c:/altera/13.0sp1/nios2eds/bin/gnu/h-i686-mingw32/bin/../lib/gcc/nios2-elf/4.1.2\libgcc.a(_fixunsdfsi.o)
 .debug_aranges
                0x00000140       0x20 c:/altera/13.0sp1/nios2eds/bin/gnu/h-i686-mingw32/bin/../lib/gcc/nios2-elf/4.1.2\libgcc.a(_addsub_df.o)
 .debug_aranges
                0x00000160       0x20 c:/altera/13.0sp1/nios2eds/bin/gnu/h-i686-mingw32/bin/../lib/gcc/nios2-elf/4.1.2\libgcc.a(_mul_df.o)
 .debug_aranges
                0x00000180       0x20 c:/altera/13.0sp1/nios2eds/bin/gnu/h-i686-mingw32/bin/../lib/gcc/nios2-elf/4.1.2\libgcc.a(_ge_df.o)
 .debug_aranges
                0x000001a0       0x20 c:/altera/13.0sp1/nios2eds/bin/gnu/h-i686-mingw32/bin/../lib/gcc/nios2-elf/4.1.2\libgcc.a(_df_to_si.o)
 .debug_aranges
                0x000001c0       0x20 c:/altera/13.0sp1/nios2eds/bin/gnu/h-i686-mingw32/bin/../lib/gcc/nios2-elf/4.1.2\libgcc.a(_usi_to_df.o)
 .debug_aranges
                0x000001e0       0x20 c:/altera/13.0sp1/nios2eds/bin/gnu/h-i686-mingw32/bin/../lib/gcc/nios2-elf/4.1.2\libgcc.a(_muldi3.o)
 .debug_aranges
                0x00000200       0x20 c:/altera/13.0sp1/nios2eds/bin/gnu/h-i686-mingw32/bin/../lib/gcc/nios2-elf/4.1.2\libgcc.a(_clzsi2.o)
 .debug_aranges
                0x00000220       0x20 c:/altera/13.0sp1/nios2eds/bin/gnu/h-i686-mingw32/bin/../lib/gcc/nios2-elf/4.1.2\libgcc.a(_pack_df.o)
 .debug_aranges
                0x00000240       0x20 c:/altera/13.0sp1/nios2eds/bin/gnu/h-i686-mingw32/bin/../lib/gcc/nios2-elf/4.1.2\libgcc.a(_unpack_df.o)
 .debug_aranges
                0x00000260       0x20 c:/altera/13.0sp1/nios2eds/bin/gnu/h-i686-mingw32/bin/../lib/gcc/nios2-elf/4.1.2\libgcc.a(_fpcmp_parts_df.o)
 .debug_aranges
                0x00000280       0x20 c:/altera/13.0sp1/nios2eds/bin/gnu/h-i686-mingw32/bin/../lib/gcc/nios2-elf/4.1.2/../../../../nios2-elf/lib\libc.a(lib_a-atoi.o)
 .debug_aranges
                0x000002a0       0x20 c:/altera/13.0sp1/nios2eds/bin/gnu/h-i686-mingw32/bin/../lib/gcc/nios2-elf/4.1.2/../../../../nios2-elf/lib\libc.a(lib_a-errno.o)
 .debug_aranges
                0x000002c0       0x20 c:/altera/13.0sp1/nios2eds/bin/gnu/h-i686-mingw32/bin/../lib/gcc/nios2-elf/4.1.2/../../../../nios2-elf/lib\libc.a(lib_a-exit.o)
 .debug_aranges
                0x000002e0       0x20 c:/altera/13.0sp1/nios2eds/bin/gnu/h-i686-mingw32/bin/../lib/gcc/nios2-elf/4.1.2/../../../../nios2-elf/lib\libc.a(lib_a-fprintf.o)
 .debug_aranges
                0x00000300       0x20 c:/altera/13.0sp1/nios2eds/bin/gnu/h-i686-mingw32/bin/../lib/gcc/nios2-elf/4.1.2/../../../../nios2-elf/lib\libc.a(lib_a-fwrite.o)
 .debug_aranges
                0x00000320       0x20 c:/altera/13.0sp1/nios2eds/bin/gnu/h-i686-mingw32/bin/../lib/gcc/nios2-elf/4.1.2/../../../../nios2-elf/lib\libc.a(lib_a-getc.o)
 .debug_aranges
                0x00000340       0x20 c:/altera/13.0sp1/nios2eds/bin/gnu/h-i686-mingw32/bin/../lib/gcc/nios2-elf/4.1.2/../../../../nios2-elf/lib\libc.a(lib_a-memcpy.o)
 .debug_aranges
                0x00000360       0x20 c:/altera/13.0sp1/nios2eds/bin/gnu/h-i686-mingw32/bin/../lib/gcc/nios2-elf/4.1.2/../../../../nios2-elf/lib\libc.a(lib_a-memmove.o)
 .debug_aranges
                0x00000380       0x20 c:/altera/13.0sp1/nios2eds/bin/gnu/h-i686-mingw32/bin/../lib/gcc/nios2-elf/4.1.2/../../../../nios2-elf/lib\libc.a(lib_a-memset.o)
 .debug_aranges
                0x000003a0       0x20 c:/altera/13.0sp1/nios2eds/bin/gnu/h-i686-mingw32/bin/../lib/gcc/nios2-elf/4.1.2/../../../../nios2-elf/lib\libc.a(lib_a-perror.o)
 .debug_aranges
                0x000003c0       0x20 c:/altera/13.0sp1/nios2eds/bin/gnu/h-i686-mingw32/bin/../lib/gcc/nios2-elf/4.1.2/../../../../nios2-elf/lib\libc.a(lib_a-printf.o)
 .debug_aranges
                0x000003e0       0x20 c:/altera/13.0sp1/nios2eds/bin/gnu/h-i686-mingw32/bin/../lib/gcc/nios2-elf/4.1.2/../../../../nios2-elf/lib\libc.a(lib_a-putc.o)
 .debug_aranges
                0x00000400       0x20 c:/altera/13.0sp1/nios2eds/bin/gnu/h-i686-mingw32/bin/../lib/gcc/nios2-elf/4.1.2/../../../../nios2-elf/lib\libc.a(lib_a-putchar.o)
 .debug_aranges
                0x00000420       0x20 c:/altera/13.0sp1/nios2eds/bin/gnu/h-i686-mingw32/bin/../lib/gcc/nios2-elf/4.1.2/../../../../nios2-elf/lib\libc.a(lib_a-puts.o)
 .debug_aranges
                0x00000440       0x20 c:/altera/13.0sp1/nios2eds/bin/gnu/h-i686-mingw32/bin/../lib/gcc/nios2-elf/4.1.2/../../../../nios2-elf/lib\libc.a(lib_a-rand.o)
 .debug_aranges
                0x00000460       0x20 c:/altera/13.0sp1/nios2eds/bin/gnu/h-i686-mingw32/bin/../lib/gcc/nios2-elf/4.1.2/../../../../nios2-elf/lib\libc.a(lib_a-rget.o)
 .debug_aranges
                0x00000480       0x20 c:/altera/13.0sp1/nios2eds/bin/gnu/h-i686-mingw32/bin/../lib/gcc/nios2-elf/4.1.2/../../../../nios2-elf/lib\libc.a(lib_a-sprintf.o)
 .debug_aranges
                0x000004a0       0x20 c:/altera/13.0sp1/nios2eds/bin/gnu/h-i686-mingw32/bin/../lib/gcc/nios2-elf/4.1.2/../../../../nios2-elf/lib\libc.a(lib_a-strchr.o)
 .debug_aranges
                0x000004c0       0x20 c:/altera/13.0sp1/nios2eds/bin/gnu/h-i686-mingw32/bin/../lib/gcc/nios2-elf/4.1.2/../../../../nios2-elf/lib\libc.a(lib_a-strcmp.o)
 .debug_aranges
                0x000004e0       0x20 c:/altera/13.0sp1/nios2eds/bin/gnu/h-i686-mingw32/bin/../lib/gcc/nios2-elf/4.1.2/../../../../nios2-elf/lib\libc.a(lib_a-strerror.o)
 .debug_aranges
                0x00000500       0x20 c:/altera/13.0sp1/nios2eds/bin/gnu/h-i686-mingw32/bin/../lib/gcc/nios2-elf/4.1.2/../../../../nios2-elf/lib\libc.a(lib_a-strlen.o)
 .debug_aranges
                0x00000520       0x20 c:/altera/13.0sp1/nios2eds/bin/gnu/h-i686-mingw32/bin/../lib/gcc/nios2-elf/4.1.2/../../../../nios2-elf/lib\libc.a(lib_a-strtol.o)
 .debug_aranges
                0x00000540       0x20 c:/altera/13.0sp1/nios2eds/bin/gnu/h-i686-mingw32/bin/../lib/gcc/nios2-elf/4.1.2/../../../../nios2-elf/lib\libc.a(lib_a-time.o)
 .debug_aranges
                0x00000560       0x20 c:/altera/13.0sp1/nios2eds/bin/gnu/h-i686-mingw32/bin/../lib/gcc/nios2-elf/4.1.2/../../../../nios2-elf/lib\libc.a(lib_a-u_strerr.o)
 .debug_aranges
                0x00000580       0x20 c:/altera/13.0sp1/nios2eds/bin/gnu/h-i686-mingw32/bin/../lib/gcc/nios2-elf/4.1.2/../../../../nios2-elf/lib\libc.a(lib_a-vfprintf.o)
 .debug_aranges
                0x000005a0       0x20 c:/altera/13.0sp1/nios2eds/bin/gnu/h-i686-mingw32/bin/../lib/gcc/nios2-elf/4.1.2/../../../../nios2-elf/lib\libc.a(lib_a-wbuf.o)
 .debug_aranges
                0x000005c0       0x20 c:/altera/13.0sp1/nios2eds/bin/gnu/h-i686-mingw32/bin/../lib/gcc/nios2-elf/4.1.2/../../../../nios2-elf/lib\libc.a(lib_a-wsetup.o)
 .debug_aranges
                0x000005e0       0x20 c:/altera/13.0sp1/nios2eds/bin/gnu/h-i686-mingw32/bin/../lib/gcc/nios2-elf/4.1.2/../../../../nios2-elf/lib\libc.a(lib_a-__call_atexit.o)
 .debug_aranges
                0x00000600       0x20 c:/altera/13.0sp1/nios2eds/bin/gnu/h-i686-mingw32/bin/../lib/gcc/nios2-elf/4.1.2/../../../../nios2-elf/lib\libc.a(lib_a-dtoa.o)
 .debug_aranges
                0x00000620       0x20 c:/altera/13.0sp1/nios2eds/bin/gnu/h-i686-mingw32/bin/../lib/gcc/nios2-elf/4.1.2/../../../../nios2-elf/lib\libc.a(lib_a-fflush.o)
 .debug_aranges
                0x00000640       0x20 c:/altera/13.0sp1/nios2eds/bin/gnu/h-i686-mingw32/bin/../lib/gcc/nios2-elf/4.1.2/../../../../nios2-elf/lib\libc.a(lib_a-findfp.o)
 .debug_aranges
                0x00000660       0x20 c:/altera/13.0sp1/nios2eds/bin/gnu/h-i686-mingw32/bin/../lib/gcc/nios2-elf/4.1.2/../../../../nios2-elf/lib\libc.a(lib_a-fputc.o)
 .debug_aranges
                0x00000680       0x20 c:/altera/13.0sp1/nios2eds/bin/gnu/h-i686-mingw32/bin/../lib/gcc/nios2-elf/4.1.2/../../../../nios2-elf/lib\libc.a(lib_a-fputs.o)
 .debug_aranges
                0x000006a0       0x20 c:/altera/13.0sp1/nios2eds/bin/gnu/h-i686-mingw32/bin/../lib/gcc/nios2-elf/4.1.2/../../../../nios2-elf/lib\libc.a(lib_a-freer.o)
 .debug_aranges
                0x000006c0       0x20 c:/altera/13.0sp1/nios2eds/bin/gnu/h-i686-mingw32/bin/../lib/gcc/nios2-elf/4.1.2/../../../../nios2-elf/lib\libc.a(lib_a-fvwrite.o)
 .debug_aranges
                0x000006e0       0x20 c:/altera/13.0sp1/nios2eds/bin/gnu/h-i686-mingw32/bin/../lib/gcc/nios2-elf/4.1.2/../../../../nios2-elf/lib\libc.a(lib_a-fwalk.o)
 .debug_aranges
                0x00000700       0x20 c:/altera/13.0sp1/nios2eds/bin/gnu/h-i686-mingw32/bin/../lib/gcc/nios2-elf/4.1.2/../../../../nios2-elf/lib\libc.a(lib_a-gettimeofdayr.o)
 .debug_aranges
                0x00000720       0x20 c:/altera/13.0sp1/nios2eds/bin/gnu/h-i686-mingw32/bin/../lib/gcc/nios2-elf/4.1.2/../../../../nios2-elf/lib\libc.a(lib_a-locale.o)
 .debug_aranges
                0x00000740       0x20 c:/altera/13.0sp1/nios2eds/bin/gnu/h-i686-mingw32/bin/../lib/gcc/nios2-elf/4.1.2/../../../../nios2-elf/lib\libc.a(lib_a-makebuf.o)
 .debug_aranges
                0x00000760       0x20 c:/altera/13.0sp1/nios2eds/bin/gnu/h-i686-mingw32/bin/../lib/gcc/nios2-elf/4.1.2/../../../../nios2-elf/lib\libc.a(lib_a-mallocr.o)
 .debug_aranges
                0x00000780       0x20 c:/altera/13.0sp1/nios2eds/bin/gnu/h-i686-mingw32/bin/../lib/gcc/nios2-elf/4.1.2/../../../../nios2-elf/lib\libc.a(lib_a-memchr.o)
 .debug_aranges
                0x000007a0       0x20 c:/altera/13.0sp1/nios2eds/bin/gnu/h-i686-mingw32/bin/../lib/gcc/nios2-elf/4.1.2/../../../../nios2-elf/lib\libc.a(lib_a-mprec.o)
 .debug_aranges
                0x000007c0       0x20 c:/altera/13.0sp1/nios2eds/bin/gnu/h-i686-mingw32/bin/../lib/gcc/nios2-elf/4.1.2/../../../../nios2-elf/lib\libc.a(lib_a-reallocr.o)
 .debug_aranges
                0x000007e0       0x20 c:/altera/13.0sp1/nios2eds/bin/gnu/h-i686-mingw32/bin/../lib/gcc/nios2-elf/4.1.2/../../../../nios2-elf/lib\libc.a(lib_a-refill.o)
 .debug_aranges
                0x00000800       0x20 c:/altera/13.0sp1/nios2eds/bin/gnu/h-i686-mingw32/bin/../lib/gcc/nios2-elf/4.1.2/../../../../nios2-elf/lib\libc.a(lib_a-s_isinfd.o)
 .debug_aranges
                0x00000820       0x20 c:/altera/13.0sp1/nios2eds/bin/gnu/h-i686-mingw32/bin/../lib/gcc/nios2-elf/4.1.2/../../../../nios2-elf/lib\libc.a(lib_a-s_isnand.o)
 .debug_aranges
                0x00000840       0x20 c:/altera/13.0sp1/nios2eds/bin/gnu/h-i686-mingw32/bin/../lib/gcc/nios2-elf/4.1.2/../../../../nios2-elf/lib\libc.a(lib_a-sbrkr.o)
 .debug_aranges
                0x00000860       0x20 c:/altera/13.0sp1/nios2eds/bin/gnu/h-i686-mingw32/bin/../lib/gcc/nios2-elf/4.1.2/../../../../nios2-elf/lib\libc.a(lib_a-stdio.o)
 .debug_aranges
                0x00000880       0x20 c:/altera/13.0sp1/nios2eds/bin/gnu/h-i686-mingw32/bin/../lib/gcc/nios2-elf/4.1.2/../../../../nios2-elf/lib\libc.a(lib_a-writer.o)
 .debug_aranges
                0x000008a0       0x20 c:/altera/13.0sp1/nios2eds/bin/gnu/h-i686-mingw32/bin/../lib/gcc/nios2-elf/4.1.2/../../../../nios2-elf/lib\libc.a(lib_a-callocr.o)
 .debug_aranges
                0x000008c0       0x20 c:/altera/13.0sp1/nios2eds/bin/gnu/h-i686-mingw32/bin/../lib/gcc/nios2-elf/4.1.2/../../../../nios2-elf/lib\libc.a(lib_a-closer.o)
 .debug_aranges
                0x000008e0       0x20 c:/altera/13.0sp1/nios2eds/bin/gnu/h-i686-mingw32/bin/../lib/gcc/nios2-elf/4.1.2/../../../../nios2-elf/lib\libc.a(lib_a-fclose.o)
 .debug_aranges
                0x00000900       0x20 c:/altera/13.0sp1/nios2eds/bin/gnu/h-i686-mingw32/bin/../lib/gcc/nios2-elf/4.1.2/../../../../nios2-elf/lib\libc.a(lib_a-fstatr.o)
 .debug_aranges
                0x00000920       0x20 c:/altera/13.0sp1/nios2eds/bin/gnu/h-i686-mingw32/bin/../lib/gcc/nios2-elf/4.1.2/../../../../nios2-elf/lib\libc.a(lib_a-isattyr.o)
 .debug_aranges
                0x00000940       0x20 c:/altera/13.0sp1/nios2eds/bin/gnu/h-i686-mingw32/bin/../lib/gcc/nios2-elf/4.1.2/../../../../nios2-elf/lib\libc.a(lib_a-lseekr.o)
 .debug_aranges
                0x00000960       0x20 c:/altera/13.0sp1/nios2eds/bin/gnu/h-i686-mingw32/bin/../lib/gcc/nios2-elf/4.1.2/../../../../nios2-elf/lib\libc.a(lib_a-readr.o)
 .debug_aranges
                0x00000980       0x20 c:/altera/13.0sp1/nios2eds/bin/gnu/h-i686-mingw32/bin/../lib/gcc/nios2-elf/4.1.2\libgcc.a(_udivdi3.o)
 .debug_aranges
                0x000009a0       0x20 c:/altera/13.0sp1/nios2eds/bin/gnu/h-i686-mingw32/bin/../lib/gcc/nios2-elf/4.1.2\libgcc.a(_umoddi3.o)
 .debug_aranges
                0x000009c0       0x20 c:/altera/13.0sp1/nios2eds/bin/gnu/h-i686-mingw32/bin/../lib/gcc/nios2-elf/4.1.2\libgcc.a(_div_df.o)
 .debug_aranges
                0x000009e0       0x20 c:/altera/13.0sp1/nios2eds/bin/gnu/h-i686-mingw32/bin/../lib/gcc/nios2-elf/4.1.2\libgcc.a(_eq_df.o)
 .debug_aranges
                0x00000a00       0x20 c:/altera/13.0sp1/nios2eds/bin/gnu/h-i686-mingw32/bin/../lib/gcc/nios2-elf/4.1.2\libgcc.a(_ne_df.o)
 .debug_aranges
                0x00000a20       0x20 c:/altera/13.0sp1/nios2eds/bin/gnu/h-i686-mingw32/bin/../lib/gcc/nios2-elf/4.1.2\libgcc.a(_gt_df.o)
 .debug_aranges
                0x00000a40       0x20 c:/altera/13.0sp1/nios2eds/bin/gnu/h-i686-mingw32/bin/../lib/gcc/nios2-elf/4.1.2\libgcc.a(_lt_df.o)
 .debug_aranges
                0x00000a60       0x20 c:/altera/13.0sp1/nios2eds/bin/gnu/h-i686-mingw32/bin/../lib/gcc/nios2-elf/4.1.2\libgcc.a(_si_to_df.o)
 .debug_aranges
                0x00000a80       0x20 c:/altera/13.0sp1/nios2eds/bin/gnu/h-i686-mingw32/bin/../lib/gcc/nios2-elf/4.1.2\libgcc.a(lib2-divmod.o)
 .debug_aranges
                0x00000aa0       0x20 ../rtc_socket_bsp/\libucosii_bsp.a(alt_exit.o)
 .debug_aranges
                0x00000ac0       0x20 ../rtc_socket_bsp/\libucosii_bsp.a(alt_flash_dev.o)
 .debug_aranges
                0x00000ae0       0x20 ../rtc_socket_bsp/\libucosii_bsp.a(alt_fstat.o)
 .debug_aranges
                0x00000b00       0x20 ../rtc_socket_bsp/\libucosii_bsp.a(alt_gettod.o)
 .debug_aranges
                0x00000b20       0x20 ../rtc_socket_bsp/\libucosii_bsp.a(alt_irq_register.o)
 .debug_aranges
                0x00000b40       0x20 ../rtc_socket_bsp/\libucosii_bsp.a(alt_isatty.o)
 .debug_aranges
                0x00000b60       0x20 ../rtc_socket_bsp/\libucosii_bsp.a(alt_lseek.o)
 .debug_aranges
                0x00000b80       0x20 ../rtc_socket_bsp/\libucosii_bsp.a(alt_main.o)
 .debug_aranges
                0x00000ba0       0x20 ../rtc_socket_bsp/\libucosii_bsp.a(alt_sbrk.o)
 .debug_aranges
                0x00000bc0       0x20 ../rtc_socket_bsp/\libucosii_bsp.a(alt_tick.o)
 .debug_aranges
                0x00000be0       0x20 ../rtc_socket_bsp/\libucosii_bsp.a(alt_usleep.o)
 .debug_aranges
                0x00000c00       0x20 ../rtc_socket_bsp/\libucosii_bsp.a(alt_env_lock.o)
 .debug_aranges
                0x00000c20       0x20 ../rtc_socket_bsp/\libucosii_bsp.a(alt_malloc_lock.o)
 .debug_aranges
                0x00000c40       0x20 ../rtc_socket_bsp/\libucosii_bsp.a(os_core.o)
 .debug_aranges
                0x00000c60       0x20 ../rtc_socket_bsp/\libucosii_bsp.a(os_dbg.o)
 .debug_aranges
                0x00000c80       0x20 ../rtc_socket_bsp/\libucosii_bsp.a(os_flag.o)
 .debug_aranges
                0x00000ca0       0x20 ../rtc_socket_bsp/\libucosii_bsp.a(os_mem.o)
 .debug_aranges
                0x00000cc0       0x20 ../rtc_socket_bsp/\libucosii_bsp.a(os_q.o)
 .debug_aranges
                0x00000ce0       0x20 ../rtc_socket_bsp/\libucosii_bsp.a(os_sem.o)
 .debug_aranges
                0x00000d00       0x20 ../rtc_socket_bsp/\libucosii_bsp.a(os_task.o)
 .debug_aranges
                0x00000d20       0x20 ../rtc_socket_bsp/\libucosii_bsp.a(os_time.o)
 .debug_aranges
                0x00000d40       0x20 ../rtc_socket_bsp/\libucosii_bsp.a(alt_sys_init.o)
 .debug_aranges
                0x00000d60       0x20 ../rtc_socket_bsp/\libucosii_bsp.a(altera_avalon_cfi_flash.o)
 .debug_aranges
                0x00000d80       0x20 ../rtc_socket_bsp/\libucosii_bsp.a(altera_avalon_cfi_flash_table.o)
 .debug_aranges
                0x00000da0       0x20 ../rtc_socket_bsp/\libucosii_bsp.a(altera_avalon_epcs_flash_controller.o)
 .debug_aranges
                0x00000dc0       0x20 ../rtc_socket_bsp/\libucosii_bsp.a(altera_avalon_jtag_uart_fd.o)
 .debug_aranges
                0x00000de0       0x20 ../rtc_socket_bsp/\libucosii_bsp.a(altera_avalon_jtag_uart_init.o)
 .debug_aranges
                0x00000e00       0x20 ../rtc_socket_bsp/\libucosii_bsp.a(altera_avalon_jtag_uart_ioctl.o)
 .debug_aranges
                0x00000e20       0x20 ../rtc_socket_bsp/\libucosii_bsp.a(altera_avalon_jtag_uart_read.o)
 .debug_aranges
                0x00000e40       0x20 ../rtc_socket_bsp/\libucosii_bsp.a(altera_avalon_jtag_uart_write.o)
 .debug_aranges
                0x00000e60       0x20 ../rtc_socket_bsp/\libucosii_bsp.a(altera_avalon_lcd_16207.o)
 .debug_aranges
                0x00000e80       0x20 ../rtc_socket_bsp/\libucosii_bsp.a(altera_avalon_lcd_16207_fd.o)
 .debug_aranges
                0x00000ea0       0x20 ../rtc_socket_bsp/\libucosii_bsp.a(altera_avalon_timer_sc.o)
 .debug_aranges
                0x00000ec0       0x20 ../rtc_socket_bsp/\libucosii_bsp.a(altera_avalon_uart_fd.o)
 .debug_aranges
                0x00000ee0       0x20 ../rtc_socket_bsp/\libucosii_bsp.a(altera_avalon_uart_init.o)
 .debug_aranges
                0x00000f00       0x20 ../rtc_socket_bsp/\libucosii_bsp.a(altera_avalon_uart_read.o)
 .debug_aranges
                0x00000f20       0x20 ../rtc_socket_bsp/\libucosii_bsp.a(altera_avalon_uart_write.o)
 .debug_aranges
                0x00000f40       0x20 ../rtc_socket_bsp/\libucosii_bsp.a(epcs_commands.o)
 .debug_aranges
                0x00000f60       0x20 ../rtc_socket_bsp/\libucosii_bsp.a(alt_iniche_close.o)
 .debug_aranges
                0x00000f80       0x20 ../rtc_socket_bsp/\libucosii_bsp.a(alt_iniche_dev.o)
 .debug_aranges
                0x00000fa0       0x20 ../rtc_socket_bsp/\libucosii_bsp.a(alt_iniche_read.o)
 .debug_aranges
                0x00000fc0       0x20 ../rtc_socket_bsp/\libucosii_bsp.a(alt_iniche_write.o)
 .debug_aranges
                0x00000fe0       0x20 ../rtc_socket_bsp/\libucosii_bsp.a(ipnet.o)
 .debug_aranges
                0x00001000       0x20 ../rtc_socket_bsp/\libucosii_bsp.a(ipstart.o)
 .debug_aranges
                0x00001020       0x20 ../rtc_socket_bsp/\libucosii_bsp.a(igmp_cmn.o)
 .debug_aranges
                0x00001040       0x20 ../rtc_socket_bsp/\libucosii_bsp.a(bsdsock.o)
 .debug_aranges
                0x00001060       0x20 ../rtc_socket_bsp/\libucosii_bsp.a(cksum.o)
 .debug_aranges
                0x00001080       0x20 ../rtc_socket_bsp/\libucosii_bsp.a(in_utils.o)
 .debug_aranges
                0x000010a0       0x20 ../rtc_socket_bsp/\libucosii_bsp.a(netmain.o)
 .debug_aranges
                0x000010c0       0x20 ../rtc_socket_bsp/\libucosii_bsp.a(parseip.o)
 .debug_aranges
                0x000010e0       0x20 ../rtc_socket_bsp/\libucosii_bsp.a(tk_crnos.o)
 .debug_aranges
                0x00001100       0x20 ../rtc_socket_bsp/\libucosii_bsp.a(dhcpclnt.o)
 .debug_aranges
                0x00001120       0x20 ../rtc_socket_bsp/\libucosii_bsp.a(dhcputil.o)
 .debug_aranges
                0x00001140       0x20 ../rtc_socket_bsp/\libucosii_bsp.a(pktalloc.o)
 .debug_aranges
                0x00001160       0x20 ../rtc_socket_bsp/\libucosii_bsp.a(q.o)
 .debug_aranges
                0x00001180       0x20 ../rtc_socket_bsp/\libucosii_bsp.a(udp_open.o)
 .debug_aranges
                0x000011a0       0x20 ../rtc_socket_bsp/\libucosii_bsp.a(asm_cksum.o)
 .debug_aranges
                0x000011c0       0x20 ../rtc_socket_bsp/\libucosii_bsp.a(brdutils.o)
 .debug_aranges
                0x000011e0       0x20 ../rtc_socket_bsp/\libucosii_bsp.a(osportco.o)
 .debug_aranges
                0x00001200       0x20 ../rtc_socket_bsp/\libucosii_bsp.a(targnios.o)
 .debug_aranges
                0x00001220       0x20 ../rtc_socket_bsp/\libucosii_bsp.a(nptcp.o)
 .debug_aranges
                0x00001240       0x20 ../rtc_socket_bsp/\libucosii_bsp.a(rawsock.o)
 .debug_aranges
                0x00001260       0x20 ../rtc_socket_bsp/\libucosii_bsp.a(sockcall.o)
 .debug_aranges
                0x00001280       0x20 ../rtc_socket_bsp/\libucosii_bsp.a(socket.o)
 .debug_aranges
                0x000012a0       0x20 ../rtc_socket_bsp/\libucosii_bsp.a(socket2.o)
 .debug_aranges
                0x000012c0       0x20 ../rtc_socket_bsp/\libucosii_bsp.a(soselect.o)
 .debug_aranges
                0x000012e0       0x20 ../rtc_socket_bsp/\libucosii_bsp.a(tcp_in.o)
 .debug_aranges
                0x00001300       0x20 ../rtc_socket_bsp/\libucosii_bsp.a(tcp_out.o)
 .debug_aranges
                0x00001320       0x20 ../rtc_socket_bsp/\libucosii_bsp.a(tcp_subr.o)
 .debug_aranges
                0x00001340       0x20 ../rtc_socket_bsp/\libucosii_bsp.a(tcp_timr.o)
 .debug_aranges
                0x00001360       0x20 ../rtc_socket_bsp/\libucosii_bsp.a(tcp_usr.o)
 .debug_aranges
                0x00001380       0x20 ../rtc_socket_bsp/\libucosii_bsp.a(tcpport.o)
 .debug_aranges
                0x000013a0       0x20 ../rtc_socket_bsp/\libucosii_bsp.a(udpsock.o)
 .debug_aranges
                0x000013c0       0x20 ../rtc_socket_bsp/\libucosii_bsp.a(alt_alarm_start.o)
 .debug_aranges
                0x000013e0       0x20 ../rtc_socket_bsp/\libucosii_bsp.a(alt_busy_sleep.o)
 .debug_aranges
                0x00001400       0x20 ../rtc_socket_bsp/\libucosii_bsp.a(alt_close.o)
 .debug_aranges
                0x00001420       0x20 ../rtc_socket_bsp/\libucosii_bsp.a(alt_dcache_flush.o)
 .debug_aranges
                0x00001440       0x20 ../rtc_socket_bsp/\libucosii_bsp.a(alt_dev.o)
 .debug_aranges
                0x00001460       0x20 ../rtc_socket_bsp/\libucosii_bsp.a(alt_dev_llist_insert.o)
 .debug_aranges
                0x00001480       0x20 ../rtc_socket_bsp/\libucosii_bsp.a(alt_do_ctors.o)
 .debug_aranges
                0x000014a0       0x20 ../rtc_socket_bsp/\libucosii_bsp.a(alt_do_dtors.o)
 .debug_aranges
                0x000014c0       0x20 ../rtc_socket_bsp/\libucosii_bsp.a(alt_find_dev.o)
 .debug_aranges
                0x000014e0       0x20 ../rtc_socket_bsp/\libucosii_bsp.a(alt_iic.o)
 .debug_aranges
                0x00001500       0x20 ../rtc_socket_bsp/\libucosii_bsp.a(alt_iic_isr_register.o)
 .debug_aranges
                0x00001520       0x20 ../rtc_socket_bsp/\libucosii_bsp.a(alt_io_redirect.o)
 .debug_aranges
                0x00001540       0x30 ../rtc_socket_bsp/\libucosii_bsp.a(alt_irq_entry.o)
 .debug_aranges
                0x00001570       0x28 ../rtc_socket_bsp/\libucosii_bsp.a(alt_irq_handler.o)
 .debug_aranges
                0x00001598       0x20 ../rtc_socket_bsp/\libucosii_bsp.a(alt_open.o)
 .debug_aranges
                0x000015b8       0x20 ../rtc_socket_bsp/\libucosii_bsp.a(alt_read.o)
 .debug_aranges
                0x000015d8       0x20 ../rtc_socket_bsp/\libucosii_bsp.a(alt_release_fd.o)
 .debug_aranges
                0x000015f8       0x20 ../rtc_socket_bsp/\libucosii_bsp.a(alt_remap_cached.o)
 .debug_aranges
                0x00001618       0x20 ../rtc_socket_bsp/\libucosii_bsp.a(alt_remap_uncached.o)
 .debug_aranges
                0x00001638       0x20 ../rtc_socket_bsp/\libucosii_bsp.a(alt_write.o)
 .debug_aranges
                0x00001658       0x20 ../rtc_socket_bsp/\libucosii_bsp.a(altera_nios2_qsys_irq.o)
 .debug_aranges
                0x00001678       0x20 ../rtc_socket_bsp/\libucosii_bsp.a(os_cpu_a.o)
 .debug_aranges
                0x00001698       0x20 ../rtc_socket_bsp/\libucosii_bsp.a(os_cpu_c.o)
 .debug_aranges
                0x000016b8       0x20 ../rtc_socket_bsp/\libucosii_bsp.a(altera_avalon_cfi_flash_amd.o)
 .debug_aranges
                0x000016d8       0x20 ../rtc_socket_bsp/\libucosii_bsp.a(altera_avalon_cfi_flash_intel.o)
 .debug_aranges
                0x000016f8       0x20 ../rtc_socket_bsp/\libucosii_bsp.a(altera_avalon_spi.o)
 .debug_aranges
                0x00001718       0x20 ../rtc_socket_bsp/\libucosii_bsp.a(allports.o)
 .debug_aranges
                0x00001738       0x20 ../rtc_socket_bsp/\libucosii_bsp.a(timeouts.o)
 .debug_aranges
                0x00001758       0x20 ../rtc_socket_bsp/\libucosii_bsp.a(tk_misc.o)
 .debug_aranges
                0x00001778       0x20 ../rtc_socket_bsp/\libucosii_bsp.a(alt_iniche_fcntl.o)
 .debug_aranges
                0x00001798       0x20 ../rtc_socket_bsp/\libucosii_bsp.a(et_arp.o)
 .debug_aranges
                0x000017b8       0x20 ../rtc_socket_bsp/\libucosii_bsp.a(iface.o)
 .debug_aranges
                0x000017d8       0x20 ../rtc_socket_bsp/\libucosii_bsp.a(ip.o)
 .debug_aranges
                0x000017f8       0x20 ../rtc_socket_bsp/\libucosii_bsp.a(ip_reasm.o)
 .debug_aranges
                0x00001818       0x20 ../rtc_socket_bsp/\libucosii_bsp.a(ipdemux.o)
 .debug_aranges
                0x00001838       0x20 ../rtc_socket_bsp/\libucosii_bsp.a(ipmc.o)
 .debug_aranges
                0x00001858       0x20 ../rtc_socket_bsp/\libucosii_bsp.a(ipport.o)
 .debug_aranges
                0x00001878       0x20 ../rtc_socket_bsp/\libucosii_bsp.a(ipraw.o)
 .debug_aranges
                0x00001898       0x20 ../rtc_socket_bsp/\libucosii_bsp.a(iproute.o)
 .debug_aranges
                0x000018b8       0x20 ../rtc_socket_bsp/\libucosii_bsp.a(udp.o)
 .debug_aranges
                0x000018d8       0x20 ../rtc_socket_bsp/\libucosii_bsp.a(igmp.o)
 .debug_aranges
                0x000018f8       0x20 ../rtc_socket_bsp/\libucosii_bsp.a(igmp2.o)
 .debug_aranges
                0x00001918       0x20 ../rtc_socket_bsp/\libucosii_bsp.a(ipopt.o)
 .debug_aranges
                0x00001938       0x20 ../rtc_socket_bsp/\libucosii_bsp.a(u_mctest.o)
 .debug_aranges
                0x00001958       0x20 ../rtc_socket_bsp/\libucosii_bsp.a(dhcsetup.o)
 .debug_aranges
                0x00001978       0x20 ../rtc_socket_bsp/\libucosii_bsp.a(memdev.o)
 .debug_aranges
                0x00001998       0x20 ../rtc_socket_bsp/\libucosii_bsp.a(tcpcksum.o)
 .debug_aranges
                0x000019b8       0x20 ../rtc_socket_bsp/\libucosii_bsp.a(in_pcb.o)
 .debug_aranges
                0x000019d8       0x20 ../rtc_socket_bsp/\libucosii_bsp.a(vfsfiles.o)
 .debug_aranges
                0x000019f8       0x20 ../rtc_socket_bsp/\libucosii_bsp.a(vfsport.o)
 .debug_aranges
                0x00001a18       0x38 ../rtc_socket_bsp/\libucosii_bsp.a(alt_exception_entry.o)
 .debug_aranges
                0x00001a50       0x20 ../rtc_socket_bsp/\libucosii_bsp.a(alt_fcntl.o)
 .debug_aranges
                0x00001a70       0x20 ../rtc_socket_bsp/\libucosii_bsp.a(alt_find_file.o)
 .debug_aranges
                0x00001a90       0x20 ../rtc_socket_bsp/\libucosii_bsp.a(alt_get_fd.o)
 .debug_aranges
                0x00001ab0       0x20 ../rtc_socket_bsp/\libucosii_bsp.a(icmp.o)
 .debug_aranges
                0x00001ad0       0x20 c:/altera/13.0sp1/nios2eds/bin/gnu/h-i686-mingw32/bin/../lib/gcc/nios2-elf/4.1.2/../../../../nios2-elf/lib\libc.a(lib_a-atexit.o)
 .debug_aranges
                0x00001af0       0x20 c:/altera/13.0sp1/nios2eds/bin/gnu/h-i686-mingw32/bin/../lib/gcc/nios2-elf/4.1.2/../../../../nios2-elf/lib\libc.a(lib_a-calloc.o)
 .debug_aranges
                0x00001b10       0x20 c:/altera/13.0sp1/nios2eds/bin/gnu/h-i686-mingw32/bin/../lib/gcc/nios2-elf/4.1.2/../../../../nios2-elf/lib\libc.a(lib_a-malloc.o)
 .debug_aranges
                0x00001b30       0x20 c:/altera/13.0sp1/nios2eds/bin/gnu/h-i686-mingw32/bin/../lib/gcc/nios2-elf/4.1.2/../../../../nios2-elf/lib\libc.a(lib_a-memcmp.o)
 .debug_aranges
                0x00001b50       0x20 c:/altera/13.0sp1/nios2eds/bin/gnu/h-i686-mingw32/bin/../lib/gcc/nios2-elf/4.1.2/../../../../nios2-elf/lib\libc.a(lib_a-strcpy.o)
 .debug_aranges
                0x00001b70       0x20 c:/altera/13.0sp1/nios2eds/bin/gnu/h-i686-mingw32/bin/../lib/gcc/nios2-elf/4.1.2/../../../../nios2-elf/lib\libc.a(lib_a-strncmp.o)
 .debug_aranges
                0x00001b90       0x20 c:/altera/13.0sp1/nios2eds/bin/gnu/h-i686-mingw32/bin/../lib/gcc/nios2-elf/4.1.2/../../../../nios2-elf/lib\libc.a(lib_a-strncpy.o)
 .debug_aranges
                0x00001bb0       0x20 c:/altera/13.0sp1/nios2eds/bin/gnu/h-i686-mingw32/bin/../lib/gcc/nios2-elf/4.1.2/../../../../nios2-elf/lib\libc.a(lib_a-vprintf.o)
 .debug_aranges
                0x00001bd0       0x20 c:/altera/13.0sp1/nios2eds/bin/gnu/h-i686-mingw32/bin/../lib/gcc/nios2-elf/4.1.2/../../../../nios2-elf/lib\libc.a(lib_a-vsprintf.o)
 .debug_aranges
                0x00001bf0       0x20 c:/altera/13.0sp1/nios2eds/bin/gnu/h-i686-mingw32/bin/../lib/gcc/nios2-elf/4.1.2/../../../../nios2-elf/lib\libc.a(lib_a-__atexit.o)

.debug_pubnames
                0x00000000     0x5713
 *(.debug_pubnames)
 .debug_pubnames
                0x00000000       0x68 obj/default/LCD.o
 .debug_pubnames
                0x00000068       0x7c obj/default/SSS_DE2_115.o
 .debug_pubnames
                0x000000e4       0x61 obj/default/alt_error_handler.o
 .debug_pubnames
                0x00000145      0x102 obj/default/dm9000a.o
 .debug_pubnames
                0x00000247       0xde obj/default/iniche_init.o
 .debug_pubnames
                0x00000325       0x54 obj/default/led.o
 .debug_pubnames
                0x00000379       0xc9 obj/default/network_utilities.o
 .debug_pubnames
                0x00000442      0x154 obj/default/simple_socket_server.o
 .debug_pubnames
                0x00000596       0x23 c:/altera/13.0sp1/nios2eds/bin/gnu/h-i686-mingw32/bin/../lib/gcc/nios2-elf/4.1.2\libgcc.a(_fixunsdfsi.o)
 .debug_pubnames
                0x000005b9       0x2c c:/altera/13.0sp1/nios2eds/bin/gnu/h-i686-mingw32/bin/../lib/gcc/nios2-elf/4.1.2\libgcc.a(_addsub_df.o)
 .debug_pubnames
                0x000005e5       0x1f c:/altera/13.0sp1/nios2eds/bin/gnu/h-i686-mingw32/bin/../lib/gcc/nios2-elf/4.1.2\libgcc.a(_mul_df.o)
 .debug_pubnames
                0x00000604       0x1e c:/altera/13.0sp1/nios2eds/bin/gnu/h-i686-mingw32/bin/../lib/gcc/nios2-elf/4.1.2\libgcc.a(_ge_df.o)
 .debug_pubnames
                0x00000622       0x20 c:/altera/13.0sp1/nios2eds/bin/gnu/h-i686-mingw32/bin/../lib/gcc/nios2-elf/4.1.2\libgcc.a(_df_to_si.o)
 .debug_pubnames
                0x00000642       0x22 c:/altera/13.0sp1/nios2eds/bin/gnu/h-i686-mingw32/bin/../lib/gcc/nios2-elf/4.1.2\libgcc.a(_thenan_df.o)
 .debug_pubnames
                0x00000664       0x24 c:/altera/13.0sp1/nios2eds/bin/gnu/h-i686-mingw32/bin/../lib/gcc/nios2-elf/4.1.2\libgcc.a(_usi_to_df.o)
 .debug_pubnames
                0x00000688       0x1f c:/altera/13.0sp1/nios2eds/bin/gnu/h-i686-mingw32/bin/../lib/gcc/nios2-elf/4.1.2\libgcc.a(_muldi3.o)
 .debug_pubnames
                0x000006a7       0x1f c:/altera/13.0sp1/nios2eds/bin/gnu/h-i686-mingw32/bin/../lib/gcc/nios2-elf/4.1.2\libgcc.a(_clzsi2.o)
 .debug_pubnames
                0x000006c6       0x1f c:/altera/13.0sp1/nios2eds/bin/gnu/h-i686-mingw32/bin/../lib/gcc/nios2-elf/4.1.2\libgcc.a(_pack_df.o)
 .debug_pubnames
                0x000006e5       0x21 c:/altera/13.0sp1/nios2eds/bin/gnu/h-i686-mingw32/bin/../lib/gcc/nios2-elf/4.1.2\libgcc.a(_unpack_df.o)
 .debug_pubnames
                0x00000706       0x26 c:/altera/13.0sp1/nios2eds/bin/gnu/h-i686-mingw32/bin/../lib/gcc/nios2-elf/4.1.2\libgcc.a(_fpcmp_parts_df.o)
 .debug_pubnames
                0x0000072c       0x20 c:/altera/13.0sp1/nios2eds/bin/gnu/h-i686-mingw32/bin/../lib/gcc/nios2-elf/4.1.2\libgcc.a(_clz.o)
 .debug_pubnames
                0x0000074c       0x27 c:/altera/13.0sp1/nios2eds/bin/gnu/h-i686-mingw32/bin/../lib/gcc/nios2-elf/4.1.2/../../../../nios2-elf/lib\libc.a(lib_a-atoi.o)
 .debug_pubnames
                0x00000773       0x2e c:/altera/13.0sp1/nios2eds/bin/gnu/h-i686-mingw32/bin/../lib/gcc/nios2-elf/4.1.2/../../../../nios2-elf/lib\libc.a(lib_a-ctype_.o)
 .debug_pubnames
                0x000007a1       0x1e c:/altera/13.0sp1/nios2eds/bin/gnu/h-i686-mingw32/bin/../lib/gcc/nios2-elf/4.1.2/../../../../nios2-elf/lib\libc.a(lib_a-errno.o)
 .debug_pubnames
                0x000007bf       0x1b c:/altera/13.0sp1/nios2eds/bin/gnu/h-i686-mingw32/bin/../lib/gcc/nios2-elf/4.1.2/../../../../nios2-elf/lib\libc.a(lib_a-exit.o)
 .debug_pubnames
                0x000007da       0x2d c:/altera/13.0sp1/nios2eds/bin/gnu/h-i686-mingw32/bin/../lib/gcc/nios2-elf/4.1.2/../../../../nios2-elf/lib\libc.a(lib_a-fprintf.o)
 .debug_pubnames
                0x00000807       0x2b c:/altera/13.0sp1/nios2eds/bin/gnu/h-i686-mingw32/bin/../lib/gcc/nios2-elf/4.1.2/../../../../nios2-elf/lib\libc.a(lib_a-fwrite.o)
 .debug_pubnames
                0x00000832       0x27 c:/altera/13.0sp1/nios2eds/bin/gnu/h-i686-mingw32/bin/../lib/gcc/nios2-elf/4.1.2/../../../../nios2-elf/lib\libc.a(lib_a-getc.o)
 .debug_pubnames
                0x00000859       0x39 c:/altera/13.0sp1/nios2eds/bin/gnu/h-i686-mingw32/bin/../lib/gcc/nios2-elf/4.1.2/../../../../nios2-elf/lib\libc.a(lib_a-impure.o)
 .debug_pubnames
                0x00000892       0x1d c:/altera/13.0sp1/nios2eds/bin/gnu/h-i686-mingw32/bin/../lib/gcc/nios2-elf/4.1.2/../../../../nios2-elf/lib\libc.a(lib_a-memcpy.o)
 .debug_pubnames
                0x000008af       0x1e c:/altera/13.0sp1/nios2eds/bin/gnu/h-i686-mingw32/bin/../lib/gcc/nios2-elf/4.1.2/../../../../nios2-elf/lib\libc.a(lib_a-memmove.o)
 .debug_pubnames
                0x000008cd       0x1d c:/altera/13.0sp1/nios2eds/bin/gnu/h-i686-mingw32/bin/../lib/gcc/nios2-elf/4.1.2/../../../../nios2-elf/lib\libc.a(lib_a-memset.o)
 .debug_pubnames
                0x000008ea       0x2b c:/altera/13.0sp1/nios2eds/bin/gnu/h-i686-mingw32/bin/../lib/gcc/nios2-elf/4.1.2/../../../../nios2-elf/lib\libc.a(lib_a-perror.o)
 .debug_pubnames
                0x00000915       0x2b c:/altera/13.0sp1/nios2eds/bin/gnu/h-i686-mingw32/bin/../lib/gcc/nios2-elf/4.1.2/../../../../nios2-elf/lib\libc.a(lib_a-printf.o)
 .debug_pubnames
                0x00000940       0x27 c:/altera/13.0sp1/nios2eds/bin/gnu/h-i686-mingw32/bin/../lib/gcc/nios2-elf/4.1.2/../../../../nios2-elf/lib\libc.a(lib_a-putc.o)
 .debug_pubnames
                0x00000967       0x2d c:/altera/13.0sp1/nios2eds/bin/gnu/h-i686-mingw32/bin/../lib/gcc/nios2-elf/4.1.2/../../../../nios2-elf/lib\libc.a(lib_a-putchar.o)
 .debug_pubnames
                0x00000994       0x27 c:/altera/13.0sp1/nios2eds/bin/gnu/h-i686-mingw32/bin/../lib/gcc/nios2-elf/4.1.2/../../../../nios2-elf/lib\libc.a(lib_a-puts.o)
 .debug_pubnames
                0x000009bb       0x25 c:/altera/13.0sp1/nios2eds/bin/gnu/h-i686-mingw32/bin/../lib/gcc/nios2-elf/4.1.2/../../../../nios2-elf/lib\libc.a(lib_a-rand.o)
 .debug_pubnames
                0x000009e0       0x2c c:/altera/13.0sp1/nios2eds/bin/gnu/h-i686-mingw32/bin/../lib/gcc/nios2-elf/4.1.2/../../../../nios2-elf/lib\libc.a(lib_a-rget.o)
 .debug_pubnames
                0x00000a0c       0x2d c:/altera/13.0sp1/nios2eds/bin/gnu/h-i686-mingw32/bin/../lib/gcc/nios2-elf/4.1.2/../../../../nios2-elf/lib\libc.a(lib_a-sprintf.o)
 .debug_pubnames
                0x00000a39       0x1d c:/altera/13.0sp1/nios2eds/bin/gnu/h-i686-mingw32/bin/../lib/gcc/nios2-elf/4.1.2/../../../../nios2-elf/lib\libc.a(lib_a-strchr.o)
 .debug_pubnames
                0x00000a56       0x1d c:/altera/13.0sp1/nios2eds/bin/gnu/h-i686-mingw32/bin/../lib/gcc/nios2-elf/4.1.2/../../../../nios2-elf/lib\libc.a(lib_a-strcmp.o)
 .debug_pubnames
                0x00000a73       0x1f c:/altera/13.0sp1/nios2eds/bin/gnu/h-i686-mingw32/bin/../lib/gcc/nios2-elf/4.1.2/../../../../nios2-elf/lib\libc.a(lib_a-strerror.o)
 .debug_pubnames
                0x00000a92       0x1d c:/altera/13.0sp1/nios2eds/bin/gnu/h-i686-mingw32/bin/../lib/gcc/nios2-elf/4.1.2/../../../../nios2-elf/lib\libc.a(lib_a-strlen.o)
 .debug_pubnames
                0x00000aaf       0x2b c:/altera/13.0sp1/nios2eds/bin/gnu/h-i686-mingw32/bin/../lib/gcc/nios2-elf/4.1.2/../../../../nios2-elf/lib\libc.a(lib_a-strtol.o)
 .debug_pubnames
                0x00000ada       0x1b c:/altera/13.0sp1/nios2eds/bin/gnu/h-i686-mingw32/bin/../lib/gcc/nios2-elf/4.1.2/../../../../nios2-elf/lib\libc.a(lib_a-time.o)
 .debug_pubnames
                0x00000af5       0x25 c:/altera/13.0sp1/nios2eds/bin/gnu/h-i686-mingw32/bin/../lib/gcc/nios2-elf/4.1.2/../../../../nios2-elf/lib\libc.a(lib_a-u_strerr.o)
 .debug_pubnames
                0x00000b1a       0x45 c:/altera/13.0sp1/nios2eds/bin/gnu/h-i686-mingw32/bin/../lib/gcc/nios2-elf/4.1.2/../../../../nios2-elf/lib\libc.a(lib_a-vfprintf.o)
 .debug_pubnames
                0x00000b5f       0x2c c:/altera/13.0sp1/nios2eds/bin/gnu/h-i686-mingw32/bin/../lib/gcc/nios2-elf/4.1.2/../../../../nios2-elf/lib\libc.a(lib_a-wbuf.o)
 .debug_pubnames
                0x00000b8b       0x22 c:/altera/13.0sp1/nios2eds/bin/gnu/h-i686-mingw32/bin/../lib/gcc/nios2-elf/4.1.2/../../../../nios2-elf/lib\libc.a(lib_a-wsetup.o)
 .debug_pubnames
                0x00000bad       0x27 c:/altera/13.0sp1/nios2eds/bin/gnu/h-i686-mingw32/bin/../lib/gcc/nios2-elf/4.1.2/../../../../nios2-elf/lib\libc.a(lib_a-__call_atexit.o)
 .debug_pubnames
                0x00000bd4       0x1e c:/altera/13.0sp1/nios2eds/bin/gnu/h-i686-mingw32/bin/../lib/gcc/nios2-elf/4.1.2/../../../../nios2-elf/lib\libc.a(lib_a-dtoa.o)
 .debug_pubnames
                0x00000bf2       0x2b c:/altera/13.0sp1/nios2eds/bin/gnu/h-i686-mingw32/bin/../lib/gcc/nios2-elf/4.1.2/../../../../nios2-elf/lib\libc.a(lib_a-fflush.o)
 .debug_pubnames
                0x00000c1d       0xdb c:/altera/13.0sp1/nios2eds/bin/gnu/h-i686-mingw32/bin/../lib/gcc/nios2-elf/4.1.2/../../../../nios2-elf/lib\libc.a(lib_a-findfp.o)
 .debug_pubnames
                0x00000cf8       0x29 c:/altera/13.0sp1/nios2eds/bin/gnu/h-i686-mingw32/bin/../lib/gcc/nios2-elf/4.1.2/../../../../nios2-elf/lib\libc.a(lib_a-fputc.o)
 .debug_pubnames
                0x00000d21       0x29 c:/altera/13.0sp1/nios2eds/bin/gnu/h-i686-mingw32/bin/../lib/gcc/nios2-elf/4.1.2/../../../../nios2-elf/lib\libc.a(lib_a-fputs.o)
 .debug_pubnames
                0x00000d4a       0x31 c:/altera/13.0sp1/nios2eds/bin/gnu/h-i686-mingw32/bin/../lib/gcc/nios2-elf/4.1.2/../../../../nios2-elf/lib\libc.a(lib_a-freer.o)
 .debug_pubnames
                0x00000d7b       0x23 c:/altera/13.0sp1/nios2eds/bin/gnu/h-i686-mingw32/bin/../lib/gcc/nios2-elf/4.1.2/../../../../nios2-elf/lib\libc.a(lib_a-fvwrite.o)
 .debug_pubnames
                0x00000d9e       0x2e c:/altera/13.0sp1/nios2eds/bin/gnu/h-i686-mingw32/bin/../lib/gcc/nios2-elf/4.1.2/../../../../nios2-elf/lib\libc.a(lib_a-fwalk.o)
 .debug_pubnames
                0x00000dcc       0x26 c:/altera/13.0sp1/nios2eds/bin/gnu/h-i686-mingw32/bin/../lib/gcc/nios2-elf/4.1.2/../../../../nios2-elf/lib\libc.a(lib_a-gettimeofdayr.o)
 .debug_pubnames
                0x00000df2       0x1c c:/altera/13.0sp1/nios2eds/bin/gnu/h-i686-mingw32/bin/../lib/gcc/nios2-elf/4.1.2/../../../../nios2-elf/lib\libc.a(lib_a-int_errno.o)
 .debug_pubnames
                0x00000e0e       0xc3 c:/altera/13.0sp1/nios2eds/bin/gnu/h-i686-mingw32/bin/../lib/gcc/nios2-elf/4.1.2/../../../../nios2-elf/lib\libc.a(lib_a-locale.o)
 .debug_pubnames
                0x00000ed1       0x23 c:/altera/13.0sp1/nios2eds/bin/gnu/h-i686-mingw32/bin/../lib/gcc/nios2-elf/4.1.2/../../../../nios2-elf/lib\libc.a(lib_a-makebuf.o)
 .debug_pubnames
                0x00000ef4       0xce c:/altera/13.0sp1/nios2eds/bin/gnu/h-i686-mingw32/bin/../lib/gcc/nios2-elf/4.1.2/../../../../nios2-elf/lib\libc.a(lib_a-mallocr.o)
 .debug_pubnames
                0x00000fc2       0x1d c:/altera/13.0sp1/nios2eds/bin/gnu/h-i686-mingw32/bin/../lib/gcc/nios2-elf/4.1.2/../../../../nios2-elf/lib\libc.a(lib_a-memchr.o)
 .debug_pubnames
                0x00000fdf      0x13a c:/altera/13.0sp1/nios2eds/bin/gnu/h-i686-mingw32/bin/../lib/gcc/nios2-elf/4.1.2/../../../../nios2-elf/lib\libc.a(lib_a-mprec.o)
 .debug_pubnames
                0x00001119       0x21 c:/altera/13.0sp1/nios2eds/bin/gnu/h-i686-mingw32/bin/../lib/gcc/nios2-elf/4.1.2/../../../../nios2-elf/lib\libc.a(lib_a-reallocr.o)
 .debug_pubnames
                0x0000113a       0x22 c:/altera/13.0sp1/nios2eds/bin/gnu/h-i686-mingw32/bin/../lib/gcc/nios2-elf/4.1.2/../../../../nios2-elf/lib\libc.a(lib_a-refill.o)
 .debug_pubnames
                0x0000115c       0x1f c:/altera/13.0sp1/nios2eds/bin/gnu/h-i686-mingw32/bin/../lib/gcc/nios2-elf/4.1.2/../../../../nios2-elf/lib\libc.a(lib_a-s_isinfd.o)
 .debug_pubnames
                0x0000117b       0x1f c:/altera/13.0sp1/nios2eds/bin/gnu/h-i686-mingw32/bin/../lib/gcc/nios2-elf/4.1.2/../../../../nios2-elf/lib\libc.a(lib_a-s_isnand.o)
 .debug_pubnames
                0x0000119a       0x1e c:/altera/13.0sp1/nios2eds/bin/gnu/h-i686-mingw32/bin/../lib/gcc/nios2-elf/4.1.2/../../../../nios2-elf/lib\libc.a(lib_a-sbrkr.o)
 .debug_pubnames
                0x000011b8       0x44 c:/altera/13.0sp1/nios2eds/bin/gnu/h-i686-mingw32/bin/../lib/gcc/nios2-elf/4.1.2/../../../../nios2-elf/lib\libc.a(lib_a-stdio.o)
 .debug_pubnames
                0x000011fc       0x1f c:/altera/13.0sp1/nios2eds/bin/gnu/h-i686-mingw32/bin/../lib/gcc/nios2-elf/4.1.2/../../../../nios2-elf/lib\libc.a(lib_a-writer.o)
 .debug_pubnames
                0x0000121b       0x20 c:/altera/13.0sp1/nios2eds/bin/gnu/h-i686-mingw32/bin/../lib/gcc/nios2-elf/4.1.2/../../../../nios2-elf/lib\libc.a(lib_a-callocr.o)
 .debug_pubnames
                0x0000123b       0x1f c:/altera/13.0sp1/nios2eds/bin/gnu/h-i686-mingw32/bin/../lib/gcc/nios2-elf/4.1.2/../../../../nios2-elf/lib\libc.a(lib_a-closer.o)
 .debug_pubnames
                0x0000125a       0x2b c:/altera/13.0sp1/nios2eds/bin/gnu/h-i686-mingw32/bin/../lib/gcc/nios2-elf/4.1.2/../../../../nios2-elf/lib\libc.a(lib_a-fclose.o)
 .debug_pubnames
                0x00001285       0x1f c:/altera/13.0sp1/nios2eds/bin/gnu/h-i686-mingw32/bin/../lib/gcc/nios2-elf/4.1.2/../../../../nios2-elf/lib\libc.a(lib_a-fstatr.o)
 .debug_pubnames
                0x000012a4       0x20 c:/altera/13.0sp1/nios2eds/bin/gnu/h-i686-mingw32/bin/../lib/gcc/nios2-elf/4.1.2/../../../../nios2-elf/lib\libc.a(lib_a-isattyr.o)
 .debug_pubnames
                0x000012c4       0x1f c:/altera/13.0sp1/nios2eds/bin/gnu/h-i686-mingw32/bin/../lib/gcc/nios2-elf/4.1.2/../../../../nios2-elf/lib\libc.a(lib_a-lseekr.o)
 .debug_pubnames
                0x000012e3       0x1e c:/altera/13.0sp1/nios2eds/bin/gnu/h-i686-mingw32/bin/../lib/gcc/nios2-elf/4.1.2/../../../../nios2-elf/lib\libc.a(lib_a-readr.o)
 .debug_pubnames
                0x00001301       0x20 c:/altera/13.0sp1/nios2eds/bin/gnu/h-i686-mingw32/bin/../lib/gcc/nios2-elf/4.1.2\libgcc.a(_udivdi3.o)
 .debug_pubnames
                0x00001321       0x20 c:/altera/13.0sp1/nios2eds/bin/gnu/h-i686-mingw32/bin/../lib/gcc/nios2-elf/4.1.2\libgcc.a(_umoddi3.o)
 .debug_pubnames
                0x00001341       0x1f c:/altera/13.0sp1/nios2eds/bin/gnu/h-i686-mingw32/bin/../lib/gcc/nios2-elf/4.1.2\libgcc.a(_div_df.o)
 .debug_pubnames
                0x00001360       0x1e c:/altera/13.0sp1/nios2eds/bin/gnu/h-i686-mingw32/bin/../lib/gcc/nios2-elf/4.1.2\libgcc.a(_eq_df.o)
 .debug_pubnames
                0x0000137e       0x1e c:/altera/13.0sp1/nios2eds/bin/gnu/h-i686-mingw32/bin/../lib/gcc/nios2-elf/4.1.2\libgcc.a(_ne_df.o)
 .debug_pubnames
                0x0000139c       0x1e c:/altera/13.0sp1/nios2eds/bin/gnu/h-i686-mingw32/bin/../lib/gcc/nios2-elf/4.1.2\libgcc.a(_gt_df.o)
 .debug_pubnames
                0x000013ba       0x1e c:/altera/13.0sp1/nios2eds/bin/gnu/h-i686-mingw32/bin/../lib/gcc/nios2-elf/4.1.2\libgcc.a(_lt_df.o)
 .debug_pubnames
                0x000013d8       0x22 c:/altera/13.0sp1/nios2eds/bin/gnu/h-i686-mingw32/bin/../lib/gcc/nios2-elf/4.1.2\libgcc.a(_si_to_df.o)
 .debug_pubnames
                0x000013fa       0x48 c:/altera/13.0sp1/nios2eds/bin/gnu/h-i686-mingw32/bin/../lib/gcc/nios2-elf/4.1.2\libgcc.a(lib2-divmod.o)
 .debug_pubnames
                0x00001442       0x1c ../rtc_socket_bsp/\libucosii_bsp.a(alt_exit.o)
 .debug_pubnames
                0x0000145e       0x58 ../rtc_socket_bsp/\libucosii_bsp.a(alt_flash_dev.o)
 .debug_pubnames
                0x000014b6       0x1c ../rtc_socket_bsp/\libucosii_bsp.a(alt_fstat.o)
 .debug_pubnames
                0x000014d2       0x46 ../rtc_socket_bsp/\libucosii_bsp.a(alt_gettod.o)
 .debug_pubnames
                0x00001518       0x27 ../rtc_socket_bsp/\libucosii_bsp.a(alt_irq_register.o)
 .debug_pubnames
                0x0000153f       0x3b ../rtc_socket_bsp/\libucosii_bsp.a(alt_irq_vars.o)
 .debug_pubnames
                0x0000157a       0x1d ../rtc_socket_bsp/\libucosii_bsp.a(alt_isatty.o)
 .debug_pubnames
                0x00001597       0x1c ../rtc_socket_bsp/\libucosii_bsp.a(alt_lseek.o)
 .debug_pubnames
                0x000015b3       0x46 ../rtc_socket_bsp/\libucosii_bsp.a(alt_main.o)
 .debug_pubnames
                0x000015f9       0x1b ../rtc_socket_bsp/\libucosii_bsp.a(alt_sbrk.o)
 .debug_pubnames
                0x00001614       0x68 ../rtc_socket_bsp/\libucosii_bsp.a(alt_tick.o)
 .debug_pubnames
                0x0000167c       0x1d ../rtc_socket_bsp/\libucosii_bsp.a(alt_usleep.o)
 .debug_pubnames
                0x00001699       0x41 ../rtc_socket_bsp/\libucosii_bsp.a(alt_env_lock.o)
 .debug_pubnames
                0x000016da       0x48 ../rtc_socket_bsp/\libucosii_bsp.a(alt_malloc_lock.o)
 .debug_pubnames
                0x00001722      0x3f8 ../rtc_socket_bsp/\libucosii_bsp.a(os_core.o)
 .debug_pubnames
                0x00001b1a      0x3c5 ../rtc_socket_bsp/\libucosii_bsp.a(os_dbg.o)
 .debug_pubnames
                0x00001edf       0xd0 ../rtc_socket_bsp/\libucosii_bsp.a(os_flag.o)
 .debug_pubnames
                0x00001faf       0x7c ../rtc_socket_bsp/\libucosii_bsp.a(os_mem.o)
 .debug_pubnames
                0x0000202b       0xa9 ../rtc_socket_bsp/\libucosii_bsp.a(os_q.o)
 .debug_pubnames
                0x000020d4       0x8a ../rtc_socket_bsp/\libucosii_bsp.a(os_sem.o)
 .debug_pubnames
                0x0000215e       0xe5 ../rtc_socket_bsp/\libucosii_bsp.a(os_task.o)
 .debug_pubnames
                0x00002243       0x62 ../rtc_socket_bsp/\libucosii_bsp.a(os_time.o)
 .debug_pubnames
                0x000022a5       0x34 ../rtc_socket_bsp/\libucosii_bsp.a(alt_sys_init.o)
 .debug_pubnames
                0x000022d9       0xac ../rtc_socket_bsp/\libucosii_bsp.a(altera_avalon_cfi_flash.o)
 .debug_pubnames
                0x00002385      0x27a ../rtc_socket_bsp/\libucosii_bsp.a(altera_avalon_cfi_flash_table.o)
 .debug_pubnames
                0x000025ff       0xb5 ../rtc_socket_bsp/\libucosii_bsp.a(altera_avalon_epcs_flash_controller.o)
 .debug_pubnames
                0x000026b4       0xa5 ../rtc_socket_bsp/\libucosii_bsp.a(altera_avalon_jtag_uart_fd.o)
 .debug_pubnames
                0x00002759       0x55 ../rtc_socket_bsp/\libucosii_bsp.a(altera_avalon_jtag_uart_init.o)
 .debug_pubnames
                0x000027ae       0x34 ../rtc_socket_bsp/\libucosii_bsp.a(altera_avalon_jtag_uart_ioctl.o)
 .debug_pubnames
                0x000027e2       0x33 ../rtc_socket_bsp/\libucosii_bsp.a(altera_avalon_jtag_uart_read.o)
 .debug_pubnames
                0x00002815       0x34 ../rtc_socket_bsp/\libucosii_bsp.a(altera_avalon_jtag_uart_write.o)
 .debug_pubnames
                0x00002849       0x55 ../rtc_socket_bsp/\libucosii_bsp.a(altera_avalon_lcd_16207.o)
 .debug_pubnames
                0x0000289e       0x37 ../rtc_socket_bsp/\libucosii_bsp.a(altera_avalon_lcd_16207_fd.o)
 .debug_pubnames
                0x000028d5       0x2f ../rtc_socket_bsp/\libucosii_bsp.a(altera_avalon_timer_sc.o)
 .debug_pubnames
                0x00002904       0x71 ../rtc_socket_bsp/\libucosii_bsp.a(altera_avalon_uart_fd.o)
 .debug_pubnames
                0x00002975       0x4b ../rtc_socket_bsp/\libucosii_bsp.a(altera_avalon_uart_init.o)
 .debug_pubnames
                0x000029c0       0x2e ../rtc_socket_bsp/\libucosii_bsp.a(altera_avalon_uart_read.o)
 .debug_pubnames
                0x000029ee       0x2f ../rtc_socket_bsp/\libucosii_bsp.a(altera_avalon_uart_write.o)
 .debug_pubnames
                0x00002a1d      0x118 ../rtc_socket_bsp/\libucosii_bsp.a(epcs_commands.o)
 .debug_pubnames
                0x00002b35       0x1c ../rtc_socket_bsp/\libucosii_bsp.a(alt_iniche_close.o)
 .debug_pubnames
                0x00002b51       0x42 ../rtc_socket_bsp/\libucosii_bsp.a(alt_iniche_dev.o)
 .debug_pubnames
                0x00002b93       0x1b ../rtc_socket_bsp/\libucosii_bsp.a(alt_iniche_read.o)
 .debug_pubnames
                0x00002bae       0x1c ../rtc_socket_bsp/\libucosii_bsp.a(alt_iniche_write.o)
 .debug_pubnames
                0x00002bca       0x90 ../rtc_socket_bsp/\libucosii_bsp.a(ipnet.o)
 .debug_pubnames
                0x00002c5a       0x81 ../rtc_socket_bsp/\libucosii_bsp.a(ipstart.o)
 .debug_pubnames
                0x00002cdb      0x108 ../rtc_socket_bsp/\libucosii_bsp.a(igmp_cmn.o)
 .debug_pubnames
                0x00002de3       0xc4 ../rtc_socket_bsp/\libucosii_bsp.a(bsdsock.o)
 .debug_pubnames
                0x00002ea7       0x27 ../rtc_socket_bsp/\libucosii_bsp.a(cksum.o)
 .debug_pubnames
                0x00002ece       0xcc ../rtc_socket_bsp/\libucosii_bsp.a(in_utils.o)
 .debug_pubnames
                0x00002f9a       0xb2 ../rtc_socket_bsp/\libucosii_bsp.a(netmain.o)
 .debug_pubnames
                0x0000304c       0xa6 ../rtc_socket_bsp/\libucosii_bsp.a(parseip.o)
 .debug_pubnames
                0x000030f2       0x97 ../rtc_socket_bsp/\libucosii_bsp.a(tk_crnos.o)
 .debug_pubnames
                0x00003189      0x252 ../rtc_socket_bsp/\libucosii_bsp.a(dhcpclnt.o)
 .debug_pubnames
                0x000033db       0x1f ../rtc_socket_bsp/\libucosii_bsp.a(dhcputil.o)
 .debug_pubnames
                0x000033fa       0xe2 ../rtc_socket_bsp/\libucosii_bsp.a(pktalloc.o)
 .debug_pubnames
                0x000034dc       0x2d ../rtc_socket_bsp/\libucosii_bsp.a(q.o)
 .debug_pubnames
                0x00003509       0x3a ../rtc_socket_bsp/\libucosii_bsp.a(udp_open.o)
 .debug_pubnames
                0x00003543       0xc5 ../rtc_socket_bsp/\libucosii_bsp.a(brdutils.o)
 .debug_pubnames
                0x00003608      0x10c ../rtc_socket_bsp/\libucosii_bsp.a(osportco.o)
 .debug_pubnames
                0x00003714       0xf5 ../rtc_socket_bsp/\libucosii_bsp.a(targnios.o)
 .debug_pubnames
                0x00003809      0x190 ../rtc_socket_bsp/\libucosii_bsp.a(nptcp.o)
 .debug_pubnames
                0x00003999       0x46 ../rtc_socket_bsp/\libucosii_bsp.a(rawsock.o)
 .debug_pubnames
                0x000039df      0x108 ../rtc_socket_bsp/\libucosii_bsp.a(sockcall.o)
 .debug_pubnames
                0x00003ae7       0xfc ../rtc_socket_bsp/\libucosii_bsp.a(socket.o)
 .debug_pubnames
                0x00003be3      0x178 ../rtc_socket_bsp/\libucosii_bsp.a(socket2.o)
 .debug_pubnames
                0x00003d5b       0x92 ../rtc_socket_bsp/\libucosii_bsp.a(soselect.o)
 .debug_pubnames
                0x00003ded       0xc2 ../rtc_socket_bsp/\libucosii_bsp.a(tcp_in.o)
 .debug_pubnames
                0x00003eaf       0x57 ../rtc_socket_bsp/\libucosii_bsp.a(tcp_out.o)
 .debug_pubnames
                0x00003f06       0xb9 ../rtc_socket_bsp/\libucosii_bsp.a(tcp_subr.o)
 .debug_pubnames
                0x00003fbf       0x96 ../rtc_socket_bsp/\libucosii_bsp.a(tcp_timr.o)
 .debug_pubnames
                0x00004055       0x79 ../rtc_socket_bsp/\libucosii_bsp.a(tcp_usr.o)
 .debug_pubnames
                0x000040ce       0x1e ../rtc_socket_bsp/\libucosii_bsp.a(tcpport.o)
 .debug_pubnames
                0x000040ec       0x76 ../rtc_socket_bsp/\libucosii_bsp.a(udpsock.o)
 .debug_pubnames
                0x00004162       0x26 ../rtc_socket_bsp/\libucosii_bsp.a(alt_alarm_start.o)
 .debug_pubnames
                0x00004188       0x25 ../rtc_socket_bsp/\libucosii_bsp.a(alt_busy_sleep.o)
 .debug_pubnames
                0x000041ad       0x20 ../rtc_socket_bsp/\libucosii_bsp.a(alt_close.o)
 .debug_pubnames
                0x000041cd       0x27 ../rtc_socket_bsp/\libucosii_bsp.a(alt_dcache_flush.o)
 .debug_pubnames
                0x000041f4       0x78 ../rtc_socket_bsp/\libucosii_bsp.a(alt_dev.o)
 .debug_pubnames
                0x0000426c       0x2b ../rtc_socket_bsp/\libucosii_bsp.a(alt_dev_llist_insert.o)
 .debug_pubnames
                0x00004297       0x20 ../rtc_socket_bsp/\libucosii_bsp.a(alt_do_ctors.o)
 .debug_pubnames
                0x000042b7       0x20 ../rtc_socket_bsp/\libucosii_bsp.a(alt_do_dtors.o)
 .debug_pubnames
                0x000042d7       0x20 ../rtc_socket_bsp/\libucosii_bsp.a(alt_errno.o)
 .debug_pubnames
                0x000042f7       0x23 ../rtc_socket_bsp/\libucosii_bsp.a(alt_find_dev.o)
 .debug_pubnames
                0x0000431a       0x6e ../rtc_socket_bsp/\libucosii_bsp.a(alt_iic.o)
 .debug_pubnames
                0x00004388       0x2b ../rtc_socket_bsp/\libucosii_bsp.a(alt_iic_isr_register.o)
 .debug_pubnames
                0x000043b3       0x26 ../rtc_socket_bsp/\libucosii_bsp.a(alt_io_redirect.o)
 .debug_pubnames
                0x000043d9       0x32 ../rtc_socket_bsp/\libucosii_bsp.a(alt_irq_handler.o)
 .debug_pubnames
                0x0000440b       0x1b ../rtc_socket_bsp/\libucosii_bsp.a(alt_open.o)
 .debug_pubnames
                0x00004426       0x1f ../rtc_socket_bsp/\libucosii_bsp.a(alt_read.o)
 .debug_pubnames
                0x00004445       0x25 ../rtc_socket_bsp/\libucosii_bsp.a(alt_release_fd.o)
 .debug_pubnames
                0x0000446a       0x27 ../rtc_socket_bsp/\libucosii_bsp.a(alt_remap_cached.o)
 .debug_pubnames
                0x00004491       0x29 ../rtc_socket_bsp/\libucosii_bsp.a(alt_remap_uncached.o)
 .debug_pubnames
                0x000044ba       0x20 ../rtc_socket_bsp/\libucosii_bsp.a(alt_write.o)
 .debug_pubnames
                0x000044da       0x31 ../rtc_socket_bsp/\libucosii_bsp.a(altera_nios2_qsys_irq.o)
 .debug_pubnames
                0x0000450b       0xcd ../rtc_socket_bsp/\libucosii_bsp.a(os_cpu_c.o)
 .debug_pubnames
                0x000045d8       0x3e ../rtc_socket_bsp/\libucosii_bsp.a(altera_avalon_cfi_flash_amd.o)
 .debug_pubnames
                0x00004616       0x42 ../rtc_socket_bsp/\libucosii_bsp.a(altera_avalon_cfi_flash_intel.o)
 .debug_pubnames
                0x00004658       0x2d ../rtc_socket_bsp/\libucosii_bsp.a(altera_avalon_spi.o)
 .debug_pubnames
                0x00004685       0xd4 ../rtc_socket_bsp/\libucosii_bsp.a(allports.o)
 .debug_pubnames
                0x00004759       0x6f ../rtc_socket_bsp/\libucosii_bsp.a(timeouts.o)
 .debug_pubnames
                0x000047c8       0x35 ../rtc_socket_bsp/\libucosii_bsp.a(tk_misc.o)
 .debug_pubnames
                0x000047fd       0x1c ../rtc_socket_bsp/\libucosii_bsp.a(alt_iniche_fcntl.o)
 .debug_pubnames
                0x00004819      0x134 ../rtc_socket_bsp/\libucosii_bsp.a(et_arp.o)
 .debug_pubnames
                0x0000494d       0x58 ../rtc_socket_bsp/\libucosii_bsp.a(iface.o)
 .debug_pubnames
                0x000049a5       0xea ../rtc_socket_bsp/\libucosii_bsp.a(ip.o)
 .debug_pubnames
                0x00004a8f      0x22e ../rtc_socket_bsp/\libucosii_bsp.a(ip_reasm.o)
 .debug_pubnames
                0x00004cbd       0x3c ../rtc_socket_bsp/\libucosii_bsp.a(ipdemux.o)
 .debug_pubnames
                0x00004cf9       0x43 ../rtc_socket_bsp/\libucosii_bsp.a(ipmc.o)
 .debug_pubnames
                0x00004d3c       0x99 ../rtc_socket_bsp/\libucosii_bsp.a(ipport.o)
 .debug_pubnames
                0x00004dd5       0x87 ../rtc_socket_bsp/\libucosii_bsp.a(ipraw.o)
 .debug_pubnames
                0x00004e5c       0x5d ../rtc_socket_bsp/\libucosii_bsp.a(iproute.o)
 .debug_pubnames
                0x00004eb9       0x7f ../rtc_socket_bsp/\libucosii_bsp.a(udp.o)
 .debug_pubnames
                0x00004f38       0x23 ../rtc_socket_bsp/\libucosii_bsp.a(igmp.o)
 .debug_pubnames
                0x00004f5b       0x8d ../rtc_socket_bsp/\libucosii_bsp.a(igmp2.o)
 .debug_pubnames
                0x00004fe8       0x5f ../rtc_socket_bsp/\libucosii_bsp.a(ipopt.o)
 .debug_pubnames
                0x00005047       0x35 ../rtc_socket_bsp/\libucosii_bsp.a(u_mctest.o)
 .debug_pubnames
                0x0000507c       0x33 ../rtc_socket_bsp/\libucosii_bsp.a(dhcsetup.o)
 .debug_pubnames
                0x000050af       0xb1 ../rtc_socket_bsp/\libucosii_bsp.a(memdev.o)
 .debug_pubnames
                0x00005160       0x20 ../rtc_socket_bsp/\libucosii_bsp.a(tcpcksum.o)
 .debug_pubnames
                0x00005180       0xc8 ../rtc_socket_bsp/\libucosii_bsp.a(in_pcb.o)
 .debug_pubnames
                0x00005248      0x278 ../rtc_socket_bsp/\libucosii_bsp.a(vfsfiles.o)
 .debug_pubnames
                0x000054c0       0x1f ../rtc_socket_bsp/\libucosii_bsp.a(vfsport.o)
 .debug_pubnames
                0x000054df       0x20 ../rtc_socket_bsp/\libucosii_bsp.a(alt_fcntl.o)
 .debug_pubnames
                0x000054ff       0x24 ../rtc_socket_bsp/\libucosii_bsp.a(alt_find_file.o)
 .debug_pubnames
                0x00005523       0x21 ../rtc_socket_bsp/\libucosii_bsp.a(alt_get_fd.o)
 .debug_pubnames
                0x00005544       0x66 ../rtc_socket_bsp/\libucosii_bsp.a(icmp.o)
 .debug_pubnames
                0x000055aa       0x2a c:/altera/13.0sp1/nios2eds/bin/gnu/h-i686-mingw32/bin/../lib/gcc/nios2-elf/4.1.2/../../../../nios2-elf/lib\libc.a(lib_a-atexit.o)
 .debug_pubnames
                0x000055d4       0x1d c:/altera/13.0sp1/nios2eds/bin/gnu/h-i686-mingw32/bin/../lib/gcc/nios2-elf/4.1.2/../../../../nios2-elf/lib\libc.a(lib_a-calloc.o)
 .debug_pubnames
                0x000055f1       0x26 c:/altera/13.0sp1/nios2eds/bin/gnu/h-i686-mingw32/bin/../lib/gcc/nios2-elf/4.1.2/../../../../nios2-elf/lib\libc.a(lib_a-malloc.o)
 .debug_pubnames
                0x00005617       0x1d c:/altera/13.0sp1/nios2eds/bin/gnu/h-i686-mingw32/bin/../lib/gcc/nios2-elf/4.1.2/../../../../nios2-elf/lib\libc.a(lib_a-memcmp.o)
 .debug_pubnames
                0x00005634       0x1d c:/altera/13.0sp1/nios2eds/bin/gnu/h-i686-mingw32/bin/../lib/gcc/nios2-elf/4.1.2/../../../../nios2-elf/lib\libc.a(lib_a-strcpy.o)
 .debug_pubnames
                0x00005651       0x1e c:/altera/13.0sp1/nios2eds/bin/gnu/h-i686-mingw32/bin/../lib/gcc/nios2-elf/4.1.2/../../../../nios2-elf/lib\libc.a(lib_a-strncmp.o)
 .debug_pubnames
                0x0000566f       0x1e c:/altera/13.0sp1/nios2eds/bin/gnu/h-i686-mingw32/bin/../lib/gcc/nios2-elf/4.1.2/../../../../nios2-elf/lib\libc.a(lib_a-strncpy.o)
 .debug_pubnames
                0x0000568d       0x2d c:/altera/13.0sp1/nios2eds/bin/gnu/h-i686-mingw32/bin/../lib/gcc/nios2-elf/4.1.2/../../../../nios2-elf/lib\libc.a(lib_a-vprintf.o)
 .debug_pubnames
                0x000056ba       0x2f c:/altera/13.0sp1/nios2eds/bin/gnu/h-i686-mingw32/bin/../lib/gcc/nios2-elf/4.1.2/../../../../nios2-elf/lib\libc.a(lib_a-vsprintf.o)
 .debug_pubnames
                0x000056e9       0x2a c:/altera/13.0sp1/nios2eds/bin/gnu/h-i686-mingw32/bin/../lib/gcc/nios2-elf/4.1.2/../../../../nios2-elf/lib\libc.a(lib_a-__atexit.o)

.debug_info     0x00000000    0x8068d
 *(.debug_info .gnu.linkonce.wi.*)
 .debug_info    0x00000000       0x85 ../rtc_socket_bsp//obj/HAL/src/crt0.o
 .debug_info    0x00000085      0x236 obj/default/LCD.o
 .debug_info    0x000002bb      0x72f obj/default/SSS_DE2_115.o
 .debug_info    0x000009ea      0xd76 obj/default/alt_error_handler.o
 .debug_info    0x00001760     0x1263 obj/default/dm9000a.o
 .debug_info    0x000029c3      0xfc8 obj/default/iniche_init.o
 .debug_info    0x0000398b      0x47c obj/default/led.o
 .debug_info    0x00003e07     0x1ba3 obj/default/network_utilities.o
 .debug_info    0x000059aa      0x94e obj/default/simple_socket_server.o
 .debug_info    0x000062f8        0x0 obj/default/tse_my_system.o
 .debug_info    0x000062f8       0xce c:/altera/13.0sp1/nios2eds/bin/gnu/h-i686-mingw32/bin/../lib/gcc/nios2-elf/4.1.2\libgcc.a(_fixunsdfsi.o)
 .debug_info    0x000063c6      0x493 c:/altera/13.0sp1/nios2eds/bin/gnu/h-i686-mingw32/bin/../lib/gcc/nios2-elf/4.1.2\libgcc.a(_addsub_df.o)
 .debug_info    0x00006859      0x488 c:/altera/13.0sp1/nios2eds/bin/gnu/h-i686-mingw32/bin/../lib/gcc/nios2-elf/4.1.2\libgcc.a(_mul_df.o)
 .debug_info    0x00006ce1      0x29d c:/altera/13.0sp1/nios2eds/bin/gnu/h-i686-mingw32/bin/../lib/gcc/nios2-elf/4.1.2\libgcc.a(_ge_df.o)
 .debug_info    0x00006f7e      0x2cd c:/altera/13.0sp1/nios2eds/bin/gnu/h-i686-mingw32/bin/../lib/gcc/nios2-elf/4.1.2\libgcc.a(_df_to_si.o)
 .debug_info    0x0000724b      0x164 c:/altera/13.0sp1/nios2eds/bin/gnu/h-i686-mingw32/bin/../lib/gcc/nios2-elf/4.1.2\libgcc.a(_thenan_df.o)
 .debug_info    0x000073af      0x213 c:/altera/13.0sp1/nios2eds/bin/gnu/h-i686-mingw32/bin/../lib/gcc/nios2-elf/4.1.2\libgcc.a(_usi_to_df.o)
 .debug_info    0x000075c2      0x215 c:/altera/13.0sp1/nios2eds/bin/gnu/h-i686-mingw32/bin/../lib/gcc/nios2-elf/4.1.2\libgcc.a(_muldi3.o)
 .debug_info    0x000077d7      0x130 c:/altera/13.0sp1/nios2eds/bin/gnu/h-i686-mingw32/bin/../lib/gcc/nios2-elf/4.1.2\libgcc.a(_clzsi2.o)
 .debug_info    0x00007907      0x2fc c:/altera/13.0sp1/nios2eds/bin/gnu/h-i686-mingw32/bin/../lib/gcc/nios2-elf/4.1.2\libgcc.a(_pack_df.o)
 .debug_info    0x00007c03      0x268 c:/altera/13.0sp1/nios2eds/bin/gnu/h-i686-mingw32/bin/../lib/gcc/nios2-elf/4.1.2\libgcc.a(_unpack_df.o)
 .debug_info    0x00007e6b      0x21b c:/altera/13.0sp1/nios2eds/bin/gnu/h-i686-mingw32/bin/../lib/gcc/nios2-elf/4.1.2\libgcc.a(_fpcmp_parts_df.o)
 .debug_info    0x00008086       0xc9 c:/altera/13.0sp1/nios2eds/bin/gnu/h-i686-mingw32/bin/../lib/gcc/nios2-elf/4.1.2\libgcc.a(_clz.o)
 .debug_info    0x0000814f      0x960 c:/altera/13.0sp1/nios2eds/bin/gnu/h-i686-mingw32/bin/../lib/gcc/nios2-elf/4.1.2/../../../../nios2-elf/lib\libc.a(lib_a-atoi.o)
 .debug_info    0x00008aaf       0xa0 c:/altera/13.0sp1/nios2eds/bin/gnu/h-i686-mingw32/bin/../lib/gcc/nios2-elf/4.1.2/../../../../nios2-elf/lib\libc.a(lib_a-ctype_.o)
 .debug_info    0x00008b4f      0x92e c:/altera/13.0sp1/nios2eds/bin/gnu/h-i686-mingw32/bin/../lib/gcc/nios2-elf/4.1.2/../../../../nios2-elf/lib\libc.a(lib_a-errno.o)
 .debug_info    0x0000947d      0x93f c:/altera/13.0sp1/nios2eds/bin/gnu/h-i686-mingw32/bin/../lib/gcc/nios2-elf/4.1.2/../../../../nios2-elf/lib\libc.a(lib_a-exit.o)
 .debug_info    0x00009dbc      0x9e1 c:/altera/13.0sp1/nios2eds/bin/gnu/h-i686-mingw32/bin/../lib/gcc/nios2-elf/4.1.2/../../../../nios2-elf/lib\libc.a(lib_a-fprintf.o)
 .debug_info    0x0000a79d      0xa83 c:/altera/13.0sp1/nios2eds/bin/gnu/h-i686-mingw32/bin/../lib/gcc/nios2-elf/4.1.2/../../../../nios2-elf/lib\libc.a(lib_a-fwrite.o)
 .debug_info    0x0000b220      0x9a7 c:/altera/13.0sp1/nios2eds/bin/gnu/h-i686-mingw32/bin/../lib/gcc/nios2-elf/4.1.2/../../../../nios2-elf/lib\libc.a(lib_a-getc.o)
 .debug_info    0x0000bbc7      0x93d c:/altera/13.0sp1/nios2eds/bin/gnu/h-i686-mingw32/bin/../lib/gcc/nios2-elf/4.1.2/../../../../nios2-elf/lib\libc.a(lib_a-impure.o)
 .debug_info    0x0000c504      0x106 c:/altera/13.0sp1/nios2eds/bin/gnu/h-i686-mingw32/bin/../lib/gcc/nios2-elf/4.1.2/../../../../nios2-elf/lib\libc.a(lib_a-memcpy.o)
 .debug_info    0x0000c60a      0x13e c:/altera/13.0sp1/nios2eds/bin/gnu/h-i686-mingw32/bin/../lib/gcc/nios2-elf/4.1.2/../../../../nios2-elf/lib\libc.a(lib_a-memmove.o)
 .debug_info    0x0000c748      0x113 c:/altera/13.0sp1/nios2eds/bin/gnu/h-i686-mingw32/bin/../lib/gcc/nios2-elf/4.1.2/../../../../nios2-elf/lib\libc.a(lib_a-memset.o)
 .debug_info    0x0000c85b      0x97b c:/altera/13.0sp1/nios2eds/bin/gnu/h-i686-mingw32/bin/../lib/gcc/nios2-elf/4.1.2/../../../../nios2-elf/lib\libc.a(lib_a-perror.o)
 .debug_info    0x0000d1d6      0x9d1 c:/altera/13.0sp1/nios2eds/bin/gnu/h-i686-mingw32/bin/../lib/gcc/nios2-elf/4.1.2/../../../../nios2-elf/lib\libc.a(lib_a-printf.o)
 .debug_info    0x0000dba7      0x9c1 c:/altera/13.0sp1/nios2eds/bin/gnu/h-i686-mingw32/bin/../lib/gcc/nios2-elf/4.1.2/../../../../nios2-elf/lib\libc.a(lib_a-putc.o)
 .debug_info    0x0000e568      0x972 c:/altera/13.0sp1/nios2eds/bin/gnu/h-i686-mingw32/bin/../lib/gcc/nios2-elf/4.1.2/../../../../nios2-elf/lib\libc.a(lib_a-putchar.o)
 .debug_info    0x0000eeda      0xa25 c:/altera/13.0sp1/nios2eds/bin/gnu/h-i686-mingw32/bin/../lib/gcc/nios2-elf/4.1.2/../../../../nios2-elf/lib\libc.a(lib_a-puts.o)
 .debug_info    0x0000f8ff      0x951 c:/altera/13.0sp1/nios2eds/bin/gnu/h-i686-mingw32/bin/../lib/gcc/nios2-elf/4.1.2/../../../../nios2-elf/lib\libc.a(lib_a-rand.o)
 .debug_info    0x00010250      0x987 c:/altera/13.0sp1/nios2eds/bin/gnu/h-i686-mingw32/bin/../lib/gcc/nios2-elf/4.1.2/../../../../nios2-elf/lib\libc.a(lib_a-rget.o)
 .debug_info    0x00010bd7      0xa16 c:/altera/13.0sp1/nios2eds/bin/gnu/h-i686-mingw32/bin/../lib/gcc/nios2-elf/4.1.2/../../../../nios2-elf/lib\libc.a(lib_a-sprintf.o)
 .debug_info    0x000115ed      0x118 c:/altera/13.0sp1/nios2eds/bin/gnu/h-i686-mingw32/bin/../lib/gcc/nios2-elf/4.1.2/../../../../nios2-elf/lib\libc.a(lib_a-strchr.o)
 .debug_info    0x00011705       0xdd c:/altera/13.0sp1/nios2eds/bin/gnu/h-i686-mingw32/bin/../lib/gcc/nios2-elf/4.1.2/../../../../nios2-elf/lib\libc.a(lib_a-strcmp.o)
 .debug_info    0x000117e2       0xbb c:/altera/13.0sp1/nios2eds/bin/gnu/h-i686-mingw32/bin/../lib/gcc/nios2-elf/4.1.2/../../../../nios2-elf/lib\libc.a(lib_a-strerror.o)
 .debug_info    0x0001189d       0xdb c:/altera/13.0sp1/nios2eds/bin/gnu/h-i686-mingw32/bin/../lib/gcc/nios2-elf/4.1.2/../../../../nios2-elf/lib\libc.a(lib_a-strlen.o)
 .debug_info    0x00011978      0xa2a c:/altera/13.0sp1/nios2eds/bin/gnu/h-i686-mingw32/bin/../lib/gcc/nios2-elf/4.1.2/../../../../nios2-elf/lib\libc.a(lib_a-strtol.o)
 .debug_info    0x000123a2      0x98f c:/altera/13.0sp1/nios2eds/bin/gnu/h-i686-mingw32/bin/../lib/gcc/nios2-elf/4.1.2/../../../../nios2-elf/lib\libc.a(lib_a-time.o)
 .debug_info    0x00012d31       0x63 c:/altera/13.0sp1/nios2eds/bin/gnu/h-i686-mingw32/bin/../lib/gcc/nios2-elf/4.1.2/../../../../nios2-elf/lib\libc.a(lib_a-u_strerr.o)
 .debug_info    0x00012d94     0x10d5 c:/altera/13.0sp1/nios2eds/bin/gnu/h-i686-mingw32/bin/../lib/gcc/nios2-elf/4.1.2/../../../../nios2-elf/lib\libc.a(lib_a-vfprintf.o)
 .debug_info    0x00013e69      0x9ae c:/altera/13.0sp1/nios2eds/bin/gnu/h-i686-mingw32/bin/../lib/gcc/nios2-elf/4.1.2/../../../../nios2-elf/lib\libc.a(lib_a-wbuf.o)
 .debug_info    0x00014817      0x95d c:/altera/13.0sp1/nios2eds/bin/gnu/h-i686-mingw32/bin/../lib/gcc/nios2-elf/4.1.2/../../../../nios2-elf/lib\libc.a(lib_a-wsetup.o)
 .debug_info    0x00015174      0x9e2 c:/altera/13.0sp1/nios2eds/bin/gnu/h-i686-mingw32/bin/../lib/gcc/nios2-elf/4.1.2/../../../../nios2-elf/lib\libc.a(lib_a-__call_atexit.o)
 .debug_info    0x00015b56      0xd6f c:/altera/13.0sp1/nios2eds/bin/gnu/h-i686-mingw32/bin/../lib/gcc/nios2-elf/4.1.2/../../../../nios2-elf/lib\libc.a(lib_a-dtoa.o)
 .debug_info    0x000168c5      0x9fe c:/altera/13.0sp1/nios2eds/bin/gnu/h-i686-mingw32/bin/../lib/gcc/nios2-elf/4.1.2/../../../../nios2-elf/lib\libc.a(lib_a-fflush.o)
 .debug_info    0x000172c3      0xb72 c:/altera/13.0sp1/nios2eds/bin/gnu/h-i686-mingw32/bin/../lib/gcc/nios2-elf/4.1.2/../../../../nios2-elf/lib\libc.a(lib_a-findfp.o)
 .debug_info    0x00017e35      0x9bd c:/altera/13.0sp1/nios2eds/bin/gnu/h-i686-mingw32/bin/../lib/gcc/nios2-elf/4.1.2/../../../../nios2-elf/lib\libc.a(lib_a-fputc.o)
 .debug_info    0x000187f2      0xa40 c:/altera/13.0sp1/nios2eds/bin/gnu/h-i686-mingw32/bin/../lib/gcc/nios2-elf/4.1.2/../../../../nios2-elf/lib\libc.a(lib_a-fputs.o)
 .debug_info    0x00019232      0xbc9 c:/altera/13.0sp1/nios2eds/bin/gnu/h-i686-mingw32/bin/../lib/gcc/nios2-elf/4.1.2/../../../../nios2-elf/lib\libc.a(lib_a-freer.o)
 .debug_info    0x00019dfb      0xa88 c:/altera/13.0sp1/nios2eds/bin/gnu/h-i686-mingw32/bin/../lib/gcc/nios2-elf/4.1.2/../../../../nios2-elf/lib\libc.a(lib_a-fvwrite.o)
 .debug_info    0x0001a883      0xaed c:/altera/13.0sp1/nios2eds/bin/gnu/h-i686-mingw32/bin/../lib/gcc/nios2-elf/4.1.2/../../../../nios2-elf/lib\libc.a(lib_a-fwalk.o)
 .debug_info    0x0001b370      0x9ad c:/altera/13.0sp1/nios2eds/bin/gnu/h-i686-mingw32/bin/../lib/gcc/nios2-elf/4.1.2/../../../../nios2-elf/lib\libc.a(lib_a-gettimeofdayr.o)
 .debug_info    0x0001bd1d       0x8c c:/altera/13.0sp1/nios2eds/bin/gnu/h-i686-mingw32/bin/../lib/gcc/nios2-elf/4.1.2/../../../../nios2-elf/lib\libc.a(lib_a-int_errno.o)
 .debug_info    0x0001bda9      0xb97 c:/altera/13.0sp1/nios2eds/bin/gnu/h-i686-mingw32/bin/../lib/gcc/nios2-elf/4.1.2/../../../../nios2-elf/lib\libc.a(lib_a-locale.o)
 .debug_info    0x0001c940      0xb1a c:/altera/13.0sp1/nios2eds/bin/gnu/h-i686-mingw32/bin/../lib/gcc/nios2-elf/4.1.2/../../../../nios2-elf/lib\libc.a(lib_a-makebuf.o)
 .debug_info    0x0001d45a      0xcd0 c:/altera/13.0sp1/nios2eds/bin/gnu/h-i686-mingw32/bin/../lib/gcc/nios2-elf/4.1.2/../../../../nios2-elf/lib\libc.a(lib_a-mallocr.o)
 .debug_info    0x0001e12a      0x138 c:/altera/13.0sp1/nios2eds/bin/gnu/h-i686-mingw32/bin/../lib/gcc/nios2-elf/4.1.2/../../../../nios2-elf/lib\libc.a(lib_a-memchr.o)
 .debug_info    0x0001e262     0x1437 c:/altera/13.0sp1/nios2eds/bin/gnu/h-i686-mingw32/bin/../lib/gcc/nios2-elf/4.1.2/../../../../nios2-elf/lib\libc.a(lib_a-mprec.o)
 .debug_info    0x0001f699      0xbd7 c:/altera/13.0sp1/nios2eds/bin/gnu/h-i686-mingw32/bin/../lib/gcc/nios2-elf/4.1.2/../../../../nios2-elf/lib\libc.a(lib_a-reallocr.o)
 .debug_info    0x00020270      0x98b c:/altera/13.0sp1/nios2eds/bin/gnu/h-i686-mingw32/bin/../lib/gcc/nios2-elf/4.1.2/../../../../nios2-elf/lib\libc.a(lib_a-refill.o)
 .debug_info    0x00020bfb       0xd7 c:/altera/13.0sp1/nios2eds/bin/gnu/h-i686-mingw32/bin/../lib/gcc/nios2-elf/4.1.2/../../../../nios2-elf/lib\libc.a(lib_a-s_isinfd.o)
 .debug_info    0x00020cd2       0xd5 c:/altera/13.0sp1/nios2eds/bin/gnu/h-i686-mingw32/bin/../lib/gcc/nios2-elf/4.1.2/../../../../nios2-elf/lib\libc.a(lib_a-s_isnand.o)
 .debug_info    0x00020da7      0x962 c:/altera/13.0sp1/nios2eds/bin/gnu/h-i686-mingw32/bin/../lib/gcc/nios2-elf/4.1.2/../../../../nios2-elf/lib\libc.a(lib_a-sbrkr.o)
 .debug_info    0x00021709      0xaac c:/altera/13.0sp1/nios2eds/bin/gnu/h-i686-mingw32/bin/../lib/gcc/nios2-elf/4.1.2/../../../../nios2-elf/lib\libc.a(lib_a-stdio.o)
 .debug_info    0x000221b5      0x993 c:/altera/13.0sp1/nios2eds/bin/gnu/h-i686-mingw32/bin/../lib/gcc/nios2-elf/4.1.2/../../../../nios2-elf/lib\libc.a(lib_a-writer.o)
 .debug_info    0x00022b48      0xa1b c:/altera/13.0sp1/nios2eds/bin/gnu/h-i686-mingw32/bin/../lib/gcc/nios2-elf/4.1.2/../../../../nios2-elf/lib\libc.a(lib_a-callocr.o)
 .debug_info    0x00023563      0x958 c:/altera/13.0sp1/nios2eds/bin/gnu/h-i686-mingw32/bin/../lib/gcc/nios2-elf/4.1.2/../../../../nios2-elf/lib\libc.a(lib_a-closer.o)
 .debug_info    0x00023ebb      0x994 c:/altera/13.0sp1/nios2eds/bin/gnu/h-i686-mingw32/bin/../lib/gcc/nios2-elf/4.1.2/../../../../nios2-elf/lib\libc.a(lib_a-fclose.o)
 .debug_info    0x0002484f      0xafc c:/altera/13.0sp1/nios2eds/bin/gnu/h-i686-mingw32/bin/../lib/gcc/nios2-elf/4.1.2/../../../../nios2-elf/lib\libc.a(lib_a-fstatr.o)
 .debug_info    0x0002534b      0x958 c:/altera/13.0sp1/nios2eds/bin/gnu/h-i686-mingw32/bin/../lib/gcc/nios2-elf/4.1.2/../../../../nios2-elf/lib\libc.a(lib_a-isattyr.o)
 .debug_info    0x00025ca3      0x981 c:/altera/13.0sp1/nios2eds/bin/gnu/h-i686-mingw32/bin/../lib/gcc/nios2-elf/4.1.2/../../../../nios2-elf/lib\libc.a(lib_a-lseekr.o)
 .debug_info    0x00026624      0x98c c:/altera/13.0sp1/nios2eds/bin/gnu/h-i686-mingw32/bin/../lib/gcc/nios2-elf/4.1.2/../../../../nios2-elf/lib\libc.a(lib_a-readr.o)
 .debug_info    0x00026fb0      0x724 c:/altera/13.0sp1/nios2eds/bin/gnu/h-i686-mingw32/bin/../lib/gcc/nios2-elf/4.1.2\libgcc.a(_udivdi3.o)
 .debug_info    0x000276d4      0x751 c:/altera/13.0sp1/nios2eds/bin/gnu/h-i686-mingw32/bin/../lib/gcc/nios2-elf/4.1.2\libgcc.a(_umoddi3.o)
 .debug_info    0x00027e25      0x39b c:/altera/13.0sp1/nios2eds/bin/gnu/h-i686-mingw32/bin/../lib/gcc/nios2-elf/4.1.2\libgcc.a(_div_df.o)
 .debug_info    0x000281c0      0x29d c:/altera/13.0sp1/nios2eds/bin/gnu/h-i686-mingw32/bin/../lib/gcc/nios2-elf/4.1.2\libgcc.a(_eq_df.o)
 .debug_info    0x0002845d      0x29d c:/altera/13.0sp1/nios2eds/bin/gnu/h-i686-mingw32/bin/../lib/gcc/nios2-elf/4.1.2\libgcc.a(_ne_df.o)
 .debug_info    0x000286fa      0x29d c:/altera/13.0sp1/nios2eds/bin/gnu/h-i686-mingw32/bin/../lib/gcc/nios2-elf/4.1.2\libgcc.a(_gt_df.o)
 .debug_info    0x00028997      0x29d c:/altera/13.0sp1/nios2eds/bin/gnu/h-i686-mingw32/bin/../lib/gcc/nios2-elf/4.1.2\libgcc.a(_lt_df.o)
 .debug_info    0x00028c34      0x218 c:/altera/13.0sp1/nios2eds/bin/gnu/h-i686-mingw32/bin/../lib/gcc/nios2-elf/4.1.2\libgcc.a(_si_to_df.o)
 .debug_info    0x00028e4c      0x21c c:/altera/13.0sp1/nios2eds/bin/gnu/h-i686-mingw32/bin/../lib/gcc/nios2-elf/4.1.2\libgcc.a(lib2-divmod.o)
 .debug_info    0x00029068      0x20e ../rtc_socket_bsp/\libucosii_bsp.a(alt_exit.o)
 .debug_info    0x00029276      0x5f3 ../rtc_socket_bsp/\libucosii_bsp.a(alt_flash_dev.o)
 .debug_info    0x00029869      0x6ba ../rtc_socket_bsp/\libucosii_bsp.a(alt_fstat.o)
 .debug_info    0x00029f23      0x329 ../rtc_socket_bsp/\libucosii_bsp.a(alt_gettod.o)
 .debug_info    0x0002a24c      0x470 ../rtc_socket_bsp/\libucosii_bsp.a(alt_irq_register.o)
 .debug_info    0x0002a6bc      0x16d ../rtc_socket_bsp/\libucosii_bsp.a(alt_irq_vars.o)
 .debug_info    0x0002a829      0x6c0 ../rtc_socket_bsp/\libucosii_bsp.a(alt_isatty.o)
 .debug_info    0x0002aee9      0x4f4 ../rtc_socket_bsp/\libucosii_bsp.a(alt_lseek.o)
 .debug_info    0x0002b3dd      0x3e3 ../rtc_socket_bsp/\libucosii_bsp.a(alt_main.o)
 .debug_info    0x0002b7c0      0x2bd ../rtc_socket_bsp/\libucosii_bsp.a(alt_sbrk.o)
 .debug_info    0x0002ba7d      0x417 ../rtc_socket_bsp/\libucosii_bsp.a(alt_tick.o)
 .debug_info    0x0002be94      0x23a ../rtc_socket_bsp/\libucosii_bsp.a(alt_usleep.o)
 .debug_info    0x0002c0ce     0x11d9 ../rtc_socket_bsp/\libucosii_bsp.a(alt_env_lock.o)
 .debug_info    0x0002d2a7     0x1335 ../rtc_socket_bsp/\libucosii_bsp.a(alt_malloc_lock.o)
 .debug_info    0x0002e5dc     0x1bef ../rtc_socket_bsp/\libucosii_bsp.a(os_core.o)
 .debug_info    0x000301cb     0x1134 ../rtc_socket_bsp/\libucosii_bsp.a(os_dbg.o)
 .debug_info    0x000312ff     0x124a ../rtc_socket_bsp/\libucosii_bsp.a(os_flag.o)
 .debug_info    0x00032549      0x814 ../rtc_socket_bsp/\libucosii_bsp.a(os_mem.o)
 .debug_info    0x00032d5d     0x1084 ../rtc_socket_bsp/\libucosii_bsp.a(os_q.o)
 .debug_info    0x00033de1      0xcec ../rtc_socket_bsp/\libucosii_bsp.a(os_sem.o)
 .debug_info    0x00034acd     0x1362 ../rtc_socket_bsp/\libucosii_bsp.a(os_task.o)
 .debug_info    0x00035e2f      0x9e6 ../rtc_socket_bsp/\libucosii_bsp.a(os_time.o)
 .debug_info    0x00036815     0x12a6 ../rtc_socket_bsp/\libucosii_bsp.a(alt_sys_init.o)
 .debug_info    0x00037abb      0xb4f ../rtc_socket_bsp/\libucosii_bsp.a(altera_avalon_cfi_flash.o)
 .debug_info    0x0003860a      0xe3b ../rtc_socket_bsp/\libucosii_bsp.a(altera_avalon_cfi_flash_table.o)
 .debug_info    0x00039445      0xbaf ../rtc_socket_bsp/\libucosii_bsp.a(altera_avalon_epcs_flash_controller.o)
 .debug_info    0x00039ff4      0x9d8 ../rtc_socket_bsp/\libucosii_bsp.a(altera_avalon_jtag_uart_fd.o)
 .debug_info    0x0003a9cc      0x956 ../rtc_socket_bsp/\libucosii_bsp.a(altera_avalon_jtag_uart_init.o)
 .debug_info    0x0003b322      0x642 ../rtc_socket_bsp/\libucosii_bsp.a(altera_avalon_jtag_uart_ioctl.o)
 .debug_info    0x0003b964      0x7fe ../rtc_socket_bsp/\libucosii_bsp.a(altera_avalon_jtag_uart_read.o)
 .debug_info    0x0003c162      0x7f5 ../rtc_socket_bsp/\libucosii_bsp.a(altera_avalon_jtag_uart_write.o)
 .debug_info    0x0003c957      0xaa4 ../rtc_socket_bsp/\libucosii_bsp.a(altera_avalon_lcd_16207.o)
 .debug_info    0x0003d3fb      0x83c ../rtc_socket_bsp/\libucosii_bsp.a(altera_avalon_lcd_16207_fd.o)
 .debug_info    0x0003dc37      0x391 ../rtc_socket_bsp/\libucosii_bsp.a(altera_avalon_timer_sc.o)
 .debug_info    0x0003dfc8      0x878 ../rtc_socket_bsp/\libucosii_bsp.a(altera_avalon_uart_fd.o)
 .debug_info    0x0003e840      0x844 ../rtc_socket_bsp/\libucosii_bsp.a(altera_avalon_uart_init.o)
 .debug_info    0x0003f084      0x7c6 ../rtc_socket_bsp/\libucosii_bsp.a(altera_avalon_uart_read.o)
 .debug_info    0x0003f84a      0x7b5 ../rtc_socket_bsp/\libucosii_bsp.a(altera_avalon_uart_write.o)
 .debug_info    0x0003ffff      0x642 ../rtc_socket_bsp/\libucosii_bsp.a(epcs_commands.o)
 .debug_info    0x00040641      0x1bc ../rtc_socket_bsp/\libucosii_bsp.a(alt_iniche_close.o)
 .debug_info    0x000407fd      0xb63 ../rtc_socket_bsp/\libucosii_bsp.a(alt_iniche_dev.o)
 .debug_info    0x00041360      0x1e6 ../rtc_socket_bsp/\libucosii_bsp.a(alt_iniche_read.o)
 .debug_info    0x00041546      0x1ed ../rtc_socket_bsp/\libucosii_bsp.a(alt_iniche_write.o)
 .debug_info    0x00041733      0xc4f ../rtc_socket_bsp/\libucosii_bsp.a(ipnet.o)
 .debug_info    0x00042382      0xba2 ../rtc_socket_bsp/\libucosii_bsp.a(ipstart.o)
 .debug_info    0x00042f24     0x1536 ../rtc_socket_bsp/\libucosii_bsp.a(igmp_cmn.o)
 .debug_info    0x0004445a     0x1466 ../rtc_socket_bsp/\libucosii_bsp.a(bsdsock.o)
 .debug_info    0x000458c0      0x258 ../rtc_socket_bsp/\libucosii_bsp.a(cksum.o)
 .debug_info    0x00045b18      0x74a ../rtc_socket_bsp/\libucosii_bsp.a(in_utils.o)
 .debug_info    0x00046262      0x564 ../rtc_socket_bsp/\libucosii_bsp.a(netmain.o)
 .debug_info    0x000467c6      0x6f0 ../rtc_socket_bsp/\libucosii_bsp.a(parseip.o)
 .debug_info    0x00046eb6      0x971 ../rtc_socket_bsp/\libucosii_bsp.a(tk_crnos.o)
 .debug_info    0x00047827     0x15ff ../rtc_socket_bsp/\libucosii_bsp.a(dhcpclnt.o)
 .debug_info    0x00048e26      0x1e2 ../rtc_socket_bsp/\libucosii_bsp.a(dhcputil.o)
 .debug_info    0x00049008      0xcae ../rtc_socket_bsp/\libucosii_bsp.a(pktalloc.o)
 .debug_info    0x00049cb6      0x2f2 ../rtc_socket_bsp/\libucosii_bsp.a(q.o)
 .debug_info    0x00049fa8      0xb2d ../rtc_socket_bsp/\libucosii_bsp.a(udp_open.o)
 .debug_info    0x0004aad5       0x93 ../rtc_socket_bsp/\libucosii_bsp.a(asm_cksum.o)
 .debug_info    0x0004ab68      0xeb3 ../rtc_socket_bsp/\libucosii_bsp.a(brdutils.o)
 .debug_info    0x0004ba1b      0x6e5 ../rtc_socket_bsp/\libucosii_bsp.a(osportco.o)
 .debug_info    0x0004c100      0x662 ../rtc_socket_bsp/\libucosii_bsp.a(targnios.o)
 .debug_info    0x0004c762     0x2529 ../rtc_socket_bsp/\libucosii_bsp.a(nptcp.o)
 .debug_info    0x0004ec8b     0x11e1 ../rtc_socket_bsp/\libucosii_bsp.a(rawsock.o)
 .debug_info    0x0004fe6c     0x1c9f ../rtc_socket_bsp/\libucosii_bsp.a(sockcall.o)
 .debug_info    0x00051b0b     0x1aa5 ../rtc_socket_bsp/\libucosii_bsp.a(socket.o)
 .debug_info    0x000535b0     0x156b ../rtc_socket_bsp/\libucosii_bsp.a(socket2.o)
 .debug_info    0x00054b1b     0x1284 ../rtc_socket_bsp/\libucosii_bsp.a(soselect.o)
 .debug_info    0x00055d9f     0x2136 ../rtc_socket_bsp/\libucosii_bsp.a(tcp_in.o)
 .debug_info    0x00057ed5     0x1e25 ../rtc_socket_bsp/\libucosii_bsp.a(tcp_out.o)
 .debug_info    0x00059cfa     0x1e8d ../rtc_socket_bsp/\libucosii_bsp.a(tcp_subr.o)
 .debug_info    0x0005bb87     0x1ca8 ../rtc_socket_bsp/\libucosii_bsp.a(tcp_timr.o)
 .debug_info    0x0005d82f     0x1c65 ../rtc_socket_bsp/\libucosii_bsp.a(tcp_usr.o)
 .debug_info    0x0005f494      0x1b8 ../rtc_socket_bsp/\libucosii_bsp.a(tcpport.o)
 .debug_info    0x0005f64c     0x133b ../rtc_socket_bsp/\libucosii_bsp.a(udpsock.o)
 .debug_info    0x00060987      0x448 ../rtc_socket_bsp/\libucosii_bsp.a(alt_alarm_start.o)
 .debug_info    0x00060dcf      0x1b1 ../rtc_socket_bsp/\libucosii_bsp.a(alt_busy_sleep.o)
 .debug_info    0x00060f80      0x4c5 ../rtc_socket_bsp/\libucosii_bsp.a(alt_close.o)
 .debug_info    0x00061445      0x1aa ../rtc_socket_bsp/\libucosii_bsp.a(alt_dcache_flush.o)
 .debug_info    0x000615ef      0x7e3 ../rtc_socket_bsp/\libucosii_bsp.a(alt_dev.o)
 .debug_info    0x00061dd2      0x2bd ../rtc_socket_bsp/\libucosii_bsp.a(alt_dev_llist_insert.o)
 .debug_info    0x0006208f      0x115 ../rtc_socket_bsp/\libucosii_bsp.a(alt_do_ctors.o)
 .debug_info    0x000621a4      0x114 ../rtc_socket_bsp/\libucosii_bsp.a(alt_do_dtors.o)
 .debug_info    0x000622b8      0x16a ../rtc_socket_bsp/\libucosii_bsp.a(alt_errno.o)
 .debug_info    0x00062422      0x472 ../rtc_socket_bsp/\libucosii_bsp.a(alt_find_dev.o)
 .debug_info    0x00062894      0x499 ../rtc_socket_bsp/\libucosii_bsp.a(alt_iic.o)
 .debug_info    0x00062d2d      0x31a ../rtc_socket_bsp/\libucosii_bsp.a(alt_iic_isr_register.o)
 .debug_info    0x00063047      0x6ef ../rtc_socket_bsp/\libucosii_bsp.a(alt_io_redirect.o)
 .debug_info    0x00063736       0x8a ../rtc_socket_bsp/\libucosii_bsp.a(alt_irq_entry.o)
 .debug_info    0x000637c0      0x2c0 ../rtc_socket_bsp/\libucosii_bsp.a(alt_irq_handler.o)
 .debug_info    0x00063a80      0x570 ../rtc_socket_bsp/\libucosii_bsp.a(alt_open.o)
 .debug_info    0x00063ff0      0x6e8 ../rtc_socket_bsp/\libucosii_bsp.a(alt_read.o)
 .debug_info    0x000646d8      0x455 ../rtc_socket_bsp/\libucosii_bsp.a(alt_release_fd.o)
 .debug_info    0x00064b2d      0x197 ../rtc_socket_bsp/\libucosii_bsp.a(alt_remap_cached.o)
 .debug_info    0x00064cc4      0x19b ../rtc_socket_bsp/\libucosii_bsp.a(alt_remap_uncached.o)
 .debug_info    0x00064e5f      0x6f1 ../rtc_socket_bsp/\libucosii_bsp.a(alt_write.o)
 .debug_info    0x00065550      0x169 ../rtc_socket_bsp/\libucosii_bsp.a(altera_nios2_qsys_irq.o)
 .debug_info    0x000656b9       0x89 ../rtc_socket_bsp/\libucosii_bsp.a(os_cpu_a.o)
 .debug_info    0x00065742     0x12d9 ../rtc_socket_bsp/\libucosii_bsp.a(os_cpu_c.o)
 .debug_info    0x00066a1b      0x8ef ../rtc_socket_bsp/\libucosii_bsp.a(altera_avalon_cfi_flash_amd.o)
 .debug_info    0x0006730a      0x8e5 ../rtc_socket_bsp/\libucosii_bsp.a(altera_avalon_cfi_flash_intel.o)
 .debug_info    0x00067bef      0x2af ../rtc_socket_bsp/\libucosii_bsp.a(altera_avalon_spi.o)
 .debug_info    0x00067e9e      0xda5 ../rtc_socket_bsp/\libucosii_bsp.a(allports.o)
 .debug_info    0x00068c43      0x3c7 ../rtc_socket_bsp/\libucosii_bsp.a(timeouts.o)
 .debug_info    0x0006900a      0x226 ../rtc_socket_bsp/\libucosii_bsp.a(tk_misc.o)
 .debug_info    0x00069230      0x213 ../rtc_socket_bsp/\libucosii_bsp.a(alt_iniche_fcntl.o)
 .debug_info    0x00069443     0x127f ../rtc_socket_bsp/\libucosii_bsp.a(et_arp.o)
 .debug_info    0x0006a6c2      0xf9d ../rtc_socket_bsp/\libucosii_bsp.a(iface.o)
 .debug_info    0x0006b65f     0x170a ../rtc_socket_bsp/\libucosii_bsp.a(ip.o)
 .debug_info    0x0006cd69     0x186e ../rtc_socket_bsp/\libucosii_bsp.a(ip_reasm.o)
 .debug_info    0x0006e5d7      0xdef ../rtc_socket_bsp/\libucosii_bsp.a(ipdemux.o)
 .debug_info    0x0006f3c6      0xa4b ../rtc_socket_bsp/\libucosii_bsp.a(ipmc.o)
 .debug_info    0x0006fe11      0x2e9 ../rtc_socket_bsp/\libucosii_bsp.a(ipport.o)
 .debug_info    0x000700fa      0xf5c ../rtc_socket_bsp/\libucosii_bsp.a(ipraw.o)
 .debug_info    0x00071056      0xf07 ../rtc_socket_bsp/\libucosii_bsp.a(iproute.o)
 .debug_info    0x00071f5d     0x129e ../rtc_socket_bsp/\libucosii_bsp.a(udp.o)
 .debug_info    0x000731fb     0x1138 ../rtc_socket_bsp/\libucosii_bsp.a(igmp.o)
 .debug_info    0x00074333     0x136c ../rtc_socket_bsp/\libucosii_bsp.a(igmp2.o)
 .debug_info    0x0007569f     0x10e7 ../rtc_socket_bsp/\libucosii_bsp.a(ipopt.o)
 .debug_info    0x00076786      0xbbf ../rtc_socket_bsp/\libucosii_bsp.a(u_mctest.o)
 .debug_info    0x00077345      0xa5d ../rtc_socket_bsp/\libucosii_bsp.a(dhcsetup.o)
 .debug_info    0x00077da2      0x745 ../rtc_socket_bsp/\libucosii_bsp.a(memdev.o)
 .debug_info    0x000784e7      0x3ea ../rtc_socket_bsp/\libucosii_bsp.a(tcpcksum.o)
 .debug_info    0x000788d1     0x12b9 ../rtc_socket_bsp/\libucosii_bsp.a(in_pcb.o)
 .debug_info    0x00079b8a      0xfea ../rtc_socket_bsp/\libucosii_bsp.a(vfsfiles.o)
 .debug_info    0x0007ab74      0x1b9 ../rtc_socket_bsp/\libucosii_bsp.a(vfsport.o)
 .debug_info    0x0007ad2d       0x90 ../rtc_socket_bsp/\libucosii_bsp.a(alt_exception_entry.o)
 .debug_info    0x0007adbd      0x706 ../rtc_socket_bsp/\libucosii_bsp.a(alt_fcntl.o)
 .debug_info    0x0007b4c3      0x479 ../rtc_socket_bsp/\libucosii_bsp.a(alt_find_file.o)
 .debug_info    0x0007b93c      0x60b ../rtc_socket_bsp/\libucosii_bsp.a(alt_get_fd.o)
 .debug_info    0x0007bf47     0x118c ../rtc_socket_bsp/\libucosii_bsp.a(icmp.o)
 .debug_info    0x0007d0d3      0x181 c:/altera/13.0sp1/nios2eds/bin/gnu/h-i686-mingw32/bin/../lib/gcc/nios2-elf/4.1.2/../../../../nios2-elf/lib\libc.a(lib_a-atexit.o)
 .debug_info    0x0007d254      0x954 c:/altera/13.0sp1/nios2eds/bin/gnu/h-i686-mingw32/bin/../lib/gcc/nios2-elf/4.1.2/../../../../nios2-elf/lib\libc.a(lib_a-calloc.o)
 .debug_info    0x0007dba8      0x96e c:/altera/13.0sp1/nios2eds/bin/gnu/h-i686-mingw32/bin/../lib/gcc/nios2-elf/4.1.2/../../../../nios2-elf/lib\libc.a(lib_a-malloc.o)
 .debug_info    0x0007e516      0x115 c:/altera/13.0sp1/nios2eds/bin/gnu/h-i686-mingw32/bin/../lib/gcc/nios2-elf/4.1.2/../../../../nios2-elf/lib\libc.a(lib_a-memcmp.o)
 .debug_info    0x0007e62b      0x110 c:/altera/13.0sp1/nios2eds/bin/gnu/h-i686-mingw32/bin/../lib/gcc/nios2-elf/4.1.2/../../../../nios2-elf/lib\libc.a(lib_a-strcpy.o)
 .debug_info    0x0007e73b       0xf5 c:/altera/13.0sp1/nios2eds/bin/gnu/h-i686-mingw32/bin/../lib/gcc/nios2-elf/4.1.2/../../../../nios2-elf/lib\libc.a(lib_a-strncmp.o)
 .debug_info    0x0007e830      0x12a c:/altera/13.0sp1/nios2eds/bin/gnu/h-i686-mingw32/bin/../lib/gcc/nios2-elf/4.1.2/../../../../nios2-elf/lib\libc.a(lib_a-strncpy.o)
 .debug_info    0x0007e95a      0x9aa c:/altera/13.0sp1/nios2eds/bin/gnu/h-i686-mingw32/bin/../lib/gcc/nios2-elf/4.1.2/../../../../nios2-elf/lib\libc.a(lib_a-vprintf.o)
 .debug_info    0x0007f304      0x9ed c:/altera/13.0sp1/nios2eds/bin/gnu/h-i686-mingw32/bin/../lib/gcc/nios2-elf/4.1.2/../../../../nios2-elf/lib\libc.a(lib_a-vsprintf.o)
 .debug_info    0x0007fcf1      0x99c c:/altera/13.0sp1/nios2eds/bin/gnu/h-i686-mingw32/bin/../lib/gcc/nios2-elf/4.1.2/../../../../nios2-elf/lib\libc.a(lib_a-__atexit.o)

.debug_abbrev   0x00000000    0x12c64
 *(.debug_abbrev)
 .debug_abbrev  0x00000000       0x14 ../rtc_socket_bsp//obj/HAL/src/crt0.o
 .debug_abbrev  0x00000014       0xa9 obj/default/LCD.o
 .debug_abbrev  0x000000bd      0x15c obj/default/SSS_DE2_115.o
 .debug_abbrev  0x00000219      0x1f1 obj/default/alt_error_handler.o
 .debug_abbrev  0x0000040a      0x231 obj/default/dm9000a.o
 .debug_abbrev  0x0000063b      0x179 obj/default/iniche_init.o
 .debug_abbrev  0x000007b4       0xf5 obj/default/led.o
 .debug_abbrev  0x000008a9      0x282 obj/default/network_utilities.o
 .debug_abbrev  0x00000b2b      0x1c4 obj/default/simple_socket_server.o
 .debug_abbrev  0x00000cef        0x1 obj/default/tse_my_system.o
 .debug_abbrev  0x00000cf0       0x5d c:/altera/13.0sp1/nios2eds/bin/gnu/h-i686-mingw32/bin/../lib/gcc/nios2-elf/4.1.2\libgcc.a(_fixunsdfsi.o)
 .debug_abbrev  0x00000d4d      0x1d2 c:/altera/13.0sp1/nios2eds/bin/gnu/h-i686-mingw32/bin/../lib/gcc/nios2-elf/4.1.2\libgcc.a(_addsub_df.o)
 .debug_abbrev  0x00000f1f      0x204 c:/altera/13.0sp1/nios2eds/bin/gnu/h-i686-mingw32/bin/../lib/gcc/nios2-elf/4.1.2\libgcc.a(_mul_df.o)
 .debug_abbrev  0x00001123      0x151 c:/altera/13.0sp1/nios2eds/bin/gnu/h-i686-mingw32/bin/../lib/gcc/nios2-elf/4.1.2\libgcc.a(_ge_df.o)
 .debug_abbrev  0x00001274      0x176 c:/altera/13.0sp1/nios2eds/bin/gnu/h-i686-mingw32/bin/../lib/gcc/nios2-elf/4.1.2\libgcc.a(_df_to_si.o)
 .debug_abbrev  0x000013ea       0xba c:/altera/13.0sp1/nios2eds/bin/gnu/h-i686-mingw32/bin/../lib/gcc/nios2-elf/4.1.2\libgcc.a(_thenan_df.o)
 .debug_abbrev  0x000014a4      0x155 c:/altera/13.0sp1/nios2eds/bin/gnu/h-i686-mingw32/bin/../lib/gcc/nios2-elf/4.1.2\libgcc.a(_usi_to_df.o)
 .debug_abbrev  0x000015f9       0xee c:/altera/13.0sp1/nios2eds/bin/gnu/h-i686-mingw32/bin/../lib/gcc/nios2-elf/4.1.2\libgcc.a(_muldi3.o)
 .debug_abbrev  0x000016e7       0xb9 c:/altera/13.0sp1/nios2eds/bin/gnu/h-i686-mingw32/bin/../lib/gcc/nios2-elf/4.1.2\libgcc.a(_clzsi2.o)
 .debug_abbrev  0x000017a0      0x1b1 c:/altera/13.0sp1/nios2eds/bin/gnu/h-i686-mingw32/bin/../lib/gcc/nios2-elf/4.1.2\libgcc.a(_pack_df.o)
 .debug_abbrev  0x00001951      0x149 c:/altera/13.0sp1/nios2eds/bin/gnu/h-i686-mingw32/bin/../lib/gcc/nios2-elf/4.1.2\libgcc.a(_unpack_df.o)
 .debug_abbrev  0x00001a9a      0x132 c:/altera/13.0sp1/nios2eds/bin/gnu/h-i686-mingw32/bin/../lib/gcc/nios2-elf/4.1.2\libgcc.a(_fpcmp_parts_df.o)
 .debug_abbrev  0x00001bcc       0x61 c:/altera/13.0sp1/nios2eds/bin/gnu/h-i686-mingw32/bin/../lib/gcc/nios2-elf/4.1.2\libgcc.a(_clz.o)
 .debug_abbrev  0x00001c2d      0x176 c:/altera/13.0sp1/nios2eds/bin/gnu/h-i686-mingw32/bin/../lib/gcc/nios2-elf/4.1.2/../../../../nios2-elf/lib\libc.a(lib_a-atoi.o)
 .debug_abbrev  0x00001da3       0x61 c:/altera/13.0sp1/nios2eds/bin/gnu/h-i686-mingw32/bin/../lib/gcc/nios2-elf/4.1.2/../../../../nios2-elf/lib\libc.a(lib_a-ctype_.o)
 .debug_abbrev  0x00001e04      0x15f c:/altera/13.0sp1/nios2eds/bin/gnu/h-i686-mingw32/bin/../lib/gcc/nios2-elf/4.1.2/../../../../nios2-elf/lib\libc.a(lib_a-errno.o)
 .debug_abbrev  0x00001f63      0x16e c:/altera/13.0sp1/nios2eds/bin/gnu/h-i686-mingw32/bin/../lib/gcc/nios2-elf/4.1.2/../../../../nios2-elf/lib\libc.a(lib_a-exit.o)
 .debug_abbrev  0x000020d1      0x197 c:/altera/13.0sp1/nios2eds/bin/gnu/h-i686-mingw32/bin/../lib/gcc/nios2-elf/4.1.2/../../../../nios2-elf/lib\libc.a(lib_a-fprintf.o)
 .debug_abbrev  0x00002268      0x1b1 c:/altera/13.0sp1/nios2eds/bin/gnu/h-i686-mingw32/bin/../lib/gcc/nios2-elf/4.1.2/../../../../nios2-elf/lib\libc.a(lib_a-fwrite.o)
 .debug_abbrev  0x00002419      0x17f c:/altera/13.0sp1/nios2eds/bin/gnu/h-i686-mingw32/bin/../lib/gcc/nios2-elf/4.1.2/../../../../nios2-elf/lib\libc.a(lib_a-getc.o)
 .debug_abbrev  0x00002598      0x157 c:/altera/13.0sp1/nios2eds/bin/gnu/h-i686-mingw32/bin/../lib/gcc/nios2-elf/4.1.2/../../../../nios2-elf/lib\libc.a(lib_a-impure.o)
 .debug_abbrev  0x000026ef       0xb5 c:/altera/13.0sp1/nios2eds/bin/gnu/h-i686-mingw32/bin/../lib/gcc/nios2-elf/4.1.2/../../../../nios2-elf/lib\libc.a(lib_a-memcpy.o)
 .debug_abbrev  0x000027a4       0xb5 c:/altera/13.0sp1/nios2eds/bin/gnu/h-i686-mingw32/bin/../lib/gcc/nios2-elf/4.1.2/../../../../nios2-elf/lib\libc.a(lib_a-memmove.o)
 .debug_abbrev  0x00002859       0xb8 c:/altera/13.0sp1/nios2eds/bin/gnu/h-i686-mingw32/bin/../lib/gcc/nios2-elf/4.1.2/../../../../nios2-elf/lib\libc.a(lib_a-memset.o)
 .debug_abbrev  0x00002911      0x194 c:/altera/13.0sp1/nios2eds/bin/gnu/h-i686-mingw32/bin/../lib/gcc/nios2-elf/4.1.2/../../../../nios2-elf/lib\libc.a(lib_a-perror.o)
 .debug_abbrev  0x00002aa5      0x191 c:/altera/13.0sp1/nios2eds/bin/gnu/h-i686-mingw32/bin/../lib/gcc/nios2-elf/4.1.2/../../../../nios2-elf/lib\libc.a(lib_a-printf.o)
 .debug_abbrev  0x00002c36      0x17f c:/altera/13.0sp1/nios2eds/bin/gnu/h-i686-mingw32/bin/../lib/gcc/nios2-elf/4.1.2/../../../../nios2-elf/lib\libc.a(lib_a-putc.o)
 .debug_abbrev  0x00002db5      0x170 c:/altera/13.0sp1/nios2eds/bin/gnu/h-i686-mingw32/bin/../lib/gcc/nios2-elf/4.1.2/../../../../nios2-elf/lib\libc.a(lib_a-putchar.o)
 .debug_abbrev  0x00002f25      0x1ac c:/altera/13.0sp1/nios2eds/bin/gnu/h-i686-mingw32/bin/../lib/gcc/nios2-elf/4.1.2/../../../../nios2-elf/lib\libc.a(lib_a-puts.o)
 .debug_abbrev  0x000030d1      0x185 c:/altera/13.0sp1/nios2eds/bin/gnu/h-i686-mingw32/bin/../lib/gcc/nios2-elf/4.1.2/../../../../nios2-elf/lib\libc.a(lib_a-rand.o)
 .debug_abbrev  0x00003256      0x189 c:/altera/13.0sp1/nios2eds/bin/gnu/h-i686-mingw32/bin/../lib/gcc/nios2-elf/4.1.2/../../../../nios2-elf/lib\libc.a(lib_a-rget.o)
 .debug_abbrev  0x000033df      0x191 c:/altera/13.0sp1/nios2eds/bin/gnu/h-i686-mingw32/bin/../lib/gcc/nios2-elf/4.1.2/../../../../nios2-elf/lib\libc.a(lib_a-sprintf.o)
 .debug_abbrev  0x00003570       0x80 c:/altera/13.0sp1/nios2eds/bin/gnu/h-i686-mingw32/bin/../lib/gcc/nios2-elf/4.1.2/../../../../nios2-elf/lib\libc.a(lib_a-strchr.o)
 .debug_abbrev  0x000035f0       0x80 c:/altera/13.0sp1/nios2eds/bin/gnu/h-i686-mingw32/bin/../lib/gcc/nios2-elf/4.1.2/../../../../nios2-elf/lib\libc.a(lib_a-strcmp.o)
 .debug_abbrev  0x00003670       0x68 c:/altera/13.0sp1/nios2eds/bin/gnu/h-i686-mingw32/bin/../lib/gcc/nios2-elf/4.1.2/../../../../nios2-elf/lib\libc.a(lib_a-strerror.o)
 .debug_abbrev  0x000036d8       0x8b c:/altera/13.0sp1/nios2eds/bin/gnu/h-i686-mingw32/bin/../lib/gcc/nios2-elf/4.1.2/../../../../nios2-elf/lib\libc.a(lib_a-strlen.o)
 .debug_abbrev  0x00003763      0x1c7 c:/altera/13.0sp1/nios2eds/bin/gnu/h-i686-mingw32/bin/../lib/gcc/nios2-elf/4.1.2/../../../../nios2-elf/lib\libc.a(lib_a-strtol.o)
 .debug_abbrev  0x0000392a      0x17f c:/altera/13.0sp1/nios2eds/bin/gnu/h-i686-mingw32/bin/../lib/gcc/nios2-elf/4.1.2/../../../../nios2-elf/lib\libc.a(lib_a-time.o)
 .debug_abbrev  0x00003aa9       0x5b c:/altera/13.0sp1/nios2eds/bin/gnu/h-i686-mingw32/bin/../lib/gcc/nios2-elf/4.1.2/../../../../nios2-elf/lib\libc.a(lib_a-u_strerr.o)
 .debug_abbrev  0x00003b04      0x30a c:/altera/13.0sp1/nios2eds/bin/gnu/h-i686-mingw32/bin/../lib/gcc/nios2-elf/4.1.2/../../../../nios2-elf/lib\libc.a(lib_a-vfprintf.o)
 .debug_abbrev  0x00003e0e      0x198 c:/altera/13.0sp1/nios2eds/bin/gnu/h-i686-mingw32/bin/../lib/gcc/nios2-elf/4.1.2/../../../../nios2-elf/lib\libc.a(lib_a-wbuf.o)
 .debug_abbrev  0x00003fa6      0x170 c:/altera/13.0sp1/nios2eds/bin/gnu/h-i686-mingw32/bin/../lib/gcc/nios2-elf/4.1.2/../../../../nios2-elf/lib\libc.a(lib_a-wsetup.o)
 .debug_abbrev  0x00004116      0x1de c:/altera/13.0sp1/nios2eds/bin/gnu/h-i686-mingw32/bin/../lib/gcc/nios2-elf/4.1.2/../../../../nios2-elf/lib\libc.a(lib_a-__call_atexit.o)
 .debug_abbrev  0x000042f4      0x232 c:/altera/13.0sp1/nios2eds/bin/gnu/h-i686-mingw32/bin/../lib/gcc/nios2-elf/4.1.2/../../../../nios2-elf/lib\libc.a(lib_a-dtoa.o)
 .debug_abbrev  0x00004526      0x1c6 c:/altera/13.0sp1/nios2eds/bin/gnu/h-i686-mingw32/bin/../lib/gcc/nios2-elf/4.1.2/../../../../nios2-elf/lib\libc.a(lib_a-fflush.o)
 .debug_abbrev  0x000046ec      0x24c c:/altera/13.0sp1/nios2eds/bin/gnu/h-i686-mingw32/bin/../lib/gcc/nios2-elf/4.1.2/../../../../nios2-elf/lib\libc.a(lib_a-findfp.o)
 .debug_abbrev  0x00004938      0x18c c:/altera/13.0sp1/nios2eds/bin/gnu/h-i686-mingw32/bin/../lib/gcc/nios2-elf/4.1.2/../../../../nios2-elf/lib\libc.a(lib_a-fputc.o)
 .debug_abbrev  0x00004ac4      0x1aa c:/altera/13.0sp1/nios2eds/bin/gnu/h-i686-mingw32/bin/../lib/gcc/nios2-elf/4.1.2/../../../../nios2-elf/lib\libc.a(lib_a-fputs.o)
 .debug_abbrev  0x00004c6e      0x1d9 c:/altera/13.0sp1/nios2eds/bin/gnu/h-i686-mingw32/bin/../lib/gcc/nios2-elf/4.1.2/../../../../nios2-elf/lib\libc.a(lib_a-freer.o)
 .debug_abbrev  0x00004e47      0x1a3 c:/altera/13.0sp1/nios2eds/bin/gnu/h-i686-mingw32/bin/../lib/gcc/nios2-elf/4.1.2/../../../../nios2-elf/lib\libc.a(lib_a-fvwrite.o)
 .debug_abbrev  0x00004fea      0x1e3 c:/altera/13.0sp1/nios2eds/bin/gnu/h-i686-mingw32/bin/../lib/gcc/nios2-elf/4.1.2/../../../../nios2-elf/lib\libc.a(lib_a-fwalk.o)
 .debug_abbrev  0x000051cd      0x18e c:/altera/13.0sp1/nios2eds/bin/gnu/h-i686-mingw32/bin/../lib/gcc/nios2-elf/4.1.2/../../../../nios2-elf/lib\libc.a(lib_a-gettimeofdayr.o)
 .debug_abbrev  0x0000535b       0x3b c:/altera/13.0sp1/nios2eds/bin/gnu/h-i686-mingw32/bin/../lib/gcc/nios2-elf/4.1.2/../../../../nios2-elf/lib\libc.a(lib_a-int_errno.o)
 .debug_abbrev  0x00005396      0x1ed c:/altera/13.0sp1/nios2eds/bin/gnu/h-i686-mingw32/bin/../lib/gcc/nios2-elf/4.1.2/../../../../nios2-elf/lib\libc.a(lib_a-locale.o)
 .debug_abbrev  0x00005583      0x197 c:/altera/13.0sp1/nios2eds/bin/gnu/h-i686-mingw32/bin/../lib/gcc/nios2-elf/4.1.2/../../../../nios2-elf/lib\libc.a(lib_a-makebuf.o)
 .debug_abbrev  0x0000571a      0x216 c:/altera/13.0sp1/nios2eds/bin/gnu/h-i686-mingw32/bin/../lib/gcc/nios2-elf/4.1.2/../../../../nios2-elf/lib\libc.a(lib_a-mallocr.o)
 .debug_abbrev  0x00005930       0xb5 c:/altera/13.0sp1/nios2eds/bin/gnu/h-i686-mingw32/bin/../lib/gcc/nios2-elf/4.1.2/../../../../nios2-elf/lib\libc.a(lib_a-memchr.o)
 .debug_abbrev  0x000059e5      0x297 c:/altera/13.0sp1/nios2eds/bin/gnu/h-i686-mingw32/bin/../lib/gcc/nios2-elf/4.1.2/../../../../nios2-elf/lib\libc.a(lib_a-mprec.o)
 .debug_abbrev  0x00005c7c      0x1c3 c:/altera/13.0sp1/nios2eds/bin/gnu/h-i686-mingw32/bin/../lib/gcc/nios2-elf/4.1.2/../../../../nios2-elf/lib\libc.a(lib_a-reallocr.o)
 .debug_abbrev  0x00005e3f      0x187 c:/altera/13.0sp1/nios2eds/bin/gnu/h-i686-mingw32/bin/../lib/gcc/nios2-elf/4.1.2/../../../../nios2-elf/lib\libc.a(lib_a-refill.o)
 .debug_abbrev  0x00005fc6       0x79 c:/altera/13.0sp1/nios2eds/bin/gnu/h-i686-mingw32/bin/../lib/gcc/nios2-elf/4.1.2/../../../../nios2-elf/lib\libc.a(lib_a-s_isinfd.o)
 .debug_abbrev  0x0000603f       0x79 c:/altera/13.0sp1/nios2eds/bin/gnu/h-i686-mingw32/bin/../lib/gcc/nios2-elf/4.1.2/../../../../nios2-elf/lib\libc.a(lib_a-s_isnand.o)
 .debug_abbrev  0x000060b8      0x18c c:/altera/13.0sp1/nios2eds/bin/gnu/h-i686-mingw32/bin/../lib/gcc/nios2-elf/4.1.2/../../../../nios2-elf/lib\libc.a(lib_a-sbrkr.o)
 .debug_abbrev  0x00006244      0x1c9 c:/altera/13.0sp1/nios2eds/bin/gnu/h-i686-mingw32/bin/../lib/gcc/nios2-elf/4.1.2/../../../../nios2-elf/lib\libc.a(lib_a-stdio.o)
 .debug_abbrev  0x0000640d      0x184 c:/altera/13.0sp1/nios2eds/bin/gnu/h-i686-mingw32/bin/../lib/gcc/nios2-elf/4.1.2/../../../../nios2-elf/lib\libc.a(lib_a-writer.o)
 .debug_abbrev  0x00006591      0x1b8 c:/altera/13.0sp1/nios2eds/bin/gnu/h-i686-mingw32/bin/../lib/gcc/nios2-elf/4.1.2/../../../../nios2-elf/lib\libc.a(lib_a-callocr.o)
 .debug_abbrev  0x00006749      0x17f c:/altera/13.0sp1/nios2eds/bin/gnu/h-i686-mingw32/bin/../lib/gcc/nios2-elf/4.1.2/../../../../nios2-elf/lib\libc.a(lib_a-closer.o)
 .debug_abbrev  0x000068c8      0x1a7 c:/altera/13.0sp1/nios2eds/bin/gnu/h-i686-mingw32/bin/../lib/gcc/nios2-elf/4.1.2/../../../../nios2-elf/lib\libc.a(lib_a-fclose.o)
 .debug_abbrev  0x00006a6f      0x18e c:/altera/13.0sp1/nios2eds/bin/gnu/h-i686-mingw32/bin/../lib/gcc/nios2-elf/4.1.2/../../../../nios2-elf/lib\libc.a(lib_a-fstatr.o)
 .debug_abbrev  0x00006bfd      0x17f c:/altera/13.0sp1/nios2eds/bin/gnu/h-i686-mingw32/bin/../lib/gcc/nios2-elf/4.1.2/../../../../nios2-elf/lib\libc.a(lib_a-isattyr.o)
 .debug_abbrev  0x00006d7c      0x18e c:/altera/13.0sp1/nios2eds/bin/gnu/h-i686-mingw32/bin/../lib/gcc/nios2-elf/4.1.2/../../../../nios2-elf/lib\libc.a(lib_a-lseekr.o)
 .debug_abbrev  0x00006f0a      0x17f c:/altera/13.0sp1/nios2eds/bin/gnu/h-i686-mingw32/bin/../lib/gcc/nios2-elf/4.1.2/../../../../nios2-elf/lib\libc.a(lib_a-readr.o)
 .debug_abbrev  0x00007089      0x16b c:/altera/13.0sp1/nios2eds/bin/gnu/h-i686-mingw32/bin/../lib/gcc/nios2-elf/4.1.2\libgcc.a(_udivdi3.o)
 .debug_abbrev  0x000071f4      0x18e c:/altera/13.0sp1/nios2eds/bin/gnu/h-i686-mingw32/bin/../lib/gcc/nios2-elf/4.1.2\libgcc.a(_umoddi3.o)
 .debug_abbrev  0x00007382      0x1e3 c:/altera/13.0sp1/nios2eds/bin/gnu/h-i686-mingw32/bin/../lib/gcc/nios2-elf/4.1.2\libgcc.a(_div_df.o)
 .debug_abbrev  0x00007565      0x151 c:/altera/13.0sp1/nios2eds/bin/gnu/h-i686-mingw32/bin/../lib/gcc/nios2-elf/4.1.2\libgcc.a(_eq_df.o)
 .debug_abbrev  0x000076b6      0x151 c:/altera/13.0sp1/nios2eds/bin/gnu/h-i686-mingw32/bin/../lib/gcc/nios2-elf/4.1.2\libgcc.a(_ne_df.o)
 .debug_abbrev  0x00007807      0x151 c:/altera/13.0sp1/nios2eds/bin/gnu/h-i686-mingw32/bin/../lib/gcc/nios2-elf/4.1.2\libgcc.a(_gt_df.o)
 .debug_abbrev  0x00007958      0x151 c:/altera/13.0sp1/nios2eds/bin/gnu/h-i686-mingw32/bin/../lib/gcc/nios2-elf/4.1.2\libgcc.a(_lt_df.o)
 .debug_abbrev  0x00007aa9      0x13f c:/altera/13.0sp1/nios2eds/bin/gnu/h-i686-mingw32/bin/../lib/gcc/nios2-elf/4.1.2\libgcc.a(_si_to_df.o)
 .debug_abbrev  0x00007be8       0xe0 c:/altera/13.0sp1/nios2eds/bin/gnu/h-i686-mingw32/bin/../lib/gcc/nios2-elf/4.1.2\libgcc.a(lib2-divmod.o)
 .debug_abbrev  0x00007cc8       0xaa ../rtc_socket_bsp/\libucosii_bsp.a(alt_exit.o)
 .debug_abbrev  0x00007d72      0x128 ../rtc_socket_bsp/\libucosii_bsp.a(alt_flash_dev.o)
 .debug_abbrev  0x00007e9a      0x102 ../rtc_socket_bsp/\libucosii_bsp.a(alt_fstat.o)
 .debug_abbrev  0x00007f9c       0xe5 ../rtc_socket_bsp/\libucosii_bsp.a(alt_gettod.o)
 .debug_abbrev  0x00008081      0x180 ../rtc_socket_bsp/\libucosii_bsp.a(alt_irq_register.o)
 .debug_abbrev  0x00008201       0x44 ../rtc_socket_bsp/\libucosii_bsp.a(alt_irq_vars.o)
 .debug_abbrev  0x00008245      0x102 ../rtc_socket_bsp/\libucosii_bsp.a(alt_isatty.o)
 .debug_abbrev  0x00008347      0x102 ../rtc_socket_bsp/\libucosii_bsp.a(alt_lseek.o)
 .debug_abbrev  0x00008449      0x120 ../rtc_socket_bsp/\libucosii_bsp.a(alt_main.o)
 .debug_abbrev  0x00008569      0x115 ../rtc_socket_bsp/\libucosii_bsp.a(alt_sbrk.o)
 .debug_abbrev  0x0000867e      0x150 ../rtc_socket_bsp/\libucosii_bsp.a(alt_tick.o)
 .debug_abbrev  0x000087ce       0xb7 ../rtc_socket_bsp/\libucosii_bsp.a(alt_usleep.o)
 .debug_abbrev  0x00008885      0x1b3 ../rtc_socket_bsp/\libucosii_bsp.a(alt_env_lock.o)
 .debug_abbrev  0x00008a38      0x234 ../rtc_socket_bsp/\libucosii_bsp.a(alt_malloc_lock.o)
 .debug_abbrev  0x00008c6c      0x2aa ../rtc_socket_bsp/\libucosii_bsp.a(os_core.o)
 .debug_abbrev  0x00008f16      0x114 ../rtc_socket_bsp/\libucosii_bsp.a(os_dbg.o)
 .debug_abbrev  0x0000902a      0x21b ../rtc_socket_bsp/\libucosii_bsp.a(os_flag.o)
 .debug_abbrev  0x00009245      0x235 ../rtc_socket_bsp/\libucosii_bsp.a(os_mem.o)
 .debug_abbrev  0x0000947a      0x20d ../rtc_socket_bsp/\libucosii_bsp.a(os_q.o)
 .debug_abbrev  0x00009687      0x20d ../rtc_socket_bsp/\libucosii_bsp.a(os_sem.o)
 .debug_abbrev  0x00009894      0x20e ../rtc_socket_bsp/\libucosii_bsp.a(os_task.o)
 .debug_abbrev  0x00009aa2      0x1de ../rtc_socket_bsp/\libucosii_bsp.a(os_time.o)
 .debug_abbrev  0x00009c80      0x1c8 ../rtc_socket_bsp/\libucosii_bsp.a(alt_sys_init.o)
 .debug_abbrev  0x00009e48      0x1bf ../rtc_socket_bsp/\libucosii_bsp.a(altera_avalon_cfi_flash.o)
 .debug_abbrev  0x0000a007      0x185 ../rtc_socket_bsp/\libucosii_bsp.a(altera_avalon_cfi_flash_table.o)
 .debug_abbrev  0x0000a18c      0x1bf ../rtc_socket_bsp/\libucosii_bsp.a(altera_avalon_epcs_flash_controller.o)
 .debug_abbrev  0x0000a34b      0x13c ../rtc_socket_bsp/\libucosii_bsp.a(altera_avalon_jtag_uart_fd.o)
 .debug_abbrev  0x0000a487      0x21e ../rtc_socket_bsp/\libucosii_bsp.a(altera_avalon_jtag_uart_init.o)
 .debug_abbrev  0x0000a6a5      0x135 ../rtc_socket_bsp/\libucosii_bsp.a(altera_avalon_jtag_uart_ioctl.o)
 .debug_abbrev  0x0000a7da      0x1ee ../rtc_socket_bsp/\libucosii_bsp.a(altera_avalon_jtag_uart_read.o)
 .debug_abbrev  0x0000a9c8      0x1ea ../rtc_socket_bsp/\libucosii_bsp.a(altera_avalon_jtag_uart_write.o)
 .debug_abbrev  0x0000abb2      0x235 ../rtc_socket_bsp/\libucosii_bsp.a(altera_avalon_lcd_16207.o)
 .debug_abbrev  0x0000ade7      0x12f ../rtc_socket_bsp/\libucosii_bsp.a(altera_avalon_lcd_16207_fd.o)
 .debug_abbrev  0x0000af16      0x137 ../rtc_socket_bsp/\libucosii_bsp.a(altera_avalon_timer_sc.o)
 .debug_abbrev  0x0000b04d      0x124 ../rtc_socket_bsp/\libucosii_bsp.a(altera_avalon_uart_fd.o)
 .debug_abbrev  0x0000b171      0x204 ../rtc_socket_bsp/\libucosii_bsp.a(altera_avalon_uart_init.o)
 .debug_abbrev  0x0000b375      0x1b9 ../rtc_socket_bsp/\libucosii_bsp.a(altera_avalon_uart_read.o)
 .debug_abbrev  0x0000b52e      0x1c0 ../rtc_socket_bsp/\libucosii_bsp.a(altera_avalon_uart_write.o)
 .debug_abbrev  0x0000b6ee      0x145 ../rtc_socket_bsp/\libucosii_bsp.a(epcs_commands.o)
 .debug_abbrev  0x0000b833       0x77 ../rtc_socket_bsp/\libucosii_bsp.a(alt_iniche_close.o)
 .debug_abbrev  0x0000b8aa      0x11f ../rtc_socket_bsp/\libucosii_bsp.a(alt_iniche_dev.o)
 .debug_abbrev  0x0000b9c9       0x7e ../rtc_socket_bsp/\libucosii_bsp.a(alt_iniche_read.o)
 .debug_abbrev  0x0000ba47       0x85 ../rtc_socket_bsp/\libucosii_bsp.a(alt_iniche_write.o)
 .debug_abbrev  0x0000bacc      0x184 ../rtc_socket_bsp/\libucosii_bsp.a(ipnet.o)
 .debug_abbrev  0x0000bc50      0x18b ../rtc_socket_bsp/\libucosii_bsp.a(ipstart.o)
 .debug_abbrev  0x0000bddb      0x191 ../rtc_socket_bsp/\libucosii_bsp.a(igmp_cmn.o)
 .debug_abbrev  0x0000bf6c      0x1a3 ../rtc_socket_bsp/\libucosii_bsp.a(bsdsock.o)
 .debug_abbrev  0x0000c10f       0x96 ../rtc_socket_bsp/\libucosii_bsp.a(cksum.o)
 .debug_abbrev  0x0000c1a5      0x18b ../rtc_socket_bsp/\libucosii_bsp.a(in_utils.o)
 .debug_abbrev  0x0000c330      0x152 ../rtc_socket_bsp/\libucosii_bsp.a(netmain.o)
 .debug_abbrev  0x0000c482      0x154 ../rtc_socket_bsp/\libucosii_bsp.a(parseip.o)
 .debug_abbrev  0x0000c5d6      0x144 ../rtc_socket_bsp/\libucosii_bsp.a(tk_crnos.o)
 .debug_abbrev  0x0000c71a      0x217 ../rtc_socket_bsp/\libucosii_bsp.a(dhcpclnt.o)
 .debug_abbrev  0x0000c931       0x8f ../rtc_socket_bsp/\libucosii_bsp.a(dhcputil.o)
 .debug_abbrev  0x0000c9c0      0x196 ../rtc_socket_bsp/\libucosii_bsp.a(pktalloc.o)
 .debug_abbrev  0x0000cb56       0xcb ../rtc_socket_bsp/\libucosii_bsp.a(q.o)
 .debug_abbrev  0x0000cc21      0x144 ../rtc_socket_bsp/\libucosii_bsp.a(udp_open.o)
 .debug_abbrev  0x0000cd65       0x14 ../rtc_socket_bsp/\libucosii_bsp.a(asm_cksum.o)
 .debug_abbrev  0x0000cd79      0x242 ../rtc_socket_bsp/\libucosii_bsp.a(brdutils.o)
 .debug_abbrev  0x0000cfbb      0x194 ../rtc_socket_bsp/\libucosii_bsp.a(osportco.o)
 .debug_abbrev  0x0000d14f      0x199 ../rtc_socket_bsp/\libucosii_bsp.a(targnios.o)
 .debug_abbrev  0x0000d2e8      0x1dc ../rtc_socket_bsp/\libucosii_bsp.a(nptcp.o)
 .debug_abbrev  0x0000d4c4      0x136 ../rtc_socket_bsp/\libucosii_bsp.a(rawsock.o)
 .debug_abbrev  0x0000d5fa      0x1de ../rtc_socket_bsp/\libucosii_bsp.a(sockcall.o)
 .debug_abbrev  0x0000d7d8      0x1ef ../rtc_socket_bsp/\libucosii_bsp.a(socket.o)
 .debug_abbrev  0x0000d9c7      0x1ac ../rtc_socket_bsp/\libucosii_bsp.a(socket2.o)
 .debug_abbrev  0x0000db73      0x17f ../rtc_socket_bsp/\libucosii_bsp.a(soselect.o)
 .debug_abbrev  0x0000dcf2      0x1ca ../rtc_socket_bsp/\libucosii_bsp.a(tcp_in.o)
 .debug_abbrev  0x0000debc      0x1a4 ../rtc_socket_bsp/\libucosii_bsp.a(tcp_out.o)
 .debug_abbrev  0x0000e060      0x1c3 ../rtc_socket_bsp/\libucosii_bsp.a(tcp_subr.o)
 .debug_abbrev  0x0000e223      0x19e ../rtc_socket_bsp/\libucosii_bsp.a(tcp_timr.o)
 .debug_abbrev  0x0000e3c1      0x175 ../rtc_socket_bsp/\libucosii_bsp.a(tcp_usr.o)
 .debug_abbrev  0x0000e536       0x77 ../rtc_socket_bsp/\libucosii_bsp.a(tcpport.o)
 .debug_abbrev  0x0000e5ad      0x190 ../rtc_socket_bsp/\libucosii_bsp.a(udpsock.o)
 .debug_abbrev  0x0000e73d      0x172 ../rtc_socket_bsp/\libucosii_bsp.a(alt_alarm_start.o)
 .debug_abbrev  0x0000e8af       0x6c ../rtc_socket_bsp/\libucosii_bsp.a(alt_busy_sleep.o)
 .debug_abbrev  0x0000e91b      0x102 ../rtc_socket_bsp/\libucosii_bsp.a(alt_close.o)
 .debug_abbrev  0x0000ea1d       0x7a ../rtc_socket_bsp/\libucosii_bsp.a(alt_dcache_flush.o)
 .debug_abbrev  0x0000ea97      0x10a ../rtc_socket_bsp/\libucosii_bsp.a(alt_dev.o)
 .debug_abbrev  0x0000eba1       0xf6 ../rtc_socket_bsp/\libucosii_bsp.a(alt_dev_llist_insert.o)
 .debug_abbrev  0x0000ec97       0x76 ../rtc_socket_bsp/\libucosii_bsp.a(alt_do_ctors.o)
 .debug_abbrev  0x0000ed0d       0x76 ../rtc_socket_bsp/\libucosii_bsp.a(alt_do_dtors.o)
 .debug_abbrev  0x0000ed83       0x5e ../rtc_socket_bsp/\libucosii_bsp.a(alt_errno.o)
 .debug_abbrev  0x0000ede1       0xd6 ../rtc_socket_bsp/\libucosii_bsp.a(alt_find_dev.o)
 .debug_abbrev  0x0000eeb7      0x134 ../rtc_socket_bsp/\libucosii_bsp.a(alt_iic.o)
 .debug_abbrev  0x0000efeb      0x14e ../rtc_socket_bsp/\libucosii_bsp.a(alt_iic_isr_register.o)
 .debug_abbrev  0x0000f139       0xf7 ../rtc_socket_bsp/\libucosii_bsp.a(alt_io_redirect.o)
 .debug_abbrev  0x0000f230       0x12 ../rtc_socket_bsp/\libucosii_bsp.a(alt_irq_entry.o)
 .debug_abbrev  0x0000f242      0x124 ../rtc_socket_bsp/\libucosii_bsp.a(alt_irq_handler.o)
 .debug_abbrev  0x0000f366      0x119 ../rtc_socket_bsp/\libucosii_bsp.a(alt_open.o)
 .debug_abbrev  0x0000f47f      0x102 ../rtc_socket_bsp/\libucosii_bsp.a(alt_read.o)
 .debug_abbrev  0x0000f581       0xd3 ../rtc_socket_bsp/\libucosii_bsp.a(alt_release_fd.o)
 .debug_abbrev  0x0000f654       0x74 ../rtc_socket_bsp/\libucosii_bsp.a(alt_remap_cached.o)
 .debug_abbrev  0x0000f6c8       0x74 ../rtc_socket_bsp/\libucosii_bsp.a(alt_remap_uncached.o)
 .debug_abbrev  0x0000f73c      0x107 ../rtc_socket_bsp/\libucosii_bsp.a(alt_write.o)
 .debug_abbrev  0x0000f843       0x3f ../rtc_socket_bsp/\libucosii_bsp.a(altera_nios2_qsys_irq.o)
 .debug_abbrev  0x0000f882       0x14 ../rtc_socket_bsp/\libucosii_bsp.a(os_cpu_a.o)
 .debug_abbrev  0x0000f896      0x1d0 ../rtc_socket_bsp/\libucosii_bsp.a(os_cpu_c.o)
 .debug_abbrev  0x0000fa66      0x14d ../rtc_socket_bsp/\libucosii_bsp.a(altera_avalon_cfi_flash_amd.o)
 .debug_abbrev  0x0000fbb3      0x14d ../rtc_socket_bsp/\libucosii_bsp.a(altera_avalon_cfi_flash_intel.o)
 .debug_abbrev  0x0000fd00       0x7c ../rtc_socket_bsp/\libucosii_bsp.a(altera_avalon_spi.o)
 .debug_abbrev  0x0000fd7c      0x173 ../rtc_socket_bsp/\libucosii_bsp.a(allports.o)
 .debug_abbrev  0x0000feef      0x151 ../rtc_socket_bsp/\libucosii_bsp.a(timeouts.o)
 .debug_abbrev  0x00010040       0xa4 ../rtc_socket_bsp/\libucosii_bsp.a(tk_misc.o)
 .debug_abbrev  0x000100e4       0x92 ../rtc_socket_bsp/\libucosii_bsp.a(alt_iniche_fcntl.o)
 .debug_abbrev  0x00010176      0x1eb ../rtc_socket_bsp/\libucosii_bsp.a(et_arp.o)
 .debug_abbrev  0x00010361      0x13d ../rtc_socket_bsp/\libucosii_bsp.a(iface.o)
 .debug_abbrev  0x0001049e      0x1ed ../rtc_socket_bsp/\libucosii_bsp.a(ip.o)
 .debug_abbrev  0x0001068b      0x1ca ../rtc_socket_bsp/\libucosii_bsp.a(ip_reasm.o)
 .debug_abbrev  0x00010855      0x166 ../rtc_socket_bsp/\libucosii_bsp.a(ipdemux.o)
 .debug_abbrev  0x000109bb      0x114 ../rtc_socket_bsp/\libucosii_bsp.a(ipmc.o)
 .debug_abbrev  0x00010acf       0xe9 ../rtc_socket_bsp/\libucosii_bsp.a(ipport.o)
 .debug_abbrev  0x00010bb8      0x19c ../rtc_socket_bsp/\libucosii_bsp.a(ipraw.o)
 .debug_abbrev  0x00010d54      0x156 ../rtc_socket_bsp/\libucosii_bsp.a(iproute.o)
 .debug_abbrev  0x00010eaa      0x1c0 ../rtc_socket_bsp/\libucosii_bsp.a(udp.o)
 .debug_abbrev  0x0001106a      0x10e ../rtc_socket_bsp/\libucosii_bsp.a(igmp.o)
 .debug_abbrev  0x00011178      0x17a ../rtc_socket_bsp/\libucosii_bsp.a(igmp2.o)
 .debug_abbrev  0x000112f2      0x189 ../rtc_socket_bsp/\libucosii_bsp.a(ipopt.o)
 .debug_abbrev  0x0001147b      0x15a ../rtc_socket_bsp/\libucosii_bsp.a(u_mctest.o)
 .debug_abbrev  0x000115d5      0x12e ../rtc_socket_bsp/\libucosii_bsp.a(dhcsetup.o)
 .debug_abbrev  0x00011703      0x175 ../rtc_socket_bsp/\libucosii_bsp.a(memdev.o)
 .debug_abbrev  0x00011878       0xad ../rtc_socket_bsp/\libucosii_bsp.a(tcpcksum.o)
 .debug_abbrev  0x00011925      0x19f ../rtc_socket_bsp/\libucosii_bsp.a(in_pcb.o)
 .debug_abbrev  0x00011ac4      0x1b6 ../rtc_socket_bsp/\libucosii_bsp.a(vfsfiles.o)
 .debug_abbrev  0x00011c7a       0x77 ../rtc_socket_bsp/\libucosii_bsp.a(vfsport.o)
 .debug_abbrev  0x00011cf1       0x12 ../rtc_socket_bsp/\libucosii_bsp.a(alt_exception_entry.o)
 .debug_abbrev  0x00011d03      0x107 ../rtc_socket_bsp/\libucosii_bsp.a(alt_fcntl.o)
 .debug_abbrev  0x00011e0a       0xd6 ../rtc_socket_bsp/\libucosii_bsp.a(alt_find_file.o)
 .debug_abbrev  0x00011ee0      0x173 ../rtc_socket_bsp/\libucosii_bsp.a(alt_get_fd.o)
 .debug_abbrev  0x00012053      0x15d ../rtc_socket_bsp/\libucosii_bsp.a(icmp.o)
 .debug_abbrev  0x000121b0       0xb7 c:/altera/13.0sp1/nios2eds/bin/gnu/h-i686-mingw32/bin/../lib/gcc/nios2-elf/4.1.2/../../../../nios2-elf/lib\libc.a(lib_a-atexit.o)
 .debug_abbrev  0x00012267      0x17f c:/altera/13.0sp1/nios2eds/bin/gnu/h-i686-mingw32/bin/../lib/gcc/nios2-elf/4.1.2/../../../../nios2-elf/lib\libc.a(lib_a-calloc.o)
 .debug_abbrev  0x000123e6      0x187 c:/altera/13.0sp1/nios2eds/bin/gnu/h-i686-mingw32/bin/../lib/gcc/nios2-elf/4.1.2/../../../../nios2-elf/lib\libc.a(lib_a-malloc.o)
 .debug_abbrev  0x0001256d       0x7c c:/altera/13.0sp1/nios2eds/bin/gnu/h-i686-mingw32/bin/../lib/gcc/nios2-elf/4.1.2/../../../../nios2-elf/lib\libc.a(lib_a-memcmp.o)
 .debug_abbrev  0x000125e9       0x8f c:/altera/13.0sp1/nios2eds/bin/gnu/h-i686-mingw32/bin/../lib/gcc/nios2-elf/4.1.2/../../../../nios2-elf/lib\libc.a(lib_a-strcpy.o)
 .debug_abbrev  0x00012678       0x8d c:/altera/13.0sp1/nios2eds/bin/gnu/h-i686-mingw32/bin/../lib/gcc/nios2-elf/4.1.2/../../../../nios2-elf/lib\libc.a(lib_a-strncmp.o)
 .debug_abbrev  0x00012705       0x9c c:/altera/13.0sp1/nios2eds/bin/gnu/h-i686-mingw32/bin/../lib/gcc/nios2-elf/4.1.2/../../../../nios2-elf/lib\libc.a(lib_a-strncpy.o)
 .debug_abbrev  0x000127a1      0x170 c:/altera/13.0sp1/nios2eds/bin/gnu/h-i686-mingw32/bin/../lib/gcc/nios2-elf/4.1.2/../../../../nios2-elf/lib\libc.a(lib_a-vprintf.o)
 .debug_abbrev  0x00012911      0x1a5 c:/altera/13.0sp1/nios2eds/bin/gnu/h-i686-mingw32/bin/../lib/gcc/nios2-elf/4.1.2/../../../../nios2-elf/lib\libc.a(lib_a-vsprintf.o)
 .debug_abbrev  0x00012ab6      0x1ae c:/altera/13.0sp1/nios2eds/bin/gnu/h-i686-mingw32/bin/../lib/gcc/nios2-elf/4.1.2/../../../../nios2-elf/lib\libc.a(lib_a-__atexit.o)

.debug_line     0x00000000    0x42a86
 *(.debug_line)
 .debug_line    0x00000000       0x57 ../rtc_socket_bsp//obj/HAL/src/crt0.o
 .debug_line    0x00000057      0x348 obj/default/LCD.o
 .debug_line    0x0000039f      0x50d obj/default/SSS_DE2_115.o
 .debug_line    0x000008ac      0x714 obj/default/alt_error_handler.o
 .debug_line    0x00000fc0      0xac5 obj/default/dm9000a.o
 .debug_line    0x00001a85      0x60e obj/default/iniche_init.o
 .debug_line    0x00002093      0x414 obj/default/led.o
 .debug_line    0x000024a7      0x7d4 obj/default/network_utilities.o
 .debug_line    0x00002c7b      0x6f2 obj/default/simple_socket_server.o
 .debug_line    0x0000336d       0x24 obj/default/tse_my_system.o
 .debug_line    0x00003391       0xff c:/altera/13.0sp1/nios2eds/bin/gnu/h-i686-mingw32/bin/../lib/gcc/nios2-elf/4.1.2\libgcc.a(_fixunsdfsi.o)
 .debug_line    0x00003490      0x430 c:/altera/13.0sp1/nios2eds/bin/gnu/h-i686-mingw32/bin/../lib/gcc/nios2-elf/4.1.2\libgcc.a(_addsub_df.o)
 .debug_line    0x000038c0      0x3e5 c:/altera/13.0sp1/nios2eds/bin/gnu/h-i686-mingw32/bin/../lib/gcc/nios2-elf/4.1.2\libgcc.a(_mul_df.o)
 .debug_line    0x00003ca5      0x129 c:/altera/13.0sp1/nios2eds/bin/gnu/h-i686-mingw32/bin/../lib/gcc/nios2-elf/4.1.2\libgcc.a(_ge_df.o)
 .debug_line    0x00003dce      0x149 c:/altera/13.0sp1/nios2eds/bin/gnu/h-i686-mingw32/bin/../lib/gcc/nios2-elf/4.1.2\libgcc.a(_df_to_si.o)
 .debug_line    0x00003f17       0x94 c:/altera/13.0sp1/nios2eds/bin/gnu/h-i686-mingw32/bin/../lib/gcc/nios2-elf/4.1.2\libgcc.a(_thenan_df.o)
 .debug_line    0x00003fab      0x189 c:/altera/13.0sp1/nios2eds/bin/gnu/h-i686-mingw32/bin/../lib/gcc/nios2-elf/4.1.2\libgcc.a(_usi_to_df.o)
 .debug_line    0x00004134      0x11f c:/altera/13.0sp1/nios2eds/bin/gnu/h-i686-mingw32/bin/../lib/gcc/nios2-elf/4.1.2\libgcc.a(_muldi3.o)
 .debug_line    0x00004253      0x105 c:/altera/13.0sp1/nios2eds/bin/gnu/h-i686-mingw32/bin/../lib/gcc/nios2-elf/4.1.2\libgcc.a(_clzsi2.o)
 .debug_line    0x00004358      0x222 c:/altera/13.0sp1/nios2eds/bin/gnu/h-i686-mingw32/bin/../lib/gcc/nios2-elf/4.1.2\libgcc.a(_pack_df.o)
 .debug_line    0x0000457a      0x1e4 c:/altera/13.0sp1/nios2eds/bin/gnu/h-i686-mingw32/bin/../lib/gcc/nios2-elf/4.1.2\libgcc.a(_unpack_df.o)
 .debug_line    0x0000475e      0x187 c:/altera/13.0sp1/nios2eds/bin/gnu/h-i686-mingw32/bin/../lib/gcc/nios2-elf/4.1.2\libgcc.a(_fpcmp_parts_df.o)
 .debug_line    0x000048e5       0xaa c:/altera/13.0sp1/nios2eds/bin/gnu/h-i686-mingw32/bin/../lib/gcc/nios2-elf/4.1.2\libgcc.a(_clz.o)
 .debug_line    0x0000498f      0x20a c:/altera/13.0sp1/nios2eds/bin/gnu/h-i686-mingw32/bin/../lib/gcc/nios2-elf/4.1.2/../../../../nios2-elf/lib\libc.a(lib_a-atoi.o)
 .debug_line    0x00004b99       0x7e c:/altera/13.0sp1/nios2eds/bin/gnu/h-i686-mingw32/bin/../lib/gcc/nios2-elf/4.1.2/../../../../nios2-elf/lib\libc.a(lib_a-ctype_.o)
 .debug_line    0x00004c17      0x1ec c:/altera/13.0sp1/nios2eds/bin/gnu/h-i686-mingw32/bin/../lib/gcc/nios2-elf/4.1.2/../../../../nios2-elf/lib\libc.a(lib_a-errno.o)
 .debug_line    0x00004e03      0x238 c:/altera/13.0sp1/nios2eds/bin/gnu/h-i686-mingw32/bin/../lib/gcc/nios2-elf/4.1.2/../../../../nios2-elf/lib\libc.a(lib_a-exit.o)
 .debug_line    0x0000503b      0x284 c:/altera/13.0sp1/nios2eds/bin/gnu/h-i686-mingw32/bin/../lib/gcc/nios2-elf/4.1.2/../../../../nios2-elf/lib\libc.a(lib_a-fprintf.o)
 .debug_line    0x000052bf      0x2d9 c:/altera/13.0sp1/nios2eds/bin/gnu/h-i686-mingw32/bin/../lib/gcc/nios2-elf/4.1.2/../../../../nios2-elf/lib\libc.a(lib_a-fwrite.o)
 .debug_line    0x00005598      0x2a4 c:/altera/13.0sp1/nios2eds/bin/gnu/h-i686-mingw32/bin/../lib/gcc/nios2-elf/4.1.2/../../../../nios2-elf/lib\libc.a(lib_a-getc.o)
 .debug_line    0x0000583c      0x22d c:/altera/13.0sp1/nios2eds/bin/gnu/h-i686-mingw32/bin/../lib/gcc/nios2-elf/4.1.2/../../../../nios2-elf/lib\libc.a(lib_a-impure.o)
 .debug_line    0x00005a69      0x1ac c:/altera/13.0sp1/nios2eds/bin/gnu/h-i686-mingw32/bin/../lib/gcc/nios2-elf/4.1.2/../../../../nios2-elf/lib\libc.a(lib_a-memcpy.o)
 .debug_line    0x00005c15      0x30a c:/altera/13.0sp1/nios2eds/bin/gnu/h-i686-mingw32/bin/../lib/gcc/nios2-elf/4.1.2/../../../../nios2-elf/lib\libc.a(lib_a-memmove.o)
 .debug_line    0x00005f1f      0x301 c:/altera/13.0sp1/nios2eds/bin/gnu/h-i686-mingw32/bin/../lib/gcc/nios2-elf/4.1.2/../../../../nios2-elf/lib\libc.a(lib_a-memset.o)
 .debug_line    0x00006220      0x2a4 c:/altera/13.0sp1/nios2eds/bin/gnu/h-i686-mingw32/bin/../lib/gcc/nios2-elf/4.1.2/../../../../nios2-elf/lib\libc.a(lib_a-perror.o)
 .debug_line    0x000064c4      0x29b c:/altera/13.0sp1/nios2eds/bin/gnu/h-i686-mingw32/bin/../lib/gcc/nios2-elf/4.1.2/../../../../nios2-elf/lib\libc.a(lib_a-printf.o)
 .debug_line    0x0000675f      0x2c4 c:/altera/13.0sp1/nios2eds/bin/gnu/h-i686-mingw32/bin/../lib/gcc/nios2-elf/4.1.2/../../../../nios2-elf/lib\libc.a(lib_a-putc.o)
 .debug_line    0x00006a23      0x264 c:/altera/13.0sp1/nios2eds/bin/gnu/h-i686-mingw32/bin/../lib/gcc/nios2-elf/4.1.2/../../../../nios2-elf/lib\libc.a(lib_a-putchar.o)
 .debug_line    0x00006c87      0x2f7 c:/altera/13.0sp1/nios2eds/bin/gnu/h-i686-mingw32/bin/../lib/gcc/nios2-elf/4.1.2/../../../../nios2-elf/lib\libc.a(lib_a-puts.o)
 .debug_line    0x00006f7e      0x23d c:/altera/13.0sp1/nios2eds/bin/gnu/h-i686-mingw32/bin/../lib/gcc/nios2-elf/4.1.2/../../../../nios2-elf/lib\libc.a(lib_a-rand.o)
 .debug_line    0x000071bb      0x28d c:/altera/13.0sp1/nios2eds/bin/gnu/h-i686-mingw32/bin/../lib/gcc/nios2-elf/4.1.2/../../../../nios2-elf/lib\libc.a(lib_a-rget.o)
 .debug_line    0x00007448      0x322 c:/altera/13.0sp1/nios2eds/bin/gnu/h-i686-mingw32/bin/../lib/gcc/nios2-elf/4.1.2/../../../../nios2-elf/lib\libc.a(lib_a-sprintf.o)
 .debug_line    0x0000776a      0x2c7 c:/altera/13.0sp1/nios2eds/bin/gnu/h-i686-mingw32/bin/../lib/gcc/nios2-elf/4.1.2/../../../../nios2-elf/lib\libc.a(lib_a-strchr.o)
 .debug_line    0x00007a31      0x2d5 c:/altera/13.0sp1/nios2eds/bin/gnu/h-i686-mingw32/bin/../lib/gcc/nios2-elf/4.1.2/../../../../nios2-elf/lib\libc.a(lib_a-strcmp.o)
 .debug_line    0x00007d06      0x4e1 c:/altera/13.0sp1/nios2eds/bin/gnu/h-i686-mingw32/bin/../lib/gcc/nios2-elf/4.1.2/../../../../nios2-elf/lib\libc.a(lib_a-strerror.o)
 .debug_line    0x000081e7      0x26d c:/altera/13.0sp1/nios2eds/bin/gnu/h-i686-mingw32/bin/../lib/gcc/nios2-elf/4.1.2/../../../../nios2-elf/lib\libc.a(lib_a-strlen.o)
 .debug_line    0x00008454      0x403 c:/altera/13.0sp1/nios2eds/bin/gnu/h-i686-mingw32/bin/../lib/gcc/nios2-elf/4.1.2/../../../../nios2-elf/lib\libc.a(lib_a-strtol.o)
 .debug_line    0x00008857      0x247 c:/altera/13.0sp1/nios2eds/bin/gnu/h-i686-mingw32/bin/../lib/gcc/nios2-elf/4.1.2/../../../../nios2-elf/lib\libc.a(lib_a-time.o)
 .debug_line    0x00008a9e       0x91 c:/altera/13.0sp1/nios2eds/bin/gnu/h-i686-mingw32/bin/../lib/gcc/nios2-elf/4.1.2/../../../../nios2-elf/lib\libc.a(lib_a-u_strerr.o)
 .debug_line    0x00008b2f     0x110c c:/altera/13.0sp1/nios2eds/bin/gnu/h-i686-mingw32/bin/../lib/gcc/nios2-elf/4.1.2/../../../../nios2-elf/lib\libc.a(lib_a-vfprintf.o)
 .debug_line    0x00009c3b      0x350 c:/altera/13.0sp1/nios2eds/bin/gnu/h-i686-mingw32/bin/../lib/gcc/nios2-elf/4.1.2/../../../../nios2-elf/lib\libc.a(lib_a-wbuf.o)
 .debug_line    0x00009f8b      0x2f0 c:/altera/13.0sp1/nios2eds/bin/gnu/h-i686-mingw32/bin/../lib/gcc/nios2-elf/4.1.2/../../../../nios2-elf/lib\libc.a(lib_a-wsetup.o)
 .debug_line    0x0000a27b      0x367 c:/altera/13.0sp1/nios2eds/bin/gnu/h-i686-mingw32/bin/../lib/gcc/nios2-elf/4.1.2/../../../../nios2-elf/lib\libc.a(lib_a-__call_atexit.o)
 .debug_line    0x0000a5e2     0x12c6 c:/altera/13.0sp1/nios2eds/bin/gnu/h-i686-mingw32/bin/../lib/gcc/nios2-elf/4.1.2/../../../../nios2-elf/lib\libc.a(lib_a-dtoa.o)
 .debug_line    0x0000b8a8      0x40d c:/altera/13.0sp1/nios2eds/bin/gnu/h-i686-mingw32/bin/../lib/gcc/nios2-elf/4.1.2/../../../../nios2-elf/lib\libc.a(lib_a-fflush.o)
 .debug_line    0x0000bcb5      0x601 c:/altera/13.0sp1/nios2eds/bin/gnu/h-i686-mingw32/bin/../lib/gcc/nios2-elf/4.1.2/../../../../nios2-elf/lib\libc.a(lib_a-findfp.o)
 .debug_line    0x0000c2b6      0x285 c:/altera/13.0sp1/nios2eds/bin/gnu/h-i686-mingw32/bin/../lib/gcc/nios2-elf/4.1.2/../../../../nios2-elf/lib\libc.a(lib_a-fputc.o)
 .debug_line    0x0000c53b      0x2c8 c:/altera/13.0sp1/nios2eds/bin/gnu/h-i686-mingw32/bin/../lib/gcc/nios2-elf/4.1.2/../../../../nios2-elf/lib\libc.a(lib_a-fputs.o)
 .debug_line    0x0000c803      0x5eb c:/altera/13.0sp1/nios2eds/bin/gnu/h-i686-mingw32/bin/../lib/gcc/nios2-elf/4.1.2/../../../../nios2-elf/lib\libc.a(lib_a-freer.o)
 .debug_line    0x0000cdee      0x641 c:/altera/13.0sp1/nios2eds/bin/gnu/h-i686-mingw32/bin/../lib/gcc/nios2-elf/4.1.2/../../../../nios2-elf/lib\libc.a(lib_a-fvwrite.o)
 .debug_line    0x0000d42f      0x34a c:/altera/13.0sp1/nios2eds/bin/gnu/h-i686-mingw32/bin/../lib/gcc/nios2-elf/4.1.2/../../../../nios2-elf/lib\libc.a(lib_a-fwalk.o)
 .debug_line    0x0000d779      0x27a c:/altera/13.0sp1/nios2eds/bin/gnu/h-i686-mingw32/bin/../lib/gcc/nios2-elf/4.1.2/../../../../nios2-elf/lib\libc.a(lib_a-gettimeofdayr.o)
 .debug_line    0x0000d9f3      0x1df c:/altera/13.0sp1/nios2eds/bin/gnu/h-i686-mingw32/bin/../lib/gcc/nios2-elf/4.1.2/../../../../nios2-elf/lib\libc.a(lib_a-int_errno.o)
 .debug_line    0x0000dbd2      0x2c8 c:/altera/13.0sp1/nios2eds/bin/gnu/h-i686-mingw32/bin/../lib/gcc/nios2-elf/4.1.2/../../../../nios2-elf/lib\libc.a(lib_a-locale.o)
 .debug_line    0x0000de9a      0x3c3 c:/altera/13.0sp1/nios2eds/bin/gnu/h-i686-mingw32/bin/../lib/gcc/nios2-elf/4.1.2/../../../../nios2-elf/lib\libc.a(lib_a-makebuf.o)
 .debug_line    0x0000e25d      0x80a c:/altera/13.0sp1/nios2eds/bin/gnu/h-i686-mingw32/bin/../lib/gcc/nios2-elf/4.1.2/../../../../nios2-elf/lib\libc.a(lib_a-mallocr.o)
 .debug_line    0x0000ea67      0x303 c:/altera/13.0sp1/nios2eds/bin/gnu/h-i686-mingw32/bin/../lib/gcc/nios2-elf/4.1.2/../../../../nios2-elf/lib\libc.a(lib_a-memchr.o)
 .debug_line    0x0000ed6a     0x1243 c:/altera/13.0sp1/nios2eds/bin/gnu/h-i686-mingw32/bin/../lib/gcc/nios2-elf/4.1.2/../../../../nios2-elf/lib\libc.a(lib_a-mprec.o)
 .debug_line    0x0000ffad      0x58a c:/altera/13.0sp1/nios2eds/bin/gnu/h-i686-mingw32/bin/../lib/gcc/nios2-elf/4.1.2/../../../../nios2-elf/lib\libc.a(lib_a-reallocr.o)
 .debug_line    0x00010537      0x3c4 c:/altera/13.0sp1/nios2eds/bin/gnu/h-i686-mingw32/bin/../lib/gcc/nios2-elf/4.1.2/../../../../nios2-elf/lib\libc.a(lib_a-refill.o)
 .debug_line    0x000108fb      0x222 c:/altera/13.0sp1/nios2eds/bin/gnu/h-i686-mingw32/bin/../lib/gcc/nios2-elf/4.1.2/../../../../nios2-elf/lib\libc.a(lib_a-s_isinfd.o)
 .debug_line    0x00010b1d      0x21a c:/altera/13.0sp1/nios2eds/bin/gnu/h-i686-mingw32/bin/../lib/gcc/nios2-elf/4.1.2/../../../../nios2-elf/lib\libc.a(lib_a-s_isnand.o)
 .debug_line    0x00010d37      0x299 c:/altera/13.0sp1/nios2eds/bin/gnu/h-i686-mingw32/bin/../lib/gcc/nios2-elf/4.1.2/../../../../nios2-elf/lib\libc.a(lib_a-sbrkr.o)
 .debug_line    0x00010fd0      0x38c c:/altera/13.0sp1/nios2eds/bin/gnu/h-i686-mingw32/bin/../lib/gcc/nios2-elf/4.1.2/../../../../nios2-elf/lib\libc.a(lib_a-stdio.o)
 .debug_line    0x0001135c      0x29a c:/altera/13.0sp1/nios2eds/bin/gnu/h-i686-mingw32/bin/../lib/gcc/nios2-elf/4.1.2/../../../../nios2-elf/lib\libc.a(lib_a-writer.o)
 .debug_line    0x000115f6      0x25c c:/altera/13.0sp1/nios2eds/bin/gnu/h-i686-mingw32/bin/../lib/gcc/nios2-elf/4.1.2/../../../../nios2-elf/lib\libc.a(lib_a-callocr.o)
 .debug_line    0x00011852      0x29a c:/altera/13.0sp1/nios2eds/bin/gnu/h-i686-mingw32/bin/../lib/gcc/nios2-elf/4.1.2/../../../../nios2-elf/lib\libc.a(lib_a-closer.o)
 .debug_line    0x00011aec      0x2e8 c:/altera/13.0sp1/nios2eds/bin/gnu/h-i686-mingw32/bin/../lib/gcc/nios2-elf/4.1.2/../../../../nios2-elf/lib\libc.a(lib_a-fclose.o)
 .debug_line    0x00011dd4      0x264 c:/altera/13.0sp1/nios2eds/bin/gnu/h-i686-mingw32/bin/../lib/gcc/nios2-elf/4.1.2/../../../../nios2-elf/lib\libc.a(lib_a-fstatr.o)
 .debug_line    0x00012038      0x29b c:/altera/13.0sp1/nios2eds/bin/gnu/h-i686-mingw32/bin/../lib/gcc/nios2-elf/4.1.2/../../../../nios2-elf/lib\libc.a(lib_a-isattyr.o)
 .debug_line    0x000122d3      0x29a c:/altera/13.0sp1/nios2eds/bin/gnu/h-i686-mingw32/bin/../lib/gcc/nios2-elf/4.1.2/../../../../nios2-elf/lib\libc.a(lib_a-lseekr.o)
 .debug_line    0x0001256d      0x299 c:/altera/13.0sp1/nios2eds/bin/gnu/h-i686-mingw32/bin/../lib/gcc/nios2-elf/4.1.2/../../../../nios2-elf/lib\libc.a(lib_a-readr.o)
 .debug_line    0x00012806      0x2f2 c:/altera/13.0sp1/nios2eds/bin/gnu/h-i686-mingw32/bin/../lib/gcc/nios2-elf/4.1.2\libgcc.a(_udivdi3.o)
 .debug_line    0x00012af8      0x37d c:/altera/13.0sp1/nios2eds/bin/gnu/h-i686-mingw32/bin/../lib/gcc/nios2-elf/4.1.2\libgcc.a(_umoddi3.o)
 .debug_line    0x00012e75      0x301 c:/altera/13.0sp1/nios2eds/bin/gnu/h-i686-mingw32/bin/../lib/gcc/nios2-elf/4.1.2\libgcc.a(_div_df.o)
 .debug_line    0x00013176      0x129 c:/altera/13.0sp1/nios2eds/bin/gnu/h-i686-mingw32/bin/../lib/gcc/nios2-elf/4.1.2\libgcc.a(_eq_df.o)
 .debug_line    0x0001329f      0x129 c:/altera/13.0sp1/nios2eds/bin/gnu/h-i686-mingw32/bin/../lib/gcc/nios2-elf/4.1.2\libgcc.a(_ne_df.o)
 .debug_line    0x000133c8      0x129 c:/altera/13.0sp1/nios2eds/bin/gnu/h-i686-mingw32/bin/../lib/gcc/nios2-elf/4.1.2\libgcc.a(_gt_df.o)
 .debug_line    0x000134f1      0x129 c:/altera/13.0sp1/nios2eds/bin/gnu/h-i686-mingw32/bin/../lib/gcc/nios2-elf/4.1.2\libgcc.a(_lt_df.o)
 .debug_line    0x0001361a      0x175 c:/altera/13.0sp1/nios2eds/bin/gnu/h-i686-mingw32/bin/../lib/gcc/nios2-elf/4.1.2\libgcc.a(_si_to_df.o)
 .debug_line    0x0001378f      0x24f c:/altera/13.0sp1/nios2eds/bin/gnu/h-i686-mingw32/bin/../lib/gcc/nios2-elf/4.1.2\libgcc.a(lib2-divmod.o)
 .debug_line    0x000139de      0x276 ../rtc_socket_bsp/\libucosii_bsp.a(alt_exit.o)
 .debug_line    0x00013c54      0x2c8 ../rtc_socket_bsp/\libucosii_bsp.a(alt_flash_dev.o)
 .debug_line    0x00013f1c      0x301 ../rtc_socket_bsp/\libucosii_bsp.a(alt_fstat.o)
 .debug_line    0x0001421d      0x2f5 ../rtc_socket_bsp/\libucosii_bsp.a(alt_gettod.o)
 .debug_line    0x00014512      0x36d ../rtc_socket_bsp/\libucosii_bsp.a(alt_irq_register.o)
 .debug_line    0x0001487f       0x72 ../rtc_socket_bsp/\libucosii_bsp.a(alt_irq_vars.o)
 .debug_line    0x000148f1      0x302 ../rtc_socket_bsp/\libucosii_bsp.a(alt_isatty.o)
 .debug_line    0x00014bf3      0x301 ../rtc_socket_bsp/\libucosii_bsp.a(alt_lseek.o)
 .debug_line    0x00014ef4      0x349 ../rtc_socket_bsp/\libucosii_bsp.a(alt_main.o)
 .debug_line    0x0001523d      0x261 ../rtc_socket_bsp/\libucosii_bsp.a(alt_sbrk.o)
 .debug_line    0x0001549e      0x316 ../rtc_socket_bsp/\libucosii_bsp.a(alt_tick.o)
 .debug_line    0x000157b4      0x2ad ../rtc_socket_bsp/\libucosii_bsp.a(alt_usleep.o)
 .debug_line    0x00015a61      0x2bf ../rtc_socket_bsp/\libucosii_bsp.a(alt_env_lock.o)
 .debug_line    0x00015d20      0x37b ../rtc_socket_bsp/\libucosii_bsp.a(alt_malloc_lock.o)
 .debug_line    0x0001609b     0x1663 ../rtc_socket_bsp/\libucosii_bsp.a(os_core.o)
 .debug_line    0x000176fe      0x388 ../rtc_socket_bsp/\libucosii_bsp.a(os_dbg.o)
 .debug_line    0x00017a86     0x11e7 ../rtc_socket_bsp/\libucosii_bsp.a(os_flag.o)
 .debug_line    0x00018c6d      0x78a ../rtc_socket_bsp/\libucosii_bsp.a(os_mem.o)
 .debug_line    0x000193f7      0xe6b ../rtc_socket_bsp/\libucosii_bsp.a(os_q.o)
 .debug_line    0x0001a262      0xa23 ../rtc_socket_bsp/\libucosii_bsp.a(os_sem.o)
 .debug_line    0x0001ac85     0x112c ../rtc_socket_bsp/\libucosii_bsp.a(os_task.o)
 .debug_line    0x0001bdb1      0x52f ../rtc_socket_bsp/\libucosii_bsp.a(os_time.o)
 .debug_line    0x0001c2e0      0x404 ../rtc_socket_bsp/\libucosii_bsp.a(alt_sys_init.o)
 .debug_line    0x0001c6e4      0x573 ../rtc_socket_bsp/\libucosii_bsp.a(altera_avalon_cfi_flash.o)
 .debug_line    0x0001cc57      0x979 ../rtc_socket_bsp/\libucosii_bsp.a(altera_avalon_cfi_flash_table.o)
 .debug_line    0x0001d5d0      0x6ef ../rtc_socket_bsp/\libucosii_bsp.a(altera_avalon_epcs_flash_controller.o)
 .debug_line    0x0001dcbf      0x319 ../rtc_socket_bsp/\libucosii_bsp.a(altera_avalon_jtag_uart_fd.o)
 .debug_line    0x0001dfd8      0x598 ../rtc_socket_bsp/\libucosii_bsp.a(altera_avalon_jtag_uart_init.o)
 .debug_line    0x0001e570      0x356 ../rtc_socket_bsp/\libucosii_bsp.a(altera_avalon_jtag_uart_ioctl.o)
 .debug_line    0x0001e8c6      0x494 ../rtc_socket_bsp/\libucosii_bsp.a(altera_avalon_jtag_uart_read.o)
 .debug_line    0x0001ed5a      0x4a2 ../rtc_socket_bsp/\libucosii_bsp.a(altera_avalon_jtag_uart_write.o)
 .debug_line    0x0001f1fc      0x940 ../rtc_socket_bsp/\libucosii_bsp.a(altera_avalon_lcd_16207.o)
 .debug_line    0x0001fb3c      0x2b9 ../rtc_socket_bsp/\libucosii_bsp.a(altera_avalon_lcd_16207_fd.o)
 .debug_line    0x0001fdf5      0x2b3 ../rtc_socket_bsp/\libucosii_bsp.a(altera_avalon_timer_sc.o)
 .debug_line    0x000200a8      0x2f7 ../rtc_socket_bsp/\libucosii_bsp.a(altera_avalon_uart_fd.o)
 .debug_line    0x0002039f      0x567 ../rtc_socket_bsp/\libucosii_bsp.a(altera_avalon_uart_init.o)
 .debug_line    0x00020906      0x4b3 ../rtc_socket_bsp/\libucosii_bsp.a(altera_avalon_uart_read.o)
 .debug_line    0x00020db9      0x495 ../rtc_socket_bsp/\libucosii_bsp.a(altera_avalon_uart_write.o)
 .debug_line    0x0002124e      0x408 ../rtc_socket_bsp/\libucosii_bsp.a(epcs_commands.o)
 .debug_line    0x00021656      0x347 ../rtc_socket_bsp/\libucosii_bsp.a(alt_iniche_close.o)
 .debug_line    0x0002199d      0x3ea ../rtc_socket_bsp/\libucosii_bsp.a(alt_iniche_dev.o)
 .debug_line    0x00021d87      0x346 ../rtc_socket_bsp/\libucosii_bsp.a(alt_iniche_read.o)
 .debug_line    0x000220cd      0x357 ../rtc_socket_bsp/\libucosii_bsp.a(alt_iniche_write.o)
 .debug_line    0x00022424      0x7a6 ../rtc_socket_bsp/\libucosii_bsp.a(ipnet.o)
 .debug_line    0x00022bca      0x4e7 ../rtc_socket_bsp/\libucosii_bsp.a(ipstart.o)
 .debug_line    0x000230b1      0x91c ../rtc_socket_bsp/\libucosii_bsp.a(igmp_cmn.o)
 .debug_line    0x000239cd      0x6c7 ../rtc_socket_bsp/\libucosii_bsp.a(bsdsock.o)
 .debug_line    0x00024094      0x30a ../rtc_socket_bsp/\libucosii_bsp.a(cksum.o)
 .debug_line    0x0002439e      0x7a9 ../rtc_socket_bsp/\libucosii_bsp.a(in_utils.o)
 .debug_line    0x00024b47      0x43f ../rtc_socket_bsp/\libucosii_bsp.a(netmain.o)
 .debug_line    0x00024f86      0x64d ../rtc_socket_bsp/\libucosii_bsp.a(parseip.o)
 .debug_line    0x000255d3      0x5a8 ../rtc_socket_bsp/\libucosii_bsp.a(tk_crnos.o)
 .debug_line    0x00025b7b     0x1069 ../rtc_socket_bsp/\libucosii_bsp.a(dhcpclnt.o)
 .debug_line    0x00026be4      0x2ff ../rtc_socket_bsp/\libucosii_bsp.a(dhcputil.o)
 .debug_line    0x00026ee3      0x649 ../rtc_socket_bsp/\libucosii_bsp.a(pktalloc.o)
 .debug_line    0x0002752c      0x3db ../rtc_socket_bsp/\libucosii_bsp.a(q.o)
 .debug_line    0x00027907      0x46e ../rtc_socket_bsp/\libucosii_bsp.a(udp_open.o)
 .debug_line    0x00027d75       0xaf ../rtc_socket_bsp/\libucosii_bsp.a(asm_cksum.o)
 .debug_line    0x00027e24      0x472 ../rtc_socket_bsp/\libucosii_bsp.a(brdutils.o)
 .debug_line    0x00028296      0x4ff ../rtc_socket_bsp/\libucosii_bsp.a(osportco.o)
 .debug_line    0x00028795      0x63e ../rtc_socket_bsp/\libucosii_bsp.a(targnios.o)
 .debug_line    0x00028dd3      0xf23 ../rtc_socket_bsp/\libucosii_bsp.a(nptcp.o)
 .debug_line    0x00029cf6      0x848 ../rtc_socket_bsp/\libucosii_bsp.a(rawsock.o)
 .debug_line    0x0002a53e      0xe36 ../rtc_socket_bsp/\libucosii_bsp.a(sockcall.o)
 .debug_line    0x0002b374     0x12b8 ../rtc_socket_bsp/\libucosii_bsp.a(socket.o)
 .debug_line    0x0002c62c      0xbec ../rtc_socket_bsp/\libucosii_bsp.a(socket2.o)
 .debug_line    0x0002d218      0x72d ../rtc_socket_bsp/\libucosii_bsp.a(soselect.o)
 .debug_line    0x0002d945     0x15ee ../rtc_socket_bsp/\libucosii_bsp.a(tcp_in.o)
 .debug_line    0x0002ef33      0xa59 ../rtc_socket_bsp/\libucosii_bsp.a(tcp_out.o)
 .debug_line    0x0002f98c      0x7c3 ../rtc_socket_bsp/\libucosii_bsp.a(tcp_subr.o)
 .debug_line    0x0003014f      0x613 ../rtc_socket_bsp/\libucosii_bsp.a(tcp_timr.o)
 .debug_line    0x00030762      0x8a2 ../rtc_socket_bsp/\libucosii_bsp.a(tcp_usr.o)
 .debug_line    0x00031004      0x33f ../rtc_socket_bsp/\libucosii_bsp.a(tcpport.o)
 .debug_line    0x00031343      0x959 ../rtc_socket_bsp/\libucosii_bsp.a(udpsock.o)
 .debug_line    0x00031c9c      0x2dc ../rtc_socket_bsp/\libucosii_bsp.a(alt_alarm_start.o)
 .debug_line    0x00031f78      0x25c ../rtc_socket_bsp/\libucosii_bsp.a(alt_busy_sleep.o)
 .debug_line    0x000321d4      0x2f9 ../rtc_socket_bsp/\libucosii_bsp.a(alt_close.o)
 .debug_line    0x000324cd      0x1e1 ../rtc_socket_bsp/\libucosii_bsp.a(alt_dcache_flush.o)
 .debug_line    0x000326ae      0x2ba ../rtc_socket_bsp/\libucosii_bsp.a(alt_dev.o)
 .debug_line    0x00032968      0x25a ../rtc_socket_bsp/\libucosii_bsp.a(alt_dev_llist_insert.o)
 .debug_line    0x00032bc2       0x83 ../rtc_socket_bsp/\libucosii_bsp.a(alt_do_ctors.o)
 .debug_line    0x00032c45       0x83 ../rtc_socket_bsp/\libucosii_bsp.a(alt_do_dtors.o)
 .debug_line    0x00032cc8      0x1aa ../rtc_socket_bsp/\libucosii_bsp.a(alt_errno.o)
 .debug_line    0x00032e72      0x2da ../rtc_socket_bsp/\libucosii_bsp.a(alt_find_dev.o)
 .debug_line    0x0003314c      0x2c8 ../rtc_socket_bsp/\libucosii_bsp.a(alt_iic.o)
 .debug_line    0x00033414      0x249 ../rtc_socket_bsp/\libucosii_bsp.a(alt_iic_isr_register.o)
 .debug_line    0x0003365d      0x323 ../rtc_socket_bsp/\libucosii_bsp.a(alt_io_redirect.o)
 .debug_line    0x00033980       0x6b ../rtc_socket_bsp/\libucosii_bsp.a(alt_irq_entry.o)
 .debug_line    0x000339eb      0x2c4 ../rtc_socket_bsp/\libucosii_bsp.a(alt_irq_handler.o)
 .debug_line    0x00033caf      0x35f ../rtc_socket_bsp/\libucosii_bsp.a(alt_open.o)
 .debug_line    0x0003400e      0x328 ../rtc_socket_bsp/\libucosii_bsp.a(alt_read.o)
 .debug_line    0x00034336      0x279 ../rtc_socket_bsp/\libucosii_bsp.a(alt_release_fd.o)
 .debug_line    0x000345af      0x1b9 ../rtc_socket_bsp/\libucosii_bsp.a(alt_remap_cached.o)
 .debug_line    0x00034768      0x1c3 ../rtc_socket_bsp/\libucosii_bsp.a(alt_remap_uncached.o)
 .debug_line    0x0003492b      0x329 ../rtc_socket_bsp/\libucosii_bsp.a(alt_write.o)
 .debug_line    0x00034c54      0x1ce ../rtc_socket_bsp/\libucosii_bsp.a(altera_nios2_qsys_irq.o)
 .debug_line    0x00034e22       0x86 ../rtc_socket_bsp/\libucosii_bsp.a(os_cpu_a.o)
 .debug_line    0x00034ea8      0x330 ../rtc_socket_bsp/\libucosii_bsp.a(os_cpu_c.o)
 .debug_line    0x000351d8      0x445 ../rtc_socket_bsp/\libucosii_bsp.a(altera_avalon_cfi_flash_amd.o)
 .debug_line    0x0003561d      0x437 ../rtc_socket_bsp/\libucosii_bsp.a(altera_avalon_cfi_flash_intel.o)
 .debug_line    0x00035a54      0x1f2 ../rtc_socket_bsp/\libucosii_bsp.a(altera_avalon_spi.o)
 .debug_line    0x00035c46      0x51f ../rtc_socket_bsp/\libucosii_bsp.a(allports.o)
 .debug_line    0x00036165      0x483 ../rtc_socket_bsp/\libucosii_bsp.a(timeouts.o)
 .debug_line    0x000365e8      0x370 ../rtc_socket_bsp/\libucosii_bsp.a(tk_misc.o)
 .debug_line    0x00036958      0x38f ../rtc_socket_bsp/\libucosii_bsp.a(alt_iniche_fcntl.o)
 .debug_line    0x00036ce7      0xca2 ../rtc_socket_bsp/\libucosii_bsp.a(et_arp.o)
 .debug_line    0x00037989      0x479 ../rtc_socket_bsp/\libucosii_bsp.a(iface.o)
 .debug_line    0x00037e02      0xf95 ../rtc_socket_bsp/\libucosii_bsp.a(ip.o)
 .debug_line    0x00038d97      0xf7c ../rtc_socket_bsp/\libucosii_bsp.a(ip_reasm.o)
 .debug_line    0x00039d13      0x786 ../rtc_socket_bsp/\libucosii_bsp.a(ipdemux.o)
 .debug_line    0x0003a499      0x468 ../rtc_socket_bsp/\libucosii_bsp.a(ipmc.o)
 .debug_line    0x0003a901      0x338 ../rtc_socket_bsp/\libucosii_bsp.a(ipport.o)
 .debug_line    0x0003ac39      0x5b9 ../rtc_socket_bsp/\libucosii_bsp.a(ipraw.o)
 .debug_line    0x0003b1f2      0x5bb ../rtc_socket_bsp/\libucosii_bsp.a(iproute.o)
 .debug_line    0x0003b7ad      0x7f6 ../rtc_socket_bsp/\libucosii_bsp.a(udp.o)
 .debug_line    0x0003bfa3      0x43a ../rtc_socket_bsp/\libucosii_bsp.a(igmp.o)
 .debug_line    0x0003c3dd      0x62d ../rtc_socket_bsp/\libucosii_bsp.a(igmp2.o)
 .debug_line    0x0003ca0a      0x711 ../rtc_socket_bsp/\libucosii_bsp.a(ipopt.o)
 .debug_line    0x0003d11b      0x5fb ../rtc_socket_bsp/\libucosii_bsp.a(u_mctest.o)
 .debug_line    0x0003d716      0x43f ../rtc_socket_bsp/\libucosii_bsp.a(dhcsetup.o)
 .debug_line    0x0003db55      0x449 ../rtc_socket_bsp/\libucosii_bsp.a(memdev.o)
 .debug_line    0x0003df9e      0x3b9 ../rtc_socket_bsp/\libucosii_bsp.a(tcpcksum.o)
 .debug_line    0x0003e357      0x76d ../rtc_socket_bsp/\libucosii_bsp.a(in_pcb.o)
 .debug_line    0x0003eac4      0xff7 ../rtc_socket_bsp/\libucosii_bsp.a(vfsfiles.o)
 .debug_line    0x0003fabb      0x2c4 ../rtc_socket_bsp/\libucosii_bsp.a(vfsport.o)
 .debug_line    0x0003fd7f       0xab ../rtc_socket_bsp/\libucosii_bsp.a(alt_exception_entry.o)
 .debug_line    0x0003fe2a      0x358 ../rtc_socket_bsp/\libucosii_bsp.a(alt_fcntl.o)
 .debug_line    0x00040182      0x2eb ../rtc_socket_bsp/\libucosii_bsp.a(alt_find_file.o)
 .debug_line    0x0004046d      0x31b ../rtc_socket_bsp/\libucosii_bsp.a(alt_get_fd.o)
 .debug_line    0x00040788      0x958 ../rtc_socket_bsp/\libucosii_bsp.a(icmp.o)
 .debug_line    0x000410e0      0x200 c:/altera/13.0sp1/nios2eds/bin/gnu/h-i686-mingw32/bin/../lib/gcc/nios2-elf/4.1.2/../../../../nios2-elf/lib\libc.a(lib_a-atexit.o)
 .debug_line    0x000412e0      0x20c c:/altera/13.0sp1/nios2eds/bin/gnu/h-i686-mingw32/bin/../lib/gcc/nios2-elf/4.1.2/../../../../nios2-elf/lib\libc.a(lib_a-calloc.o)
 .debug_line    0x000414ec      0x24b c:/altera/13.0sp1/nios2eds/bin/gnu/h-i686-mingw32/bin/../lib/gcc/nios2-elf/4.1.2/../../../../nios2-elf/lib\libc.a(lib_a-malloc.o)
 .debug_line    0x00041737      0x29f c:/altera/13.0sp1/nios2eds/bin/gnu/h-i686-mingw32/bin/../lib/gcc/nios2-elf/4.1.2/../../../../nios2-elf/lib\libc.a(lib_a-memcmp.o)
 .debug_line    0x000419d6      0x287 c:/altera/13.0sp1/nios2eds/bin/gnu/h-i686-mingw32/bin/../lib/gcc/nios2-elf/4.1.2/../../../../nios2-elf/lib\libc.a(lib_a-strcpy.o)
 .debug_line    0x00041c5d      0x2fe c:/altera/13.0sp1/nios2eds/bin/gnu/h-i686-mingw32/bin/../lib/gcc/nios2-elf/4.1.2/../../../../nios2-elf/lib\libc.a(lib_a-strncmp.o)
 .debug_line    0x00041f5b      0x2d0 c:/altera/13.0sp1/nios2eds/bin/gnu/h-i686-mingw32/bin/../lib/gcc/nios2-elf/4.1.2/../../../../nios2-elf/lib\libc.a(lib_a-strncpy.o)
 .debug_line    0x0004222b      0x26f c:/altera/13.0sp1/nios2eds/bin/gnu/h-i686-mingw32/bin/../lib/gcc/nios2-elf/4.1.2/../../../../nios2-elf/lib\libc.a(lib_a-vprintf.o)
 .debug_line    0x0004249a      0x2d9 c:/altera/13.0sp1/nios2eds/bin/gnu/h-i686-mingw32/bin/../lib/gcc/nios2-elf/4.1.2/../../../../nios2-elf/lib\libc.a(lib_a-vsprintf.o)
 .debug_line    0x00042773      0x313 c:/altera/13.0sp1/nios2eds/bin/gnu/h-i686-mingw32/bin/../lib/gcc/nios2-elf/4.1.2/../../../../nios2-elf/lib\libc.a(lib_a-__atexit.o)

.debug_frame    0x00000000     0x6824
 *(.debug_frame)
 .debug_frame   0x00000000       0xbc obj/default/LCD.o
 .debug_frame   0x000000bc       0x48 obj/default/SSS_DE2_115.o
 .debug_frame   0x00000104       0x64 obj/default/alt_error_handler.o
 .debug_frame   0x00000168      0x19c obj/default/dm9000a.o
 .debug_frame   0x00000304       0x4c obj/default/iniche_init.o
 .debug_frame   0x00000350       0x64 obj/default/led.o
 .debug_frame   0x000003b4       0xbc obj/default/network_utilities.o
 .debug_frame   0x00000470       0xfc obj/default/simple_socket_server.o
 .debug_frame   0x0000056c       0x30 c:/altera/13.0sp1/nios2eds/bin/gnu/h-i686-mingw32/bin/../lib/gcc/nios2-elf/4.1.2\libgcc.a(_fixunsdfsi.o)
 .debug_frame   0x0000059c       0x70 c:/altera/13.0sp1/nios2eds/bin/gnu/h-i686-mingw32/bin/../lib/gcc/nios2-elf/4.1.2\libgcc.a(_addsub_df.o)
 .debug_frame   0x0000060c       0x3c c:/altera/13.0sp1/nios2eds/bin/gnu/h-i686-mingw32/bin/../lib/gcc/nios2-elf/4.1.2\libgcc.a(_mul_df.o)
 .debug_frame   0x00000648       0x2c c:/altera/13.0sp1/nios2eds/bin/gnu/h-i686-mingw32/bin/../lib/gcc/nios2-elf/4.1.2\libgcc.a(_ge_df.o)
 .debug_frame   0x00000674       0x28 c:/altera/13.0sp1/nios2eds/bin/gnu/h-i686-mingw32/bin/../lib/gcc/nios2-elf/4.1.2\libgcc.a(_df_to_si.o)
 .debug_frame   0x0000069c       0x38 c:/altera/13.0sp1/nios2eds/bin/gnu/h-i686-mingw32/bin/../lib/gcc/nios2-elf/4.1.2\libgcc.a(_usi_to_df.o)
 .debug_frame   0x000006d4       0x2c c:/altera/13.0sp1/nios2eds/bin/gnu/h-i686-mingw32/bin/../lib/gcc/nios2-elf/4.1.2\libgcc.a(_muldi3.o)
 .debug_frame   0x00000700       0x20 c:/altera/13.0sp1/nios2eds/bin/gnu/h-i686-mingw32/bin/../lib/gcc/nios2-elf/4.1.2\libgcc.a(_clzsi2.o)
 .debug_frame   0x00000720       0x2c c:/altera/13.0sp1/nios2eds/bin/gnu/h-i686-mingw32/bin/../lib/gcc/nios2-elf/4.1.2\libgcc.a(_pack_df.o)
 .debug_frame   0x0000074c       0x20 c:/altera/13.0sp1/nios2eds/bin/gnu/h-i686-mingw32/bin/../lib/gcc/nios2-elf/4.1.2\libgcc.a(_unpack_df.o)
 .debug_frame   0x0000076c       0x20 c:/altera/13.0sp1/nios2eds/bin/gnu/h-i686-mingw32/bin/../lib/gcc/nios2-elf/4.1.2\libgcc.a(_fpcmp_parts_df.o)
 .debug_frame   0x0000078c       0x30 c:/altera/13.0sp1/nios2eds/bin/gnu/h-i686-mingw32/bin/../lib/gcc/nios2-elf/4.1.2/../../../../nios2-elf/lib\libc.a(lib_a-atoi.o)
 .debug_frame   0x000007bc       0x20 c:/altera/13.0sp1/nios2eds/bin/gnu/h-i686-mingw32/bin/../lib/gcc/nios2-elf/4.1.2/../../../../nios2-elf/lib\libc.a(lib_a-errno.o)
 .debug_frame   0x000007dc       0x28 c:/altera/13.0sp1/nios2eds/bin/gnu/h-i686-mingw32/bin/../lib/gcc/nios2-elf/4.1.2/../../../../nios2-elf/lib\libc.a(lib_a-exit.o)
 .debug_frame   0x00000804       0x40 c:/altera/13.0sp1/nios2eds/bin/gnu/h-i686-mingw32/bin/../lib/gcc/nios2-elf/4.1.2/../../../../nios2-elf/lib\libc.a(lib_a-fprintf.o)
 .debug_frame   0x00000844       0x48 c:/altera/13.0sp1/nios2eds/bin/gnu/h-i686-mingw32/bin/../lib/gcc/nios2-elf/4.1.2/../../../../nios2-elf/lib\libc.a(lib_a-fwrite.o)
 .debug_frame   0x0000088c       0x48 c:/altera/13.0sp1/nios2eds/bin/gnu/h-i686-mingw32/bin/../lib/gcc/nios2-elf/4.1.2/../../../../nios2-elf/lib\libc.a(lib_a-getc.o)
 .debug_frame   0x000008d4       0x20 c:/altera/13.0sp1/nios2eds/bin/gnu/h-i686-mingw32/bin/../lib/gcc/nios2-elf/4.1.2/../../../../nios2-elf/lib\libc.a(lib_a-memcpy.o)
 .debug_frame   0x000008f4       0x20 c:/altera/13.0sp1/nios2eds/bin/gnu/h-i686-mingw32/bin/../lib/gcc/nios2-elf/4.1.2/../../../../nios2-elf/lib\libc.a(lib_a-memmove.o)
 .debug_frame   0x00000914       0x20 c:/altera/13.0sp1/nios2eds/bin/gnu/h-i686-mingw32/bin/../lib/gcc/nios2-elf/4.1.2/../../../../nios2-elf/lib\libc.a(lib_a-memset.o)
 .debug_frame   0x00000934       0x38 c:/altera/13.0sp1/nios2eds/bin/gnu/h-i686-mingw32/bin/../lib/gcc/nios2-elf/4.1.2/../../../../nios2-elf/lib\libc.a(lib_a-perror.o)
 .debug_frame   0x0000096c       0x40 c:/altera/13.0sp1/nios2eds/bin/gnu/h-i686-mingw32/bin/../lib/gcc/nios2-elf/4.1.2/../../../../nios2-elf/lib\libc.a(lib_a-printf.o)
 .debug_frame   0x000009ac       0x4c c:/altera/13.0sp1/nios2eds/bin/gnu/h-i686-mingw32/bin/../lib/gcc/nios2-elf/4.1.2/../../../../nios2-elf/lib\libc.a(lib_a-putc.o)
 .debug_frame   0x000009f8       0x30 c:/altera/13.0sp1/nios2eds/bin/gnu/h-i686-mingw32/bin/../lib/gcc/nios2-elf/4.1.2/../../../../nios2-elf/lib\libc.a(lib_a-putchar.o)
 .debug_frame   0x00000a28       0x3c c:/altera/13.0sp1/nios2eds/bin/gnu/h-i686-mingw32/bin/../lib/gcc/nios2-elf/4.1.2/../../../../nios2-elf/lib\libc.a(lib_a-puts.o)
 .debug_frame   0x00000a64       0x3c c:/altera/13.0sp1/nios2eds/bin/gnu/h-i686-mingw32/bin/../lib/gcc/nios2-elf/4.1.2/../../../../nios2-elf/lib\libc.a(lib_a-rand.o)
 .debug_frame   0x00000aa0       0x38 c:/altera/13.0sp1/nios2eds/bin/gnu/h-i686-mingw32/bin/../lib/gcc/nios2-elf/4.1.2/../../../../nios2-elf/lib\libc.a(lib_a-rget.o)
 .debug_frame   0x00000ad8       0x40 c:/altera/13.0sp1/nios2eds/bin/gnu/h-i686-mingw32/bin/../lib/gcc/nios2-elf/4.1.2/../../../../nios2-elf/lib\libc.a(lib_a-sprintf.o)
 .debug_frame   0x00000b18       0x20 c:/altera/13.0sp1/nios2eds/bin/gnu/h-i686-mingw32/bin/../lib/gcc/nios2-elf/4.1.2/../../../../nios2-elf/lib\libc.a(lib_a-strchr.o)
 .debug_frame   0x00000b38       0x20 c:/altera/13.0sp1/nios2eds/bin/gnu/h-i686-mingw32/bin/../lib/gcc/nios2-elf/4.1.2/../../../../nios2-elf/lib\libc.a(lib_a-strcmp.o)
 .debug_frame   0x00000b58       0x28 c:/altera/13.0sp1/nios2eds/bin/gnu/h-i686-mingw32/bin/../lib/gcc/nios2-elf/4.1.2/../../../../nios2-elf/lib\libc.a(lib_a-strerror.o)
 .debug_frame   0x00000b80       0x20 c:/altera/13.0sp1/nios2eds/bin/gnu/h-i686-mingw32/bin/../lib/gcc/nios2-elf/4.1.2/../../../../nios2-elf/lib\libc.a(lib_a-strlen.o)
 .debug_frame   0x00000ba0       0x4c c:/altera/13.0sp1/nios2eds/bin/gnu/h-i686-mingw32/bin/../lib/gcc/nios2-elf/4.1.2/../../../../nios2-elf/lib\libc.a(lib_a-strtol.o)
 .debug_frame   0x00000bec       0x2c c:/altera/13.0sp1/nios2eds/bin/gnu/h-i686-mingw32/bin/../lib/gcc/nios2-elf/4.1.2/../../../../nios2-elf/lib\libc.a(lib_a-time.o)
 .debug_frame   0x00000c18       0x20 c:/altera/13.0sp1/nios2eds/bin/gnu/h-i686-mingw32/bin/../lib/gcc/nios2-elf/4.1.2/../../../../nios2-elf/lib\libc.a(lib_a-u_strerr.o)
 .debug_frame   0x00000c38       0x64 c:/altera/13.0sp1/nios2eds/bin/gnu/h-i686-mingw32/bin/../lib/gcc/nios2-elf/4.1.2/../../../../nios2-elf/lib\libc.a(lib_a-vfprintf.o)
 .debug_frame   0x00000c9c       0x3c c:/altera/13.0sp1/nios2eds/bin/gnu/h-i686-mingw32/bin/../lib/gcc/nios2-elf/4.1.2/../../../../nios2-elf/lib\libc.a(lib_a-wbuf.o)
 .debug_frame   0x00000cd8       0x2c c:/altera/13.0sp1/nios2eds/bin/gnu/h-i686-mingw32/bin/../lib/gcc/nios2-elf/4.1.2/../../../../nios2-elf/lib\libc.a(lib_a-wsetup.o)
 .debug_frame   0x00000d04       0x4c c:/altera/13.0sp1/nios2eds/bin/gnu/h-i686-mingw32/bin/../lib/gcc/nios2-elf/4.1.2/../../../../nios2-elf/lib\libc.a(lib_a-__call_atexit.o)
 .debug_frame   0x00000d50       0x64 c:/altera/13.0sp1/nios2eds/bin/gnu/h-i686-mingw32/bin/../lib/gcc/nios2-elf/4.1.2/../../../../nios2-elf/lib\libc.a(lib_a-dtoa.o)
 .debug_frame   0x00000db4       0x40 c:/altera/13.0sp1/nios2eds/bin/gnu/h-i686-mingw32/bin/../lib/gcc/nios2-elf/4.1.2/../../../../nios2-elf/lib\libc.a(lib_a-fflush.o)
 .debug_frame   0x00000df4      0x118 c:/altera/13.0sp1/nios2eds/bin/gnu/h-i686-mingw32/bin/../lib/gcc/nios2-elf/4.1.2/../../../../nios2-elf/lib\libc.a(lib_a-findfp.o)
 .debug_frame   0x00000f0c       0x4c c:/altera/13.0sp1/nios2eds/bin/gnu/h-i686-mingw32/bin/../lib/gcc/nios2-elf/4.1.2/../../../../nios2-elf/lib\libc.a(lib_a-fputc.o)
 .debug_frame   0x00000f58       0x3c c:/altera/13.0sp1/nios2eds/bin/gnu/h-i686-mingw32/bin/../lib/gcc/nios2-elf/4.1.2/../../../../nios2-elf/lib\libc.a(lib_a-fputs.o)
 .debug_frame   0x00000f94       0x4c c:/altera/13.0sp1/nios2eds/bin/gnu/h-i686-mingw32/bin/../lib/gcc/nios2-elf/4.1.2/../../../../nios2-elf/lib\libc.a(lib_a-freer.o)
 .debug_frame   0x00000fe0       0x38 c:/altera/13.0sp1/nios2eds/bin/gnu/h-i686-mingw32/bin/../lib/gcc/nios2-elf/4.1.2/../../../../nios2-elf/lib\libc.a(lib_a-fvwrite.o)
 .debug_frame   0x00001018       0x60 c:/altera/13.0sp1/nios2eds/bin/gnu/h-i686-mingw32/bin/../lib/gcc/nios2-elf/4.1.2/../../../../nios2-elf/lib\libc.a(lib_a-fwalk.o)
 .debug_frame   0x00001078       0x2c c:/altera/13.0sp1/nios2eds/bin/gnu/h-i686-mingw32/bin/../lib/gcc/nios2-elf/4.1.2/../../../../nios2-elf/lib\libc.a(lib_a-gettimeofdayr.o)
 .debug_frame   0x000010a4       0x70 c:/altera/13.0sp1/nios2eds/bin/gnu/h-i686-mingw32/bin/../lib/gcc/nios2-elf/4.1.2/../../../../nios2-elf/lib\libc.a(lib_a-locale.o)
 .debug_frame   0x00001114       0x2c c:/altera/13.0sp1/nios2eds/bin/gnu/h-i686-mingw32/bin/../lib/gcc/nios2-elf/4.1.2/../../../../nios2-elf/lib\libc.a(lib_a-makebuf.o)
 .debug_frame   0x00001140       0x38 c:/altera/13.0sp1/nios2eds/bin/gnu/h-i686-mingw32/bin/../lib/gcc/nios2-elf/4.1.2/../../../../nios2-elf/lib\libc.a(lib_a-mallocr.o)
 .debug_frame   0x00001178       0x20 c:/altera/13.0sp1/nios2eds/bin/gnu/h-i686-mingw32/bin/../lib/gcc/nios2-elf/4.1.2/../../../../nios2-elf/lib\libc.a(lib_a-memchr.o)
 .debug_frame   0x00001198      0x218 c:/altera/13.0sp1/nios2eds/bin/gnu/h-i686-mingw32/bin/../lib/gcc/nios2-elf/4.1.2/../../../../nios2-elf/lib\libc.a(lib_a-mprec.o)
 .debug_frame   0x000013b0       0x38 c:/altera/13.0sp1/nios2eds/bin/gnu/h-i686-mingw32/bin/../lib/gcc/nios2-elf/4.1.2/../../../../nios2-elf/lib\libc.a(lib_a-reallocr.o)
 .debug_frame   0x000013e8       0x3c c:/altera/13.0sp1/nios2eds/bin/gnu/h-i686-mingw32/bin/../lib/gcc/nios2-elf/4.1.2/../../../../nios2-elf/lib\libc.a(lib_a-refill.o)
 .debug_frame   0x00001424       0x20 c:/altera/13.0sp1/nios2eds/bin/gnu/h-i686-mingw32/bin/../lib/gcc/nios2-elf/4.1.2/../../../../nios2-elf/lib\libc.a(lib_a-s_isinfd.o)
 .debug_frame   0x00001444       0x20 c:/altera/13.0sp1/nios2eds/bin/gnu/h-i686-mingw32/bin/../lib/gcc/nios2-elf/4.1.2/../../../../nios2-elf/lib\libc.a(lib_a-s_isnand.o)
 .debug_frame   0x00001464       0x2c c:/altera/13.0sp1/nios2eds/bin/gnu/h-i686-mingw32/bin/../lib/gcc/nios2-elf/4.1.2/../../../../nios2-elf/lib\libc.a(lib_a-sbrkr.o)
 .debug_frame   0x00001490       0x78 c:/altera/13.0sp1/nios2eds/bin/gnu/h-i686-mingw32/bin/../lib/gcc/nios2-elf/4.1.2/../../../../nios2-elf/lib\libc.a(lib_a-stdio.o)
 .debug_frame   0x00001508       0x2c c:/altera/13.0sp1/nios2eds/bin/gnu/h-i686-mingw32/bin/../lib/gcc/nios2-elf/4.1.2/../../../../nios2-elf/lib\libc.a(lib_a-writer.o)
 .debug_frame   0x00001534       0x28 c:/altera/13.0sp1/nios2eds/bin/gnu/h-i686-mingw32/bin/../lib/gcc/nios2-elf/4.1.2/../../../../nios2-elf/lib\libc.a(lib_a-callocr.o)
 .debug_frame   0x0000155c       0x2c c:/altera/13.0sp1/nios2eds/bin/gnu/h-i686-mingw32/bin/../lib/gcc/nios2-elf/4.1.2/../../../../nios2-elf/lib\libc.a(lib_a-closer.o)
 .debug_frame   0x00001588       0x3c c:/altera/13.0sp1/nios2eds/bin/gnu/h-i686-mingw32/bin/../lib/gcc/nios2-elf/4.1.2/../../../../nios2-elf/lib\libc.a(lib_a-fclose.o)
 .debug_frame   0x000015c4       0x2c c:/altera/13.0sp1/nios2eds/bin/gnu/h-i686-mingw32/bin/../lib/gcc/nios2-elf/4.1.2/../../../../nios2-elf/lib\libc.a(lib_a-fstatr.o)
 .debug_frame   0x000015f0       0x2c c:/altera/13.0sp1/nios2eds/bin/gnu/h-i686-mingw32/bin/../lib/gcc/nios2-elf/4.1.2/../../../../nios2-elf/lib\libc.a(lib_a-isattyr.o)
 .debug_frame   0x0000161c       0x2c c:/altera/13.0sp1/nios2eds/bin/gnu/h-i686-mingw32/bin/../lib/gcc/nios2-elf/4.1.2/../../../../nios2-elf/lib\libc.a(lib_a-lseekr.o)
 .debug_frame   0x00001648       0x2c c:/altera/13.0sp1/nios2eds/bin/gnu/h-i686-mingw32/bin/../lib/gcc/nios2-elf/4.1.2/../../../../nios2-elf/lib\libc.a(lib_a-readr.o)
 .debug_frame   0x00001674       0x38 c:/altera/13.0sp1/nios2eds/bin/gnu/h-i686-mingw32/bin/../lib/gcc/nios2-elf/4.1.2\libgcc.a(_udivdi3.o)
 .debug_frame   0x000016ac       0x38 c:/altera/13.0sp1/nios2eds/bin/gnu/h-i686-mingw32/bin/../lib/gcc/nios2-elf/4.1.2\libgcc.a(_umoddi3.o)
 .debug_frame   0x000016e4       0x30 c:/altera/13.0sp1/nios2eds/bin/gnu/h-i686-mingw32/bin/../lib/gcc/nios2-elf/4.1.2\libgcc.a(_div_df.o)
 .debug_frame   0x00001714       0x2c c:/altera/13.0sp1/nios2eds/bin/gnu/h-i686-mingw32/bin/../lib/gcc/nios2-elf/4.1.2\libgcc.a(_eq_df.o)
 .debug_frame   0x00001740       0x2c c:/altera/13.0sp1/nios2eds/bin/gnu/h-i686-mingw32/bin/../lib/gcc/nios2-elf/4.1.2\libgcc.a(_ne_df.o)
 .debug_frame   0x0000176c       0x2c c:/altera/13.0sp1/nios2eds/bin/gnu/h-i686-mingw32/bin/../lib/gcc/nios2-elf/4.1.2\libgcc.a(_gt_df.o)
 .debug_frame   0x00001798       0x2c c:/altera/13.0sp1/nios2eds/bin/gnu/h-i686-mingw32/bin/../lib/gcc/nios2-elf/4.1.2\libgcc.a(_lt_df.o)
 .debug_frame   0x000017c4       0x30 c:/altera/13.0sp1/nios2eds/bin/gnu/h-i686-mingw32/bin/../lib/gcc/nios2-elf/4.1.2\libgcc.a(_si_to_df.o)
 .debug_frame   0x000017f4       0x70 c:/altera/13.0sp1/nios2eds/bin/gnu/h-i686-mingw32/bin/../lib/gcc/nios2-elf/4.1.2\libgcc.a(lib2-divmod.o)
 .debug_frame   0x00001864       0x48 ../rtc_socket_bsp/\libucosii_bsp.a(alt_exit.o)
 .debug_frame   0x000018ac       0x48 ../rtc_socket_bsp/\libucosii_bsp.a(alt_flash_dev.o)
 .debug_frame   0x000018f4       0x48 ../rtc_socket_bsp/\libucosii_bsp.a(alt_fstat.o)
 .debug_frame   0x0000193c       0x34 ../rtc_socket_bsp/\libucosii_bsp.a(alt_gettod.o)
 .debug_frame   0x00001970       0x2c ../rtc_socket_bsp/\libucosii_bsp.a(alt_irq_register.o)
 .debug_frame   0x0000199c       0x48 ../rtc_socket_bsp/\libucosii_bsp.a(alt_isatty.o)
 .debug_frame   0x000019e4       0x48 ../rtc_socket_bsp/\libucosii_bsp.a(alt_lseek.o)
 .debug_frame   0x00001a2c       0x2c ../rtc_socket_bsp/\libucosii_bsp.a(alt_main.o)
 .debug_frame   0x00001a58       0x2c ../rtc_socket_bsp/\libucosii_bsp.a(alt_sbrk.o)
 .debug_frame   0x00001a84       0x48 ../rtc_socket_bsp/\libucosii_bsp.a(alt_tick.o)
 .debug_frame   0x00001acc       0x30 ../rtc_socket_bsp/\libucosii_bsp.a(alt_usleep.o)
 .debug_frame   0x00001afc       0x4c ../rtc_socket_bsp/\libucosii_bsp.a(alt_env_lock.o)
 .debug_frame   0x00001b48       0x4c ../rtc_socket_bsp/\libucosii_bsp.a(alt_malloc_lock.o)
 .debug_frame   0x00001b94      0x3e4 ../rtc_socket_bsp/\libucosii_bsp.a(os_core.o)
 .debug_frame   0x00001f78       0x2c ../rtc_socket_bsp/\libucosii_bsp.a(os_dbg.o)
 .debug_frame   0x00001fa4      0x180 ../rtc_socket_bsp/\libucosii_bsp.a(os_flag.o)
 .debug_frame   0x00002124       0xd4 ../rtc_socket_bsp/\libucosii_bsp.a(os_mem.o)
 .debug_frame   0x000021f8      0x144 ../rtc_socket_bsp/\libucosii_bsp.a(os_q.o)
 .debug_frame   0x0000233c       0xf0 ../rtc_socket_bsp/\libucosii_bsp.a(os_sem.o)
 .debug_frame   0x0000242c      0x160 ../rtc_socket_bsp/\libucosii_bsp.a(os_task.o)
 .debug_frame   0x0000258c       0xa0 ../rtc_socket_bsp/\libucosii_bsp.a(os_time.o)
 .debug_frame   0x0000262c       0x64 ../rtc_socket_bsp/\libucosii_bsp.a(alt_sys_init.o)
 .debug_frame   0x00002690       0xd4 ../rtc_socket_bsp/\libucosii_bsp.a(altera_avalon_cfi_flash.o)
 .debug_frame   0x00002764      0x210 ../rtc_socket_bsp/\libucosii_bsp.a(altera_avalon_cfi_flash_table.o)
 .debug_frame   0x00002974      0x128 ../rtc_socket_bsp/\libucosii_bsp.a(altera_avalon_epcs_flash_controller.o)
 .debug_frame   0x00002a9c       0x80 ../rtc_socket_bsp/\libucosii_bsp.a(altera_avalon_jtag_uart_fd.o)
 .debug_frame   0x00002b1c       0x80 ../rtc_socket_bsp/\libucosii_bsp.a(altera_avalon_jtag_uart_init.o)
 .debug_frame   0x00002b9c       0x2c ../rtc_socket_bsp/\libucosii_bsp.a(altera_avalon_jtag_uart_ioctl.o)
 .debug_frame   0x00002bc8       0x2c ../rtc_socket_bsp/\libucosii_bsp.a(altera_avalon_jtag_uart_read.o)
 .debug_frame   0x00002bf4       0x2c ../rtc_socket_bsp/\libucosii_bsp.a(altera_avalon_jtag_uart_write.o)
 .debug_frame   0x00002c20      0x114 ../rtc_socket_bsp/\libucosii_bsp.a(altera_avalon_lcd_16207.o)
 .debug_frame   0x00002d34       0x2c ../rtc_socket_bsp/\libucosii_bsp.a(altera_avalon_lcd_16207_fd.o)
 .debug_frame   0x00002d60       0x48 ../rtc_socket_bsp/\libucosii_bsp.a(altera_avalon_timer_sc.o)
 .debug_frame   0x00002da8       0x64 ../rtc_socket_bsp/\libucosii_bsp.a(altera_avalon_uart_fd.o)
 .debug_frame   0x00002e0c       0x9c ../rtc_socket_bsp/\libucosii_bsp.a(altera_avalon_uart_init.o)
 .debug_frame   0x00002ea8       0x48 ../rtc_socket_bsp/\libucosii_bsp.a(altera_avalon_uart_read.o)
 .debug_frame   0x00002ef0       0x48 ../rtc_socket_bsp/\libucosii_bsp.a(altera_avalon_uart_write.o)
 .debug_frame   0x00002f38      0x160 ../rtc_socket_bsp/\libucosii_bsp.a(epcs_commands.o)
 .debug_frame   0x00003098       0x2c ../rtc_socket_bsp/\libucosii_bsp.a(alt_iniche_close.o)
 .debug_frame   0x000030c4       0x2c ../rtc_socket_bsp/\libucosii_bsp.a(alt_iniche_dev.o)
 .debug_frame   0x000030f0       0x2c ../rtc_socket_bsp/\libucosii_bsp.a(alt_iniche_read.o)
 .debug_frame   0x0000311c       0x2c ../rtc_socket_bsp/\libucosii_bsp.a(alt_iniche_write.o)
 .debug_frame   0x00003148       0xb8 ../rtc_socket_bsp/\libucosii_bsp.a(ipnet.o)
 .debug_frame   0x00003200       0x80 ../rtc_socket_bsp/\libucosii_bsp.a(ipstart.o)
 .debug_frame   0x00003280       0xf8 ../rtc_socket_bsp/\libucosii_bsp.a(igmp_cmn.o)
 .debug_frame   0x00003378      0x12c ../rtc_socket_bsp/\libucosii_bsp.a(bsdsock.o)
 .debug_frame   0x000034a4       0x48 ../rtc_socket_bsp/\libucosii_bsp.a(cksum.o)
 .debug_frame   0x000034ec      0x164 ../rtc_socket_bsp/\libucosii_bsp.a(in_utils.o)
 .debug_frame   0x00003650       0x64 ../rtc_socket_bsp/\libucosii_bsp.a(netmain.o)
 .debug_frame   0x000036b4      0x10c ../rtc_socket_bsp/\libucosii_bsp.a(parseip.o)
 .debug_frame   0x000037c0       0xd4 ../rtc_socket_bsp/\libucosii_bsp.a(tk_crnos.o)
 .debug_frame   0x00003894      0x250 ../rtc_socket_bsp/\libucosii_bsp.a(dhcpclnt.o)
 .debug_frame   0x00003ae4       0x2c ../rtc_socket_bsp/\libucosii_bsp.a(dhcputil.o)
 .debug_frame   0x00003b10       0xb8 ../rtc_socket_bsp/\libucosii_bsp.a(pktalloc.o)
 .debug_frame   0x00003bc8       0x64 ../rtc_socket_bsp/\libucosii_bsp.a(q.o)
 .debug_frame   0x00003c2c       0x48 ../rtc_socket_bsp/\libucosii_bsp.a(udp_open.o)
 .debug_frame   0x00003c74       0xf0 ../rtc_socket_bsp/\libucosii_bsp.a(brdutils.o)
 .debug_frame   0x00003d64       0x9c ../rtc_socket_bsp/\libucosii_bsp.a(osportco.o)
 .debug_frame   0x00003e00      0x110 ../rtc_socket_bsp/\libucosii_bsp.a(targnios.o)
 .debug_frame   0x00003f10      0x208 ../rtc_socket_bsp/\libucosii_bsp.a(nptcp.o)
 .debug_frame   0x00004118       0x68 ../rtc_socket_bsp/\libucosii_bsp.a(rawsock.o)
 .debug_frame   0x00004180      0x224 ../rtc_socket_bsp/\libucosii_bsp.a(sockcall.o)
 .debug_frame   0x000043a4      0x1d4 ../rtc_socket_bsp/\libucosii_bsp.a(socket.o)
 .debug_frame   0x00004578      0x294 ../rtc_socket_bsp/\libucosii_bsp.a(socket2.o)
 .debug_frame   0x0000480c      0x110 ../rtc_socket_bsp/\libucosii_bsp.a(soselect.o)
 .debug_frame   0x0000491c       0xd8 ../rtc_socket_bsp/\libucosii_bsp.a(tcp_in.o)
 .debug_frame   0x000049f4       0x68 ../rtc_socket_bsp/\libucosii_bsp.a(tcp_out.o)
 .debug_frame   0x00004a5c      0x10c ../rtc_socket_bsp/\libucosii_bsp.a(tcp_subr.o)
 .debug_frame   0x00004b68       0x64 ../rtc_socket_bsp/\libucosii_bsp.a(tcp_timr.o)
 .debug_frame   0x00004bcc       0x80 ../rtc_socket_bsp/\libucosii_bsp.a(tcp_usr.o)
 .debug_frame   0x00004c4c       0x2c ../rtc_socket_bsp/\libucosii_bsp.a(tcpport.o)
 .debug_frame   0x00004c78       0xbc ../rtc_socket_bsp/\libucosii_bsp.a(udpsock.o)
 .debug_frame   0x00004d34       0x2c ../rtc_socket_bsp/\libucosii_bsp.a(alt_alarm_start.o)
 .debug_frame   0x00004d60       0x2c ../rtc_socket_bsp/\libucosii_bsp.a(alt_busy_sleep.o)
 .debug_frame   0x00004d8c       0x48 ../rtc_socket_bsp/\libucosii_bsp.a(alt_close.o)
 .debug_frame   0x00004dd4       0x2c ../rtc_socket_bsp/\libucosii_bsp.a(alt_dcache_flush.o)
 .debug_frame   0x00004e00       0x2c ../rtc_socket_bsp/\libucosii_bsp.a(alt_dev.o)
 .debug_frame   0x00004e2c       0x48 ../rtc_socket_bsp/\libucosii_bsp.a(alt_dev_llist_insert.o)
 .debug_frame   0x00004e74       0x2c ../rtc_socket_bsp/\libucosii_bsp.a(alt_do_ctors.o)
 .debug_frame   0x00004ea0       0x2c ../rtc_socket_bsp/\libucosii_bsp.a(alt_do_dtors.o)
 .debug_frame   0x00004ecc       0x2c ../rtc_socket_bsp/\libucosii_bsp.a(alt_find_dev.o)
 .debug_frame   0x00004ef8       0x80 ../rtc_socket_bsp/\libucosii_bsp.a(alt_iic.o)
 .debug_frame   0x00004f78       0x2c ../rtc_socket_bsp/\libucosii_bsp.a(alt_iic_isr_register.o)
 .debug_frame   0x00004fa4       0x48 ../rtc_socket_bsp/\libucosii_bsp.a(alt_io_redirect.o)
 .debug_frame   0x00004fec       0x2c ../rtc_socket_bsp/\libucosii_bsp.a(alt_irq_handler.o)
 .debug_frame   0x00005018       0x64 ../rtc_socket_bsp/\libucosii_bsp.a(alt_open.o)
 .debug_frame   0x0000507c       0x48 ../rtc_socket_bsp/\libucosii_bsp.a(alt_read.o)
 .debug_frame   0x000050c4       0x2c ../rtc_socket_bsp/\libucosii_bsp.a(alt_release_fd.o)
 .debug_frame   0x000050f0       0x2c ../rtc_socket_bsp/\libucosii_bsp.a(alt_remap_cached.o)
 .debug_frame   0x0000511c       0x2c ../rtc_socket_bsp/\libucosii_bsp.a(alt_remap_uncached.o)
 .debug_frame   0x00005148       0x48 ../rtc_socket_bsp/\libucosii_bsp.a(alt_write.o)
 .debug_frame   0x00005190       0x2c ../rtc_socket_bsp/\libucosii_bsp.a(altera_nios2_qsys_irq.o)
 .debug_frame   0x000051bc      0x128 ../rtc_socket_bsp/\libucosii_bsp.a(os_cpu_c.o)
 .debug_frame   0x000052e4       0x80 ../rtc_socket_bsp/\libucosii_bsp.a(altera_avalon_cfi_flash_amd.o)
 .debug_frame   0x00005364       0x80 ../rtc_socket_bsp/\libucosii_bsp.a(altera_avalon_cfi_flash_intel.o)
 .debug_frame   0x000053e4       0x2c ../rtc_socket_bsp/\libucosii_bsp.a(altera_avalon_spi.o)
 .debug_frame   0x00005410       0xe0 ../rtc_socket_bsp/\libucosii_bsp.a(allports.o)
 .debug_frame   0x000054f0       0x88 ../rtc_socket_bsp/\libucosii_bsp.a(timeouts.o)
 .debug_frame   0x00005578       0x48 ../rtc_socket_bsp/\libucosii_bsp.a(tk_misc.o)
 .debug_frame   0x000055c0       0x2c ../rtc_socket_bsp/\libucosii_bsp.a(alt_iniche_fcntl.o)
 .debug_frame   0x000055ec      0x160 ../rtc_socket_bsp/\libucosii_bsp.a(et_arp.o)
 .debug_frame   0x0000574c       0x80 ../rtc_socket_bsp/\libucosii_bsp.a(iface.o)
 .debug_frame   0x000057cc      0x160 ../rtc_socket_bsp/\libucosii_bsp.a(ip.o)
 .debug_frame   0x0000592c      0x1d4 ../rtc_socket_bsp/\libucosii_bsp.a(ip_reasm.o)
 .debug_frame   0x00005b00       0x68 ../rtc_socket_bsp/\libucosii_bsp.a(ipdemux.o)
 .debug_frame   0x00005b68       0x64 ../rtc_socket_bsp/\libucosii_bsp.a(ipmc.o)
 .debug_frame   0x00005bcc       0x64 ../rtc_socket_bsp/\libucosii_bsp.a(ipport.o)
 .debug_frame   0x00005c30       0xb8 ../rtc_socket_bsp/\libucosii_bsp.a(ipraw.o)
 .debug_frame   0x00005ce8       0x64 ../rtc_socket_bsp/\libucosii_bsp.a(iproute.o)
 .debug_frame   0x00005d4c       0xd4 ../rtc_socket_bsp/\libucosii_bsp.a(udp.o)
 .debug_frame   0x00005e20       0x2c ../rtc_socket_bsp/\libucosii_bsp.a(igmp.o)
 .debug_frame   0x00005e4c       0x9c ../rtc_socket_bsp/\libucosii_bsp.a(igmp2.o)
 .debug_frame   0x00005ee8       0x84 ../rtc_socket_bsp/\libucosii_bsp.a(ipopt.o)
 .debug_frame   0x00005f6c       0x4c ../rtc_socket_bsp/\libucosii_bsp.a(u_mctest.o)
 .debug_frame   0x00005fb8       0x48 ../rtc_socket_bsp/\libucosii_bsp.a(dhcsetup.o)
 .debug_frame   0x00006000      0x10c ../rtc_socket_bsp/\libucosii_bsp.a(memdev.o)
 .debug_frame   0x0000610c       0x2c ../rtc_socket_bsp/\libucosii_bsp.a(tcpcksum.o)
 .debug_frame   0x00006138       0xf0 ../rtc_socket_bsp/\libucosii_bsp.a(in_pcb.o)
 .debug_frame   0x00006228      0x320 ../rtc_socket_bsp/\libucosii_bsp.a(vfsfiles.o)
 .debug_frame   0x00006548       0x2c ../rtc_socket_bsp/\libucosii_bsp.a(vfsport.o)
 .debug_frame   0x00006574       0x48 ../rtc_socket_bsp/\libucosii_bsp.a(alt_fcntl.o)
 .debug_frame   0x000065bc       0x2c ../rtc_socket_bsp/\libucosii_bsp.a(alt_find_file.o)
 .debug_frame   0x000065e8       0x2c ../rtc_socket_bsp/\libucosii_bsp.a(alt_get_fd.o)
 .debug_frame   0x00006614       0x84 ../rtc_socket_bsp/\libucosii_bsp.a(icmp.o)
 .debug_frame   0x00006698       0x20 c:/altera/13.0sp1/nios2eds/bin/gnu/h-i686-mingw32/bin/../lib/gcc/nios2-elf/4.1.2/../../../../nios2-elf/lib\libc.a(lib_a-atexit.o)
 .debug_frame   0x000066b8       0x20 c:/altera/13.0sp1/nios2eds/bin/gnu/h-i686-mingw32/bin/../lib/gcc/nios2-elf/4.1.2/../../../../nios2-elf/lib\libc.a(lib_a-calloc.o)
 .debug_frame   0x000066d8       0x30 c:/altera/13.0sp1/nios2eds/bin/gnu/h-i686-mingw32/bin/../lib/gcc/nios2-elf/4.1.2/../../../../nios2-elf/lib\libc.a(lib_a-malloc.o)
 .debug_frame   0x00006708       0x20 c:/altera/13.0sp1/nios2eds/bin/gnu/h-i686-mingw32/bin/../lib/gcc/nios2-elf/4.1.2/../../../../nios2-elf/lib\libc.a(lib_a-memcmp.o)
 .debug_frame   0x00006728       0x20 c:/altera/13.0sp1/nios2eds/bin/gnu/h-i686-mingw32/bin/../lib/gcc/nios2-elf/4.1.2/../../../../nios2-elf/lib\libc.a(lib_a-strcpy.o)
 .debug_frame   0x00006748       0x20 c:/altera/13.0sp1/nios2eds/bin/gnu/h-i686-mingw32/bin/../lib/gcc/nios2-elf/4.1.2/../../../../nios2-elf/lib\libc.a(lib_a-strncmp.o)
 .debug_frame   0x00006768       0x20 c:/altera/13.0sp1/nios2eds/bin/gnu/h-i686-mingw32/bin/../lib/gcc/nios2-elf/4.1.2/../../../../nios2-elf/lib\libc.a(lib_a-strncpy.o)
 .debug_frame   0x00006788       0x30 c:/altera/13.0sp1/nios2eds/bin/gnu/h-i686-mingw32/bin/../lib/gcc/nios2-elf/4.1.2/../../../../nios2-elf/lib\libc.a(lib_a-vprintf.o)
 .debug_frame   0x000067b8       0x38 c:/altera/13.0sp1/nios2eds/bin/gnu/h-i686-mingw32/bin/../lib/gcc/nios2-elf/4.1.2/../../../../nios2-elf/lib\libc.a(lib_a-vsprintf.o)
 .debug_frame   0x000067f0       0x34 c:/altera/13.0sp1/nios2eds/bin/gnu/h-i686-mingw32/bin/../lib/gcc/nios2-elf/4.1.2/../../../../nios2-elf/lib\libc.a(lib_a-__atexit.o)

.debug_str      0x00000000     0x3878
 *(.debug_str)
 .debug_str     0x00000000       0x12 obj/default/LCD.o
 .debug_str     0x00000012       0x3f obj/default/SSS_DE2_115.o
 .debug_str     0x00000051       0x4e obj/default/alt_error_handler.o
 .debug_str     0x0000009f       0x33 obj/default/dm9000a.o
 .debug_str     0x000000d2       0x1d obj/default/iniche_init.o
 .debug_str     0x000000ef       0x2b obj/default/led.o
 .debug_str     0x0000011a       0x52 obj/default/network_utilities.o
 .debug_str     0x0000016c       0x2c obj/default/simple_socket_server.o
 .debug_str     0x00000198      0x125 c:/altera/13.0sp1/nios2eds/bin/gnu/h-i686-mingw32/bin/../lib/gcc/nios2-elf/4.1.2\libgcc.a(_fixunsdfsi.o)
                                0x16b (size before relaxing)
 .debug_str     0x000002bd      0x138 c:/altera/13.0sp1/nios2eds/bin/gnu/h-i686-mingw32/bin/../lib/gcc/nios2-elf/4.1.2\libgcc.a(_addsub_df.o)
                                0x26f (size before relaxing)
 .debug_str     0x000003f5       0x45 c:/altera/13.0sp1/nios2eds/bin/gnu/h-i686-mingw32/bin/../lib/gcc/nios2-elf/4.1.2\libgcc.a(_mul_df.o)
                                0x241 (size before relaxing)
 .debug_str     0x0000043a        0x8 c:/altera/13.0sp1/nios2eds/bin/gnu/h-i686-mingw32/bin/../lib/gcc/nios2-elf/4.1.2\libgcc.a(_ge_df.o)
                                0x1fe (size before relaxing)
 .debug_str     0x00000442        0xa c:/altera/13.0sp1/nios2eds/bin/gnu/h-i686-mingw32/bin/../lib/gcc/nios2-elf/4.1.2\libgcc.a(_df_to_si.o)
                                0x207 (size before relaxing)
 .debug_str     0x00000000      0x1a3 c:/altera/13.0sp1/nios2eds/bin/gnu/h-i686-mingw32/bin/../lib/gcc/nios2-elf/4.1.2\libgcc.a(_thenan_df.o)
 .debug_str     0x0000044c       0x1b c:/altera/13.0sp1/nios2eds/bin/gnu/h-i686-mingw32/bin/../lib/gcc/nios2-elf/4.1.2\libgcc.a(_usi_to_df.o)
                                0x1da (size before relaxing)
 .debug_str     0x00000467       0x42 c:/altera/13.0sp1/nios2eds/bin/gnu/h-i686-mingw32/bin/../lib/gcc/nios2-elf/4.1.2\libgcc.a(_muldi3.o)
                                0x1ac (size before relaxing)
 .debug_str     0x000004a9       0x20 c:/altera/13.0sp1/nios2eds/bin/gnu/h-i686-mingw32/bin/../lib/gcc/nios2-elf/4.1.2\libgcc.a(_clzsi2.o)
                                0x17e (size before relaxing)
 .debug_str     0x000004c9       0x10 c:/altera/13.0sp1/nios2eds/bin/gnu/h-i686-mingw32/bin/../lib/gcc/nios2-elf/4.1.2\libgcc.a(_pack_df.o)
                                0x206 (size before relaxing)
 .debug_str     0x000004d9        0xb c:/altera/13.0sp1/nios2eds/bin/gnu/h-i686-mingw32/bin/../lib/gcc/nios2-elf/4.1.2\libgcc.a(_unpack_df.o)
                                0x1e8 (size before relaxing)
 .debug_str     0x000004e4       0x10 c:/altera/13.0sp1/nios2eds/bin/gnu/h-i686-mingw32/bin/../lib/gcc/nios2-elf/4.1.2\libgcc.a(_fpcmp_parts_df.o)
                                0x1c6 (size before relaxing)
 .debug_str     0x00000000      0x161 c:/altera/13.0sp1/nios2eds/bin/gnu/h-i686-mingw32/bin/../lib/gcc/nios2-elf/4.1.2\libgcc.a(_clz.o)
 .debug_str     0x000004f4      0x42c c:/altera/13.0sp1/nios2eds/bin/gnu/h-i686-mingw32/bin/../lib/gcc/nios2-elf/4.1.2/../../../../nios2-elf/lib\libc.a(lib_a-atoi.o)
                                0x4fc (size before relaxing)
 .debug_str     0x00000920       0xe2 c:/altera/13.0sp1/nios2eds/bin/gnu/h-i686-mingw32/bin/../lib/gcc/nios2-elf/4.1.2/../../../../nios2-elf/lib\libc.a(lib_a-ctype_.o)
                                0x105 (size before relaxing)
 .debug_str     0x00000a02       0xcc c:/altera/13.0sp1/nios2eds/bin/gnu/h-i686-mingw32/bin/../lib/gcc/nios2-elf/4.1.2/../../../../nios2-elf/lib\libc.a(lib_a-errno.o)
                                0x502 (size before relaxing)
 .debug_str     0x00000ace       0x51 c:/altera/13.0sp1/nios2eds/bin/gnu/h-i686-mingw32/bin/../lib/gcc/nios2-elf/4.1.2/../../../../nios2-elf/lib\libc.a(lib_a-exit.o)
                                0x50c (size before relaxing)
 .debug_str     0x00000b1f       0xe8 c:/altera/13.0sp1/nios2eds/bin/gnu/h-i686-mingw32/bin/../lib/gcc/nios2-elf/4.1.2/../../../../nios2-elf/lib\libc.a(lib_a-fprintf.o)
                                0x51f (size before relaxing)
 .debug_str     0x00000c07       0x87 c:/altera/13.0sp1/nios2eds/bin/gnu/h-i686-mingw32/bin/../lib/gcc/nios2-elf/4.1.2/../../../../nios2-elf/lib\libc.a(lib_a-fwrite.o)
                                0x55f (size before relaxing)
 .debug_str     0x00000c8e       0x45 c:/altera/13.0sp1/nios2eds/bin/gnu/h-i686-mingw32/bin/../lib/gcc/nios2-elf/4.1.2/../../../../nios2-elf/lib\libc.a(lib_a-getc.o)
                                0x512 (size before relaxing)
 .debug_str     0x00000cd3       0xd1 c:/altera/13.0sp1/nios2eds/bin/gnu/h-i686-mingw32/bin/../lib/gcc/nios2-elf/4.1.2/../../../../nios2-elf/lib\libc.a(lib_a-impure.o)
                                0x51a (size before relaxing)
 .debug_str     0x00000da4       0xf5 c:/altera/13.0sp1/nios2eds/bin/gnu/h-i686-mingw32/bin/../lib/gcc/nios2-elf/4.1.2/../../../../nios2-elf/lib\libc.a(lib_a-memcpy.o)
                                0x128 (size before relaxing)
 .debug_str     0x00000e99       0x5d c:/altera/13.0sp1/nios2eds/bin/gnu/h-i686-mingw32/bin/../lib/gcc/nios2-elf/4.1.2/../../../../nios2-elf/lib\libc.a(lib_a-memmove.o)
                                0x19d (size before relaxing)
 .debug_str     0x00000ef6       0x56 c:/altera/13.0sp1/nios2eds/bin/gnu/h-i686-mingw32/bin/../lib/gcc/nios2-elf/4.1.2/../../../../nios2-elf/lib\libc.a(lib_a-memset.o)
                                0x17e (size before relaxing)
 .debug_str     0x00000f4c       0x4b c:/altera/13.0sp1/nios2eds/bin/gnu/h-i686-mingw32/bin/../lib/gcc/nios2-elf/4.1.2/../../../../nios2-elf/lib\libc.a(lib_a-perror.o)
                                0x512 (size before relaxing)
 .debug_str     0x00000f97       0x44 c:/altera/13.0sp1/nios2eds/bin/gnu/h-i686-mingw32/bin/../lib/gcc/nios2-elf/4.1.2/../../../../nios2-elf/lib\libc.a(lib_a-printf.o)
                                0x523 (size before relaxing)
 .debug_str     0x00000fdb       0x40 c:/altera/13.0sp1/nios2eds/bin/gnu/h-i686-mingw32/bin/../lib/gcc/nios2-elf/4.1.2/../../../../nios2-elf/lib\libc.a(lib_a-putc.o)
                                0x512 (size before relaxing)
 .debug_str     0x0000101b       0x4e c:/altera/13.0sp1/nios2eds/bin/gnu/h-i686-mingw32/bin/../lib/gcc/nios2-elf/4.1.2/../../../../nios2-elf/lib\libc.a(lib_a-putchar.o)
                                0x50f (size before relaxing)
 .debug_str     0x00001069       0x40 c:/altera/13.0sp1/nios2eds/bin/gnu/h-i686-mingw32/bin/../lib/gcc/nios2-elf/4.1.2/../../../../nios2-elf/lib\libc.a(lib_a-puts.o)
                                0x549 (size before relaxing)
 .debug_str     0x000010a9       0x3f c:/altera/13.0sp1/nios2eds/bin/gnu/h-i686-mingw32/bin/../lib/gcc/nios2-elf/4.1.2/../../../../nios2-elf/lib\libc.a(lib_a-rand.o)
                                0x50b (size before relaxing)
 .debug_str     0x000010e8       0x4a c:/altera/13.0sp1/nios2eds/bin/gnu/h-i686-mingw32/bin/../lib/gcc/nios2-elf/4.1.2/../../../../nios2-elf/lib\libc.a(lib_a-rget.o)
                                0x510 (size before relaxing)
 .debug_str     0x00001132       0x46 c:/altera/13.0sp1/nios2eds/bin/gnu/h-i686-mingw32/bin/../lib/gcc/nios2-elf/4.1.2/../../../../nios2-elf/lib\libc.a(lib_a-sprintf.o)
                                0x52b (size before relaxing)
 .debug_str     0x00001178       0x47 c:/altera/13.0sp1/nios2eds/bin/gnu/h-i686-mingw32/bin/../lib/gcc/nios2-elf/4.1.2/../../../../nios2-elf/lib\libc.a(lib_a-strchr.o)
                                0x175 (size before relaxing)
 .debug_str     0x000011bf       0x42 c:/altera/13.0sp1/nios2eds/bin/gnu/h-i686-mingw32/bin/../lib/gcc/nios2-elf/4.1.2/../../../../nios2-elf/lib\libc.a(lib_a-strcmp.o)
                                0x163 (size before relaxing)
 .debug_str     0x00001201       0x44 c:/altera/13.0sp1/nios2eds/bin/gnu/h-i686-mingw32/bin/../lib/gcc/nios2-elf/4.1.2/../../../../nios2-elf/lib\libc.a(lib_a-strerror.o)
                                0x174 (size before relaxing)
 .debug_str     0x00001245       0x42 c:/altera/13.0sp1/nios2eds/bin/gnu/h-i686-mingw32/bin/../lib/gcc/nios2-elf/4.1.2/../../../../nios2-elf/lib\libc.a(lib_a-strlen.o)
                                0x17d (size before relaxing)
 .debug_str     0x00001287       0x66 c:/altera/13.0sp1/nios2eds/bin/gnu/h-i686-mingw32/bin/../lib/gcc/nios2-elf/4.1.2/../../../../nios2-elf/lib\libc.a(lib_a-strtol.o)
                                0x53e (size before relaxing)
 .debug_str     0x000012ed       0xe3 c:/altera/13.0sp1/nios2eds/bin/gnu/h-i686-mingw32/bin/../lib/gcc/nios2-elf/4.1.2/../../../../nios2-elf/lib\libc.a(lib_a-time.o)
                                0x526 (size before relaxing)
 .debug_str     0x000013d0       0x4c c:/altera/13.0sp1/nios2eds/bin/gnu/h-i686-mingw32/bin/../lib/gcc/nios2-elf/4.1.2/../../../../nios2-elf/lib\libc.a(lib_a-u_strerr.o)
                                 0xf0 (size before relaxing)
 .debug_str     0x0000141c      0x173 c:/altera/13.0sp1/nios2eds/bin/gnu/h-i686-mingw32/bin/../lib/gcc/nios2-elf/4.1.2/../../../../nios2-elf/lib\libc.a(lib_a-vfprintf.o)
                                0x6f8 (size before relaxing)
 .debug_str     0x0000158f       0x4a c:/altera/13.0sp1/nios2eds/bin/gnu/h-i686-mingw32/bin/../lib/gcc/nios2-elf/4.1.2/../../../../nios2-elf/lib\libc.a(lib_a-wbuf.o)
                                0x510 (size before relaxing)
 .debug_str     0x000015d9       0x46 c:/altera/13.0sp1/nios2eds/bin/gnu/h-i686-mingw32/bin/../lib/gcc/nios2-elf/4.1.2/../../../../nios2-elf/lib\libc.a(lib_a-wsetup.o)
                                0x50c (size before relaxing)
 .debug_str     0x0000161f       0x7b c:/altera/13.0sp1/nios2eds/bin/gnu/h-i686-mingw32/bin/../lib/gcc/nios2-elf/4.1.2/../../../../nios2-elf/lib\libc.a(lib_a-__call_atexit.o)
                                0x54e (size before relaxing)
 .debug_str     0x0000169a      0x102 c:/altera/13.0sp1/nios2eds/bin/gnu/h-i686-mingw32/bin/../lib/gcc/nios2-elf/4.1.2/../../../../nios2-elf/lib\libc.a(lib_a-dtoa.o)
                                0x601 (size before relaxing)
 .debug_str     0x0000179c       0x52 c:/altera/13.0sp1/nios2eds/bin/gnu/h-i686-mingw32/bin/../lib/gcc/nios2-elf/4.1.2/../../../../nios2-elf/lib\libc.a(lib_a-fflush.o)
                                0x532 (size before relaxing)
 .debug_str     0x000017ee      0x102 c:/altera/13.0sp1/nios2eds/bin/gnu/h-i686-mingw32/bin/../lib/gcc/nios2-elf/4.1.2/../../../../nios2-elf/lib\libc.a(lib_a-findfp.o)
                                0x5f4 (size before relaxing)
 .debug_str     0x000018f0       0x48 c:/altera/13.0sp1/nios2eds/bin/gnu/h-i686-mingw32/bin/../lib/gcc/nios2-elf/4.1.2/../../../../nios2-elf/lib\libc.a(lib_a-fputc.o)
                                0x51a (size before relaxing)
 .debug_str     0x00001938       0x48 c:/altera/13.0sp1/nios2eds/bin/gnu/h-i686-mingw32/bin/../lib/gcc/nios2-elf/4.1.2/../../../../nios2-elf/lib\libc.a(lib_a-fputs.o)
                                0x558 (size before relaxing)
 .debug_str     0x00001980      0x15b c:/altera/13.0sp1/nios2eds/bin/gnu/h-i686-mingw32/bin/../lib/gcc/nios2-elf/4.1.2/../../../../nios2-elf/lib\libc.a(lib_a-freer.o)
                                0x643 (size before relaxing)
 .debug_str     0x00001adb       0x66 c:/altera/13.0sp1/nios2eds/bin/gnu/h-i686-mingw32/bin/../lib/gcc/nios2-elf/4.1.2/../../../../nios2-elf/lib\libc.a(lib_a-fvwrite.o)
                                0x563 (size before relaxing)
 .debug_str     0x00001b41       0x5e c:/altera/13.0sp1/nios2eds/bin/gnu/h-i686-mingw32/bin/../lib/gcc/nios2-elf/4.1.2/../../../../nios2-elf/lib\libc.a(lib_a-fwalk.o)
                                0x535 (size before relaxing)
 .debug_str     0x00001b9f       0x64 c:/altera/13.0sp1/nios2eds/bin/gnu/h-i686-mingw32/bin/../lib/gcc/nios2-elf/4.1.2/../../../../nios2-elf/lib\libc.a(lib_a-gettimeofdayr.o)
                                0x549 (size before relaxing)
 .debug_str     0x00001c03       0x3d c:/altera/13.0sp1/nios2eds/bin/gnu/h-i686-mingw32/bin/../lib/gcc/nios2-elf/4.1.2/../../../../nios2-elf/lib\libc.a(lib_a-int_errno.o)
                                0x163 (size before relaxing)
 .debug_str     0x00001c40      0x225 c:/altera/13.0sp1/nios2eds/bin/gnu/h-i686-mingw32/bin/../lib/gcc/nios2-elf/4.1.2/../../../../nios2-elf/lib\libc.a(lib_a-locale.o)
                                0x6a9 (size before relaxing)
 .debug_str     0x00001e65      0x11c c:/altera/13.0sp1/nios2eds/bin/gnu/h-i686-mingw32/bin/../lib/gcc/nios2-elf/4.1.2/../../../../nios2-elf/lib\libc.a(lib_a-makebuf.o)
                                0x606 (size before relaxing)
 .debug_str     0x00001f81       0xe9 c:/altera/13.0sp1/nios2eds/bin/gnu/h-i686-mingw32/bin/../lib/gcc/nios2-elf/4.1.2/../../../../nios2-elf/lib\libc.a(lib_a-mallocr.o)
                                0x6f1 (size before relaxing)
 .debug_str     0x0000206a       0x47 c:/altera/13.0sp1/nios2eds/bin/gnu/h-i686-mingw32/bin/../lib/gcc/nios2-elf/4.1.2/../../../../nios2-elf/lib\libc.a(lib_a-memchr.o)
                                0x18b (size before relaxing)
 .debug_str     0x000020b1       0xf8 c:/altera/13.0sp1/nios2eds/bin/gnu/h-i686-mingw32/bin/../lib/gcc/nios2-elf/4.1.2/../../../../nios2-elf/lib\libc.a(lib_a-mprec.o)
                                0x60e (size before relaxing)
 .debug_str     0x000021a9       0x59 c:/altera/13.0sp1/nios2eds/bin/gnu/h-i686-mingw32/bin/../lib/gcc/nios2-elf/4.1.2/../../../../nios2-elf/lib\libc.a(lib_a-reallocr.o)
                                0x5c3 (size before relaxing)
 .debug_str     0x00002202       0x4d c:/altera/13.0sp1/nios2eds/bin/gnu/h-i686-mingw32/bin/../lib/gcc/nios2-elf/4.1.2/../../../../nios2-elf/lib\libc.a(lib_a-refill.o)
                                0x51a (size before relaxing)
 .debug_str     0x0000224f       0xdc c:/altera/13.0sp1/nios2eds/bin/gnu/h-i686-mingw32/bin/../lib/gcc/nios2-elf/4.1.2/../../../../nios2-elf/lib\libc.a(lib_a-s_isinfd.o)
                                0x18a (size before relaxing)
 .debug_str     0x0000232b       0x46 c:/altera/13.0sp1/nios2eds/bin/gnu/h-i686-mingw32/bin/../lib/gcc/nios2-elf/4.1.2/../../../../nios2-elf/lib\libc.a(lib_a-s_isnand.o)
                                0x18a (size before relaxing)
 .debug_str     0x00002371       0x50 c:/altera/13.0sp1/nios2eds/bin/gnu/h-i686-mingw32/bin/../lib/gcc/nios2-elf/4.1.2/../../../../nios2-elf/lib\libc.a(lib_a-sbrkr.o)
                                0x50b (size before relaxing)
 .debug_str     0x000023c1       0x62 c:/altera/13.0sp1/nios2eds/bin/gnu/h-i686-mingw32/bin/../lib/gcc/nios2-elf/4.1.2/../../../../nios2-elf/lib\libc.a(lib_a-stdio.o)
                                0x531 (size before relaxing)
 .debug_str     0x00002423       0x4c c:/altera/13.0sp1/nios2eds/bin/gnu/h-i686-mingw32/bin/../lib/gcc/nios2-elf/4.1.2/../../../../nios2-elf/lib\libc.a(lib_a-writer.o)
                                0x50e (size before relaxing)
 .debug_str     0x0000246f       0x19 c:/altera/13.0sp1/nios2eds/bin/gnu/h-i686-mingw32/bin/../lib/gcc/nios2-elf/4.1.2/../../../../nios2-elf/lib\libc.a(lib_a-callocr.o)
                                0x542 (size before relaxing)
 .debug_str     0x00002488       0x43 c:/altera/13.0sp1/nios2eds/bin/gnu/h-i686-mingw32/bin/../lib/gcc/nios2-elf/4.1.2/../../../../nios2-elf/lib\libc.a(lib_a-closer.o)
                                0x4fe (size before relaxing)
 .debug_str     0x000024cb       0x4b c:/altera/13.0sp1/nios2eds/bin/gnu/h-i686-mingw32/bin/../lib/gcc/nios2-elf/4.1.2/../../../../nios2-elf/lib\libc.a(lib_a-fclose.o)
                                0x516 (size before relaxing)
 .debug_str     0x00002516       0x49 c:/altera/13.0sp1/nios2eds/bin/gnu/h-i686-mingw32/bin/../lib/gcc/nios2-elf/4.1.2/../../../../nios2-elf/lib\libc.a(lib_a-fstatr.o)
                                0x5f1 (size before relaxing)
 .debug_str     0x0000255f       0x45 c:/altera/13.0sp1/nios2eds/bin/gnu/h-i686-mingw32/bin/../lib/gcc/nios2-elf/4.1.2/../../../../nios2-elf/lib\libc.a(lib_a-isattyr.o)
                                0x500 (size before relaxing)
 .debug_str     0x000025a4       0x43 c:/altera/13.0sp1/nios2eds/bin/gnu/h-i686-mingw32/bin/../lib/gcc/nios2-elf/4.1.2/../../../../nios2-elf/lib\libc.a(lib_a-lseekr.o)
                                0x50c (size before relaxing)
 .debug_str     0x000025e7       0x41 c:/altera/13.0sp1/nios2eds/bin/gnu/h-i686-mingw32/bin/../lib/gcc/nios2-elf/4.1.2/../../../../nios2-elf/lib\libc.a(lib_a-readr.o)
                                0x50c (size before relaxing)
 .debug_str     0x00002628       0x35 c:/altera/13.0sp1/nios2eds/bin/gnu/h-i686-mingw32/bin/../lib/gcc/nios2-elf/4.1.2\libgcc.a(_udivdi3.o)
                                0x1f7 (size before relaxing)
 .debug_str     0x0000265d        0xa c:/altera/13.0sp1/nios2eds/bin/gnu/h-i686-mingw32/bin/../lib/gcc/nios2-elf/4.1.2\libgcc.a(_umoddi3.o)
                                0x1f7 (size before relaxing)
 .debug_str     0x00002667       0x35 c:/altera/13.0sp1/nios2eds/bin/gnu/h-i686-mingw32/bin/../lib/gcc/nios2-elf/4.1.2\libgcc.a(_div_df.o)
                                0x231 (size before relaxing)
 .debug_str     0x0000269c        0x8 c:/altera/13.0sp1/nios2eds/bin/gnu/h-i686-mingw32/bin/../lib/gcc/nios2-elf/4.1.2\libgcc.a(_eq_df.o)
                                0x1fe (size before relaxing)
 .debug_str     0x000026a4        0x8 c:/altera/13.0sp1/nios2eds/bin/gnu/h-i686-mingw32/bin/../lib/gcc/nios2-elf/4.1.2\libgcc.a(_ne_df.o)
                                0x1fe (size before relaxing)
 .debug_str     0x000026ac        0x8 c:/altera/13.0sp1/nios2eds/bin/gnu/h-i686-mingw32/bin/../lib/gcc/nios2-elf/4.1.2\libgcc.a(_gt_df.o)
                                0x1fe (size before relaxing)
 .debug_str     0x000026b4        0x8 c:/altera/13.0sp1/nios2eds/bin/gnu/h-i686-mingw32/bin/../lib/gcc/nios2-elf/4.1.2\libgcc.a(_lt_df.o)
                                0x1fe (size before relaxing)
 .debug_str     0x000026bc       0x11 c:/altera/13.0sp1/nios2eds/bin/gnu/h-i686-mingw32/bin/../lib/gcc/nios2-elf/4.1.2\libgcc.a(_si_to_df.o)
                                0x1de (size before relaxing)
 .debug_str     0x000026cd       0x76 c:/altera/13.0sp1/nios2eds/bin/gnu/h-i686-mingw32/bin/../lib/gcc/nios2-elf/4.1.2\libgcc.a(lib2-divmod.o)
                                0x1b4 (size before relaxing)
 .debug_str     0x00002743       0x1c ../rtc_socket_bsp/\libucosii_bsp.a(alt_exit.o)
 .debug_str     0x0000275f       0x2d ../rtc_socket_bsp/\libucosii_bsp.a(alt_flash_dev.o)
 .debug_str     0x0000278c       0x12 ../rtc_socket_bsp/\libucosii_bsp.a(alt_fstat.o)
 .debug_str     0x0000279e       0x12 ../rtc_socket_bsp/\libucosii_bsp.a(alt_gettod.o)
 .debug_str     0x000027b0       0x21 ../rtc_socket_bsp/\libucosii_bsp.a(alt_irq_register.o)
 .debug_str     0x000027d1       0x12 ../rtc_socket_bsp/\libucosii_bsp.a(alt_isatty.o)
 .debug_str     0x000027e3       0x12 ../rtc_socket_bsp/\libucosii_bsp.a(alt_lseek.o)
 .debug_str     0x000027f5       0x12 ../rtc_socket_bsp/\libucosii_bsp.a(alt_main.o)
 .debug_str     0x00002807       0x1a ../rtc_socket_bsp/\libucosii_bsp.a(alt_sbrk.o)
 .debug_str     0x00002821       0x1a ../rtc_socket_bsp/\libucosii_bsp.a(alt_tick.o)
 .debug_str     0x0000283b       0x12 ../rtc_socket_bsp/\libucosii_bsp.a(alt_usleep.o)
 .debug_str     0x0000284d       0x36 ../rtc_socket_bsp/\libucosii_bsp.a(alt_env_lock.o)
 .debug_str     0x00002883       0x36 ../rtc_socket_bsp/\libucosii_bsp.a(alt_malloc_lock.o)
 .debug_str     0x000028b9       0x46 ../rtc_socket_bsp/\libucosii_bsp.a(os_core.o)
 .debug_str     0x000028ff       0x2b ../rtc_socket_bsp/\libucosii_bsp.a(os_dbg.o)
 .debug_str     0x0000292a       0x4e ../rtc_socket_bsp/\libucosii_bsp.a(os_flag.o)
 .debug_str     0x00002978       0x2c ../rtc_socket_bsp/\libucosii_bsp.a(os_mem.o)
 .debug_str     0x000029a4       0x36 ../rtc_socket_bsp/\libucosii_bsp.a(os_q.o)
 .debug_str     0x000029da       0x36 ../rtc_socket_bsp/\libucosii_bsp.a(os_sem.o)
 .debug_str     0x00002a10       0x23 ../rtc_socket_bsp/\libucosii_bsp.a(os_task.o)
 .debug_str     0x00002a33       0x1f ../rtc_socket_bsp/\libucosii_bsp.a(os_time.o)
 .debug_str     0x00002a52       0x67 ../rtc_socket_bsp/\libucosii_bsp.a(alt_sys_init.o)
 .debug_str     0x00002ab9       0x82 ../rtc_socket_bsp/\libucosii_bsp.a(altera_avalon_cfi_flash.o)
 .debug_str     0x00002b3b       0x6d ../rtc_socket_bsp/\libucosii_bsp.a(altera_avalon_cfi_flash_table.o)
 .debug_str     0x00002ba8       0x90 ../rtc_socket_bsp/\libucosii_bsp.a(altera_avalon_epcs_flash_controller.o)
 .debug_str     0x00002c38       0x12 ../rtc_socket_bsp/\libucosii_bsp.a(altera_avalon_jtag_uart_fd.o)
 .debug_str     0x00002c4a       0x1a ../rtc_socket_bsp/\libucosii_bsp.a(altera_avalon_jtag_uart_init.o)
 .debug_str     0x00002c64       0x12 ../rtc_socket_bsp/\libucosii_bsp.a(altera_avalon_jtag_uart_ioctl.o)
 .debug_str     0x00002c76       0x22 ../rtc_socket_bsp/\libucosii_bsp.a(altera_avalon_jtag_uart_read.o)
 .debug_str     0x00002c98       0x22 ../rtc_socket_bsp/\libucosii_bsp.a(altera_avalon_jtag_uart_write.o)
 .debug_str     0x00002cba       0x25 ../rtc_socket_bsp/\libucosii_bsp.a(altera_avalon_lcd_16207.o)
 .debug_str     0x00002cdf       0x12 ../rtc_socket_bsp/\libucosii_bsp.a(altera_avalon_lcd_16207_fd.o)
 .debug_str     0x00002cf1       0x12 ../rtc_socket_bsp/\libucosii_bsp.a(altera_avalon_timer_sc.o)
 .debug_str     0x00002d03       0x12 ../rtc_socket_bsp/\libucosii_bsp.a(altera_avalon_uart_fd.o)
 .debug_str     0x00002d15       0x1f ../rtc_socket_bsp/\libucosii_bsp.a(altera_avalon_uart_init.o)
 .debug_str     0x00002d34       0x1a ../rtc_socket_bsp/\libucosii_bsp.a(altera_avalon_uart_read.o)
 .debug_str     0x00002d4e       0x1a ../rtc_socket_bsp/\libucosii_bsp.a(altera_avalon_uart_write.o)
 .debug_str     0x00002d68       0x2e ../rtc_socket_bsp/\libucosii_bsp.a(epcs_commands.o)
 .debug_str     0x00002d96       0x12 ../rtc_socket_bsp/\libucosii_bsp.a(alt_iniche_close.o)
 .debug_str     0x00002da8       0x12 ../rtc_socket_bsp/\libucosii_bsp.a(alt_iniche_dev.o)
 .debug_str     0x00002dba       0x12 ../rtc_socket_bsp/\libucosii_bsp.a(alt_iniche_read.o)
 .debug_str     0x00002dcc       0x12 ../rtc_socket_bsp/\libucosii_bsp.a(alt_iniche_write.o)
 .debug_str     0x00002dde       0x12 ../rtc_socket_bsp/\libucosii_bsp.a(ipnet.o)
 .debug_str     0x00002df0       0x12 ../rtc_socket_bsp/\libucosii_bsp.a(ipstart.o)
 .debug_str     0x00002e02       0x12 ../rtc_socket_bsp/\libucosii_bsp.a(igmp_cmn.o)
 .debug_str     0x00002e14       0x20 ../rtc_socket_bsp/\libucosii_bsp.a(bsdsock.o)
 .debug_str     0x00002e34       0x12 ../rtc_socket_bsp/\libucosii_bsp.a(cksum.o)
 .debug_str     0x00002e46       0x12 ../rtc_socket_bsp/\libucosii_bsp.a(in_utils.o)
 .debug_str     0x00002e58       0x12 ../rtc_socket_bsp/\libucosii_bsp.a(netmain.o)
 .debug_str     0x00002e6a       0x12 ../rtc_socket_bsp/\libucosii_bsp.a(parseip.o)
 .debug_str     0x00002e7c       0x12 ../rtc_socket_bsp/\libucosii_bsp.a(tk_crnos.o)
 .debug_str     0x00002e8e       0x2e ../rtc_socket_bsp/\libucosii_bsp.a(dhcpclnt.o)
 .debug_str     0x00002ebc       0x12 ../rtc_socket_bsp/\libucosii_bsp.a(dhcputil.o)
 .debug_str     0x00002ece       0x12 ../rtc_socket_bsp/\libucosii_bsp.a(pktalloc.o)
 .debug_str     0x00002ee0       0x12 ../rtc_socket_bsp/\libucosii_bsp.a(q.o)
 .debug_str     0x00002ef2       0x12 ../rtc_socket_bsp/\libucosii_bsp.a(udp_open.o)
 .debug_str     0x00002f04       0x20 ../rtc_socket_bsp/\libucosii_bsp.a(brdutils.o)
 .debug_str     0x00002f24       0x22 ../rtc_socket_bsp/\libucosii_bsp.a(osportco.o)
 .debug_str     0x00002f46       0x12 ../rtc_socket_bsp/\libucosii_bsp.a(targnios.o)
 .debug_str     0x00002f58       0x1e ../rtc_socket_bsp/\libucosii_bsp.a(nptcp.o)
 .debug_str     0x00002f76       0x12 ../rtc_socket_bsp/\libucosii_bsp.a(rawsock.o)
 .debug_str     0x00002f88       0x34 ../rtc_socket_bsp/\libucosii_bsp.a(sockcall.o)
 .debug_str     0x00002fbc       0x18 ../rtc_socket_bsp/\libucosii_bsp.a(socket.o)
 .debug_str     0x00002fd4       0x12 ../rtc_socket_bsp/\libucosii_bsp.a(socket2.o)
 .debug_str     0x00002fe6       0x12 ../rtc_socket_bsp/\libucosii_bsp.a(soselect.o)
 .debug_str     0x00002ff8       0x12 ../rtc_socket_bsp/\libucosii_bsp.a(tcp_in.o)
 .debug_str     0x0000300a       0x12 ../rtc_socket_bsp/\libucosii_bsp.a(tcp_out.o)
 .debug_str     0x0000301c       0x12 ../rtc_socket_bsp/\libucosii_bsp.a(tcp_subr.o)
 .debug_str     0x0000302e       0x12 ../rtc_socket_bsp/\libucosii_bsp.a(tcp_timr.o)
 .debug_str     0x00003040       0x12 ../rtc_socket_bsp/\libucosii_bsp.a(tcp_usr.o)
 .debug_str     0x00003052       0x12 ../rtc_socket_bsp/\libucosii_bsp.a(tcpport.o)
 .debug_str     0x00003064       0x1a ../rtc_socket_bsp/\libucosii_bsp.a(udpsock.o)
 .debug_str     0x0000307e       0x23 ../rtc_socket_bsp/\libucosii_bsp.a(alt_alarm_start.o)
 .debug_str     0x000030a1       0x12 ../rtc_socket_bsp/\libucosii_bsp.a(alt_busy_sleep.o)
 .debug_str     0x000030b3       0x12 ../rtc_socket_bsp/\libucosii_bsp.a(alt_close.o)
 .debug_str     0x000030c5       0x12 ../rtc_socket_bsp/\libucosii_bsp.a(alt_dcache_flush.o)
 .debug_str     0x000030d7       0x12 ../rtc_socket_bsp/\libucosii_bsp.a(alt_dev.o)
 .debug_str     0x000030e9       0x12 ../rtc_socket_bsp/\libucosii_bsp.a(alt_dev_llist_insert.o)
 .debug_str     0x000030fb       0x12 ../rtc_socket_bsp/\libucosii_bsp.a(alt_errno.o)
 .debug_str     0x0000310d       0x12 ../rtc_socket_bsp/\libucosii_bsp.a(alt_find_dev.o)
 .debug_str     0x0000311f       0x18 ../rtc_socket_bsp/\libucosii_bsp.a(alt_iic.o)
 .debug_str     0x00003137       0x1a ../rtc_socket_bsp/\libucosii_bsp.a(alt_iic_isr_register.o)
 .debug_str     0x00003151       0x12 ../rtc_socket_bsp/\libucosii_bsp.a(alt_io_redirect.o)
 .debug_str     0x00003163       0x12 ../rtc_socket_bsp/\libucosii_bsp.a(alt_irq_handler.o)
 .debug_str     0x00003175       0x12 ../rtc_socket_bsp/\libucosii_bsp.a(alt_open.o)
 .debug_str     0x00003187       0x12 ../rtc_socket_bsp/\libucosii_bsp.a(alt_read.o)
 .debug_str     0x00003199       0x12 ../rtc_socket_bsp/\libucosii_bsp.a(alt_release_fd.o)
 .debug_str     0x000031ab       0x12 ../rtc_socket_bsp/\libucosii_bsp.a(alt_remap_cached.o)
 .debug_str     0x000031bd       0x12 ../rtc_socket_bsp/\libucosii_bsp.a(alt_remap_uncached.o)
 .debug_str     0x000031cf       0x12 ../rtc_socket_bsp/\libucosii_bsp.a(alt_write.o)
 .debug_str     0x000031e1       0x12 ../rtc_socket_bsp/\libucosii_bsp.a(altera_nios2_qsys_irq.o)
 .debug_str     0x000031f3       0x20 ../rtc_socket_bsp/\libucosii_bsp.a(os_cpu_c.o)
 .debug_str     0x00003213       0x76 ../rtc_socket_bsp/\libucosii_bsp.a(altera_avalon_cfi_flash_amd.o)
 .debug_str     0x00003289       0x7d ../rtc_socket_bsp/\libucosii_bsp.a(altera_avalon_cfi_flash_intel.o)
 .debug_str     0x00003306       0x12 ../rtc_socket_bsp/\libucosii_bsp.a(allports.o)
 .debug_str     0x00003318       0x1b ../rtc_socket_bsp/\libucosii_bsp.a(timeouts.o)
 .debug_str     0x00003333       0x12 ../rtc_socket_bsp/\libucosii_bsp.a(tk_misc.o)
 .debug_str     0x00003345       0x12 ../rtc_socket_bsp/\libucosii_bsp.a(alt_iniche_fcntl.o)
 .debug_str     0x00003357       0x3d ../rtc_socket_bsp/\libucosii_bsp.a(et_arp.o)
 .debug_str     0x00003394       0x12 ../rtc_socket_bsp/\libucosii_bsp.a(iface.o)
 .debug_str     0x000033a6       0x2c ../rtc_socket_bsp/\libucosii_bsp.a(ip.o)
 .debug_str     0x000033d2       0x4e ../rtc_socket_bsp/\libucosii_bsp.a(ip_reasm.o)
 .debug_str     0x00003420       0x12 ../rtc_socket_bsp/\libucosii_bsp.a(ipdemux.o)
 .debug_str     0x00003432       0x12 ../rtc_socket_bsp/\libucosii_bsp.a(ipmc.o)
 .debug_str     0x00003444       0x12 ../rtc_socket_bsp/\libucosii_bsp.a(ipport.o)
 .debug_str     0x00003456       0x12 ../rtc_socket_bsp/\libucosii_bsp.a(ipraw.o)
 .debug_str     0x00003468       0x12 ../rtc_socket_bsp/\libucosii_bsp.a(iproute.o)
 .debug_str     0x0000347a       0x12 ../rtc_socket_bsp/\libucosii_bsp.a(udp.o)
 .debug_str     0x0000348c       0x12 ../rtc_socket_bsp/\libucosii_bsp.a(igmp.o)
 .debug_str     0x0000349e       0x20 ../rtc_socket_bsp/\libucosii_bsp.a(igmp2.o)
 .debug_str     0x000034be       0x12 ../rtc_socket_bsp/\libucosii_bsp.a(ipopt.o)
 .debug_str     0x000034d0       0x12 ../rtc_socket_bsp/\libucosii_bsp.a(u_mctest.o)
 .debug_str     0x000034e2       0x12 ../rtc_socket_bsp/\libucosii_bsp.a(dhcsetup.o)
 .debug_str     0x000034f4       0x1b ../rtc_socket_bsp/\libucosii_bsp.a(memdev.o)
 .debug_str     0x0000350f       0x12 ../rtc_socket_bsp/\libucosii_bsp.a(tcpcksum.o)
 .debug_str     0x00003521       0x12 ../rtc_socket_bsp/\libucosii_bsp.a(in_pcb.o)
 .debug_str     0x00003533       0x2b ../rtc_socket_bsp/\libucosii_bsp.a(vfsfiles.o)
 .debug_str     0x0000355e       0x12 ../rtc_socket_bsp/\libucosii_bsp.a(vfsport.o)
 .debug_str     0x00003570       0x12 ../rtc_socket_bsp/\libucosii_bsp.a(alt_fcntl.o)
 .debug_str     0x00003582       0x12 ../rtc_socket_bsp/\libucosii_bsp.a(alt_find_file.o)
 .debug_str     0x00003594       0x12 ../rtc_socket_bsp/\libucosii_bsp.a(alt_get_fd.o)
 .debug_str     0x000035a6       0x12 ../rtc_socket_bsp/\libucosii_bsp.a(icmp.o)
 .debug_str     0x000035b8       0x3b c:/altera/13.0sp1/nios2eds/bin/gnu/h-i686-mingw32/bin/../lib/gcc/nios2-elf/4.1.2/../../../../nios2-elf/lib\libc.a(lib_a-atexit.o)
                                0x1bf (size before relaxing)
 .debug_str     0x000035f3       0x42 c:/altera/13.0sp1/nios2eds/bin/gnu/h-i686-mingw32/bin/../lib/gcc/nios2-elf/4.1.2/../../../../nios2-elf/lib\libc.a(lib_a-calloc.o)
                                0x510 (size before relaxing)
 .debug_str     0x00003635       0x47 c:/altera/13.0sp1/nios2eds/bin/gnu/h-i686-mingw32/bin/../lib/gcc/nios2-elf/4.1.2/../../../../nios2-elf/lib\libc.a(lib_a-malloc.o)
                                0x51c (size before relaxing)
 .debug_str     0x0000367c       0x42 c:/altera/13.0sp1/nios2eds/bin/gnu/h-i686-mingw32/bin/../lib/gcc/nios2-elf/4.1.2/../../../../nios2-elf/lib\libc.a(lib_a-memcmp.o)
                                0x16a (size before relaxing)
 .debug_str     0x000036be       0x42 c:/altera/13.0sp1/nios2eds/bin/gnu/h-i686-mingw32/bin/../lib/gcc/nios2-elf/4.1.2/../../../../nios2-elf/lib\libc.a(lib_a-strcpy.o)
                                0x185 (size before relaxing)
 .debug_str     0x00003700       0x44 c:/altera/13.0sp1/nios2eds/bin/gnu/h-i686-mingw32/bin/../lib/gcc/nios2-elf/4.1.2/../../../../nios2-elf/lib\libc.a(lib_a-strncmp.o)
                                0x16c (size before relaxing)
 .debug_str     0x00003744       0x44 c:/altera/13.0sp1/nios2eds/bin/gnu/h-i686-mingw32/bin/../lib/gcc/nios2-elf/4.1.2/../../../../nios2-elf/lib\libc.a(lib_a-strncpy.o)
                                0x194 (size before relaxing)
 .debug_str     0x00003788       0x4e c:/altera/13.0sp1/nios2eds/bin/gnu/h-i686-mingw32/bin/../lib/gcc/nios2-elf/4.1.2/../../../../nios2-elf/lib\libc.a(lib_a-vprintf.o)
                                0x526 (size before relaxing)
 .debug_str     0x000037d6       0x51 c:/altera/13.0sp1/nios2eds/bin/gnu/h-i686-mingw32/bin/../lib/gcc/nios2-elf/4.1.2/../../../../nios2-elf/lib\libc.a(lib_a-vsprintf.o)
                                0x52e (size before relaxing)
 .debug_str     0x00003827       0x51 c:/altera/13.0sp1/nios2eds/bin/gnu/h-i686-mingw32/bin/../lib/gcc/nios2-elf/4.1.2/../../../../nios2-elf/lib\libc.a(lib_a-__atexit.o)
                                0x524 (size before relaxing)

.debug_loc      0x00000000    0x13f27
 *(.debug_loc)
 .debug_loc     0x00000000      0x103 obj/default/LCD.o
 .debug_loc     0x00000103       0x56 obj/default/SSS_DE2_115.o
 .debug_loc     0x00000159       0x81 obj/default/alt_error_handler.o
 .debug_loc     0x000001da      0x25a obj/default/dm9000a.o
 .debug_loc     0x00000434       0x58 obj/default/iniche_init.o
 .debug_loc     0x0000048c       0x81 obj/default/led.o
 .debug_loc     0x0000050d      0x103 obj/default/network_utilities.o
 .debug_loc     0x00000610      0x15b obj/default/simple_socket_server.o
 .debug_loc     0x0000076b       0x87 c:/altera/13.0sp1/nios2eds/bin/gnu/h-i686-mingw32/bin/../lib/gcc/nios2-elf/4.1.2\libgcc.a(_fixunsdfsi.o)
 .debug_loc     0x000007f2      0x47a c:/altera/13.0sp1/nios2eds/bin/gnu/h-i686-mingw32/bin/../lib/gcc/nios2-elf/4.1.2\libgcc.a(_addsub_df.o)
 .debug_loc     0x00000c6c      0x3b4 c:/altera/13.0sp1/nios2eds/bin/gnu/h-i686-mingw32/bin/../lib/gcc/nios2-elf/4.1.2\libgcc.a(_mul_df.o)
 .debug_loc     0x00001020       0x70 c:/altera/13.0sp1/nios2eds/bin/gnu/h-i686-mingw32/bin/../lib/gcc/nios2-elf/4.1.2\libgcc.a(_ge_df.o)
 .debug_loc     0x00001090       0x8b c:/altera/13.0sp1/nios2eds/bin/gnu/h-i686-mingw32/bin/../lib/gcc/nios2-elf/4.1.2\libgcc.a(_df_to_si.o)
 .debug_loc     0x0000111b       0x5b c:/altera/13.0sp1/nios2eds/bin/gnu/h-i686-mingw32/bin/../lib/gcc/nios2-elf/4.1.2\libgcc.a(_usi_to_df.o)
 .debug_loc     0x00001176       0xc4 c:/altera/13.0sp1/nios2eds/bin/gnu/h-i686-mingw32/bin/../lib/gcc/nios2-elf/4.1.2\libgcc.a(_muldi3.o)
 .debug_loc     0x0000123a       0x1e c:/altera/13.0sp1/nios2eds/bin/gnu/h-i686-mingw32/bin/../lib/gcc/nios2-elf/4.1.2\libgcc.a(_clzsi2.o)
 .debug_loc     0x00001258      0x184 c:/altera/13.0sp1/nios2eds/bin/gnu/h-i686-mingw32/bin/../lib/gcc/nios2-elf/4.1.2\libgcc.a(_pack_df.o)
 .debug_loc     0x000013dc       0xe5 c:/altera/13.0sp1/nios2eds/bin/gnu/h-i686-mingw32/bin/../lib/gcc/nios2-elf/4.1.2\libgcc.a(_unpack_df.o)
 .debug_loc     0x000014c1       0x39 c:/altera/13.0sp1/nios2eds/bin/gnu/h-i686-mingw32/bin/../lib/gcc/nios2-elf/4.1.2/../../../../nios2-elf/lib\libc.a(lib_a-atoi.o)
 .debug_loc     0x000014fa       0x3d c:/altera/13.0sp1/nios2eds/bin/gnu/h-i686-mingw32/bin/../lib/gcc/nios2-elf/4.1.2/../../../../nios2-elf/lib\libc.a(lib_a-exit.o)
 .debug_loc     0x00001537       0xf1 c:/altera/13.0sp1/nios2eds/bin/gnu/h-i686-mingw32/bin/../lib/gcc/nios2-elf/4.1.2/../../../../nios2-elf/lib\libc.a(lib_a-fprintf.o)
 .debug_loc     0x00001628      0x18e c:/altera/13.0sp1/nios2eds/bin/gnu/h-i686-mingw32/bin/../lib/gcc/nios2-elf/4.1.2/../../../../nios2-elf/lib\libc.a(lib_a-fwrite.o)
 .debug_loc     0x000017b6      0x10b c:/altera/13.0sp1/nios2eds/bin/gnu/h-i686-mingw32/bin/../lib/gcc/nios2-elf/4.1.2/../../../../nios2-elf/lib\libc.a(lib_a-getc.o)
 .debug_loc     0x000018c1       0xca c:/altera/13.0sp1/nios2eds/bin/gnu/h-i686-mingw32/bin/../lib/gcc/nios2-elf/4.1.2/../../../../nios2-elf/lib\libc.a(lib_a-memcpy.o)
 .debug_loc     0x0000198b      0x117 c:/altera/13.0sp1/nios2eds/bin/gnu/h-i686-mingw32/bin/../lib/gcc/nios2-elf/4.1.2/../../../../nios2-elf/lib\libc.a(lib_a-memmove.o)
 .debug_loc     0x00001aa2       0xa1 c:/altera/13.0sp1/nios2eds/bin/gnu/h-i686-mingw32/bin/../lib/gcc/nios2-elf/4.1.2/../../../../nios2-elf/lib\libc.a(lib_a-memset.o)
 .debug_loc     0x00001b43       0xa2 c:/altera/13.0sp1/nios2eds/bin/gnu/h-i686-mingw32/bin/../lib/gcc/nios2-elf/4.1.2/../../../../nios2-elf/lib\libc.a(lib_a-perror.o)
 .debug_loc     0x00001be5       0xcb c:/altera/13.0sp1/nios2eds/bin/gnu/h-i686-mingw32/bin/../lib/gcc/nios2-elf/4.1.2/../../../../nios2-elf/lib\libc.a(lib_a-printf.o)
 .debug_loc     0x00001cb0      0x20d c:/altera/13.0sp1/nios2eds/bin/gnu/h-i686-mingw32/bin/../lib/gcc/nios2-elf/4.1.2/../../../../nios2-elf/lib\libc.a(lib_a-putc.o)
 .debug_loc     0x00001ebd       0x44 c:/altera/13.0sp1/nios2eds/bin/gnu/h-i686-mingw32/bin/../lib/gcc/nios2-elf/4.1.2/../../../../nios2-elf/lib\libc.a(lib_a-putchar.o)
 .debug_loc     0x00001f01       0xa2 c:/altera/13.0sp1/nios2eds/bin/gnu/h-i686-mingw32/bin/../lib/gcc/nios2-elf/4.1.2/../../../../nios2-elf/lib\libc.a(lib_a-puts.o)
 .debug_loc     0x00001fa3       0x42 c:/altera/13.0sp1/nios2eds/bin/gnu/h-i686-mingw32/bin/../lib/gcc/nios2-elf/4.1.2/../../../../nios2-elf/lib\libc.a(lib_a-rand.o)
 .debug_loc     0x00001fe5       0x6e c:/altera/13.0sp1/nios2eds/bin/gnu/h-i686-mingw32/bin/../lib/gcc/nios2-elf/4.1.2/../../../../nios2-elf/lib\libc.a(lib_a-rget.o)
 .debug_loc     0x00002053       0xc0 c:/altera/13.0sp1/nios2eds/bin/gnu/h-i686-mingw32/bin/../lib/gcc/nios2-elf/4.1.2/../../../../nios2-elf/lib\libc.a(lib_a-sprintf.o)
 .debug_loc     0x00002113       0xf3 c:/altera/13.0sp1/nios2eds/bin/gnu/h-i686-mingw32/bin/../lib/gcc/nios2-elf/4.1.2/../../../../nios2-elf/lib\libc.a(lib_a-strchr.o)
 .debug_loc     0x00002206       0x65 c:/altera/13.0sp1/nios2eds/bin/gnu/h-i686-mingw32/bin/../lib/gcc/nios2-elf/4.1.2/../../../../nios2-elf/lib\libc.a(lib_a-strcmp.o)
 .debug_loc     0x0000226b      0x418 c:/altera/13.0sp1/nios2eds/bin/gnu/h-i686-mingw32/bin/../lib/gcc/nios2-elf/4.1.2/../../../../nios2-elf/lib\libc.a(lib_a-strerror.o)
 .debug_loc     0x00002683       0x3c c:/altera/13.0sp1/nios2eds/bin/gnu/h-i686-mingw32/bin/../lib/gcc/nios2-elf/4.1.2/../../../../nios2-elf/lib\libc.a(lib_a-strlen.o)
 .debug_loc     0x000026bf      0x346 c:/altera/13.0sp1/nios2eds/bin/gnu/h-i686-mingw32/bin/../lib/gcc/nios2-elf/4.1.2/../../../../nios2-elf/lib\libc.a(lib_a-strtol.o)
 .debug_loc     0x00002a05       0x48 c:/altera/13.0sp1/nios2eds/bin/gnu/h-i686-mingw32/bin/../lib/gcc/nios2-elf/4.1.2/../../../../nios2-elf/lib\libc.a(lib_a-time.o)
 .debug_loc     0x00002a4d     0x1e0d c:/altera/13.0sp1/nios2eds/bin/gnu/h-i686-mingw32/bin/../lib/gcc/nios2-elf/4.1.2/../../../../nios2-elf/lib\libc.a(lib_a-vfprintf.o)
 .debug_loc     0x0000485a      0x157 c:/altera/13.0sp1/nios2eds/bin/gnu/h-i686-mingw32/bin/../lib/gcc/nios2-elf/4.1.2/../../../../nios2-elf/lib\libc.a(lib_a-wbuf.o)
 .debug_loc     0x000049b1       0x7c c:/altera/13.0sp1/nios2eds/bin/gnu/h-i686-mingw32/bin/../lib/gcc/nios2-elf/4.1.2/../../../../nios2-elf/lib\libc.a(lib_a-wsetup.o)
 .debug_loc     0x00004a2d      0x1cb c:/altera/13.0sp1/nios2eds/bin/gnu/h-i686-mingw32/bin/../lib/gcc/nios2-elf/4.1.2/../../../../nios2-elf/lib\libc.a(lib_a-__call_atexit.o)
 .debug_loc     0x00004bf8     0x1dfa c:/altera/13.0sp1/nios2eds/bin/gnu/h-i686-mingw32/bin/../lib/gcc/nios2-elf/4.1.2/../../../../nios2-elf/lib\libc.a(lib_a-dtoa.o)
 .debug_loc     0x000069f2      0x1f6 c:/altera/13.0sp1/nios2eds/bin/gnu/h-i686-mingw32/bin/../lib/gcc/nios2-elf/4.1.2/../../../../nios2-elf/lib\libc.a(lib_a-fflush.o)
 .debug_loc     0x00006be8      0x19f c:/altera/13.0sp1/nios2eds/bin/gnu/h-i686-mingw32/bin/../lib/gcc/nios2-elf/4.1.2/../../../../nios2-elf/lib\libc.a(lib_a-findfp.o)
 .debug_loc     0x00006d87      0x14d c:/altera/13.0sp1/nios2eds/bin/gnu/h-i686-mingw32/bin/../lib/gcc/nios2-elf/4.1.2/../../../../nios2-elf/lib\libc.a(lib_a-fputc.o)
 .debug_loc     0x00006ed4       0xcb c:/altera/13.0sp1/nios2eds/bin/gnu/h-i686-mingw32/bin/../lib/gcc/nios2-elf/4.1.2/../../../../nios2-elf/lib\libc.a(lib_a-fputs.o)
 .debug_loc     0x00006f9f      0x4a7 c:/altera/13.0sp1/nios2eds/bin/gnu/h-i686-mingw32/bin/../lib/gcc/nios2-elf/4.1.2/../../../../nios2-elf/lib\libc.a(lib_a-freer.o)
 .debug_loc     0x00007446      0x4e4 c:/altera/13.0sp1/nios2eds/bin/gnu/h-i686-mingw32/bin/../lib/gcc/nios2-elf/4.1.2/../../../../nios2-elf/lib\libc.a(lib_a-fvwrite.o)
 .debug_loc     0x0000792a      0x1d2 c:/altera/13.0sp1/nios2eds/bin/gnu/h-i686-mingw32/bin/../lib/gcc/nios2-elf/4.1.2/../../../../nios2-elf/lib\libc.a(lib_a-fwalk.o)
 .debug_loc     0x00007afc       0x79 c:/altera/13.0sp1/nios2eds/bin/gnu/h-i686-mingw32/bin/../lib/gcc/nios2-elf/4.1.2/../../../../nios2-elf/lib\libc.a(lib_a-gettimeofdayr.o)
 .debug_loc     0x00007b75       0xe1 c:/altera/13.0sp1/nios2eds/bin/gnu/h-i686-mingw32/bin/../lib/gcc/nios2-elf/4.1.2/../../../../nios2-elf/lib\libc.a(lib_a-locale.o)
 .debug_loc     0x00007c56      0x11c c:/altera/13.0sp1/nios2eds/bin/gnu/h-i686-mingw32/bin/../lib/gcc/nios2-elf/4.1.2/../../../../nios2-elf/lib\libc.a(lib_a-makebuf.o)
 .debug_loc     0x00007d72      0xaeb c:/altera/13.0sp1/nios2eds/bin/gnu/h-i686-mingw32/bin/../lib/gcc/nios2-elf/4.1.2/../../../../nios2-elf/lib\libc.a(lib_a-mallocr.o)
 .debug_loc     0x0000885d      0x106 c:/altera/13.0sp1/nios2eds/bin/gnu/h-i686-mingw32/bin/../lib/gcc/nios2-elf/4.1.2/../../../../nios2-elf/lib\libc.a(lib_a-memchr.o)
 .debug_loc     0x00008963     0x14d6 c:/altera/13.0sp1/nios2eds/bin/gnu/h-i686-mingw32/bin/../lib/gcc/nios2-elf/4.1.2/../../../../nios2-elf/lib\libc.a(lib_a-mprec.o)
 .debug_loc     0x00009e39      0x8c0 c:/altera/13.0sp1/nios2eds/bin/gnu/h-i686-mingw32/bin/../lib/gcc/nios2-elf/4.1.2/../../../../nios2-elf/lib\libc.a(lib_a-reallocr.o)
 .debug_loc     0x0000a6f9       0xd1 c:/altera/13.0sp1/nios2eds/bin/gnu/h-i686-mingw32/bin/../lib/gcc/nios2-elf/4.1.2/../../../../nios2-elf/lib\libc.a(lib_a-refill.o)
 .debug_loc     0x0000a7ca       0x36 c:/altera/13.0sp1/nios2eds/bin/gnu/h-i686-mingw32/bin/../lib/gcc/nios2-elf/4.1.2/../../../../nios2-elf/lib\libc.a(lib_a-s_isinfd.o)
 .debug_loc     0x0000a800       0x18 c:/altera/13.0sp1/nios2eds/bin/gnu/h-i686-mingw32/bin/../lib/gcc/nios2-elf/4.1.2/../../../../nios2-elf/lib\libc.a(lib_a-s_isnand.o)
 .debug_loc     0x0000a818       0x5b c:/altera/13.0sp1/nios2eds/bin/gnu/h-i686-mingw32/bin/../lib/gcc/nios2-elf/4.1.2/../../../../nios2-elf/lib\libc.a(lib_a-sbrkr.o)
 .debug_loc     0x0000a873      0x21f c:/altera/13.0sp1/nios2eds/bin/gnu/h-i686-mingw32/bin/../lib/gcc/nios2-elf/4.1.2/../../../../nios2-elf/lib\libc.a(lib_a-stdio.o)
 .debug_loc     0x0000aa92       0x97 c:/altera/13.0sp1/nios2eds/bin/gnu/h-i686-mingw32/bin/../lib/gcc/nios2-elf/4.1.2/../../../../nios2-elf/lib\libc.a(lib_a-writer.o)
 .debug_loc     0x0000ab29       0xe9 c:/altera/13.0sp1/nios2eds/bin/gnu/h-i686-mingw32/bin/../lib/gcc/nios2-elf/4.1.2/../../../../nios2-elf/lib\libc.a(lib_a-callocr.o)
 .debug_loc     0x0000ac12       0x5b c:/altera/13.0sp1/nios2eds/bin/gnu/h-i686-mingw32/bin/../lib/gcc/nios2-elf/4.1.2/../../../../nios2-elf/lib\libc.a(lib_a-closer.o)
 .debug_loc     0x0000ac6d       0xe4 c:/altera/13.0sp1/nios2eds/bin/gnu/h-i686-mingw32/bin/../lib/gcc/nios2-elf/4.1.2/../../../../nios2-elf/lib\libc.a(lib_a-fclose.o)
 .debug_loc     0x0000ad51       0x79 c:/altera/13.0sp1/nios2eds/bin/gnu/h-i686-mingw32/bin/../lib/gcc/nios2-elf/4.1.2/../../../../nios2-elf/lib\libc.a(lib_a-fstatr.o)
 .debug_loc     0x0000adca       0x5b c:/altera/13.0sp1/nios2eds/bin/gnu/h-i686-mingw32/bin/../lib/gcc/nios2-elf/4.1.2/../../../../nios2-elf/lib\libc.a(lib_a-isattyr.o)
 .debug_loc     0x0000ae25       0x97 c:/altera/13.0sp1/nios2eds/bin/gnu/h-i686-mingw32/bin/../lib/gcc/nios2-elf/4.1.2/../../../../nios2-elf/lib\libc.a(lib_a-lseekr.o)
 .debug_loc     0x0000aebc       0x97 c:/altera/13.0sp1/nios2eds/bin/gnu/h-i686-mingw32/bin/../lib/gcc/nios2-elf/4.1.2/../../../../nios2-elf/lib\libc.a(lib_a-readr.o)
 .debug_loc     0x0000af53      0xc12 c:/altera/13.0sp1/nios2eds/bin/gnu/h-i686-mingw32/bin/../lib/gcc/nios2-elf/4.1.2\libgcc.a(_udivdi3.o)
 .debug_loc     0x0000bb65      0xc26 c:/altera/13.0sp1/nios2eds/bin/gnu/h-i686-mingw32/bin/../lib/gcc/nios2-elf/4.1.2\libgcc.a(_umoddi3.o)
 .debug_loc     0x0000c78b      0x1df c:/altera/13.0sp1/nios2eds/bin/gnu/h-i686-mingw32/bin/../lib/gcc/nios2-elf/4.1.2\libgcc.a(_div_df.o)
 .debug_loc     0x0000c96a       0x70 c:/altera/13.0sp1/nios2eds/bin/gnu/h-i686-mingw32/bin/../lib/gcc/nios2-elf/4.1.2\libgcc.a(_eq_df.o)
 .debug_loc     0x0000c9da       0x70 c:/altera/13.0sp1/nios2eds/bin/gnu/h-i686-mingw32/bin/../lib/gcc/nios2-elf/4.1.2\libgcc.a(_ne_df.o)
 .debug_loc     0x0000ca4a       0x70 c:/altera/13.0sp1/nios2eds/bin/gnu/h-i686-mingw32/bin/../lib/gcc/nios2-elf/4.1.2\libgcc.a(_gt_df.o)
 .debug_loc     0x0000caba       0x70 c:/altera/13.0sp1/nios2eds/bin/gnu/h-i686-mingw32/bin/../lib/gcc/nios2-elf/4.1.2\libgcc.a(_lt_df.o)
 .debug_loc     0x0000cb2a       0x9a c:/altera/13.0sp1/nios2eds/bin/gnu/h-i686-mingw32/bin/../lib/gcc/nios2-elf/4.1.2\libgcc.a(_si_to_df.o)
 .debug_loc     0x0000cbc4      0x1d2 c:/altera/13.0sp1/nios2eds/bin/gnu/h-i686-mingw32/bin/../lib/gcc/nios2-elf/4.1.2\libgcc.a(lib2-divmod.o)
 .debug_loc     0x0000cd96       0x56 ../rtc_socket_bsp/\libucosii_bsp.a(alt_exit.o)
 .debug_loc     0x0000cdec       0x56 ../rtc_socket_bsp/\libucosii_bsp.a(alt_flash_dev.o)
 .debug_loc     0x0000ce42       0x56 ../rtc_socket_bsp/\libucosii_bsp.a(alt_fstat.o)
 .debug_loc     0x0000ce98       0x2b ../rtc_socket_bsp/\libucosii_bsp.a(alt_gettod.o)
 .debug_loc     0x0000cec3       0x2c ../rtc_socket_bsp/\libucosii_bsp.a(alt_irq_register.o)
 .debug_loc     0x0000ceef       0x57 ../rtc_socket_bsp/\libucosii_bsp.a(alt_isatty.o)
 .debug_loc     0x0000cf46       0x56 ../rtc_socket_bsp/\libucosii_bsp.a(alt_lseek.o)
 .debug_loc     0x0000cf9c       0x2b ../rtc_socket_bsp/\libucosii_bsp.a(alt_main.o)
 .debug_loc     0x0000cfc7       0x2b ../rtc_socket_bsp/\libucosii_bsp.a(alt_sbrk.o)
 .debug_loc     0x0000cff2       0x56 ../rtc_socket_bsp/\libucosii_bsp.a(alt_tick.o)
 .debug_loc     0x0000d048       0x2b ../rtc_socket_bsp/\libucosii_bsp.a(alt_usleep.o)
 .debug_loc     0x0000d073       0x57 ../rtc_socket_bsp/\libucosii_bsp.a(alt_env_lock.o)
 .debug_loc     0x0000d0ca       0x57 ../rtc_socket_bsp/\libucosii_bsp.a(alt_malloc_lock.o)
 .debug_loc     0x0000d121      0x5e2 ../rtc_socket_bsp/\libucosii_bsp.a(os_core.o)
 .debug_loc     0x0000d703       0x2b ../rtc_socket_bsp/\libucosii_bsp.a(os_dbg.o)
 .debug_loc     0x0000d72e      0x232 ../rtc_socket_bsp/\libucosii_bsp.a(os_flag.o)
 .debug_loc     0x0000d960      0x12d ../rtc_socket_bsp/\libucosii_bsp.a(os_mem.o)
 .debug_loc     0x0000da8d      0x1da ../rtc_socket_bsp/\libucosii_bsp.a(os_q.o)
 .debug_loc     0x0000dc67      0x158 ../rtc_socket_bsp/\libucosii_bsp.a(os_sem.o)
 .debug_loc     0x0000ddbf      0x207 ../rtc_socket_bsp/\libucosii_bsp.a(os_task.o)
 .debug_loc     0x0000dfc6       0xd7 ../rtc_socket_bsp/\libucosii_bsp.a(os_time.o)
 .debug_loc     0x0000e09d       0x81 ../rtc_socket_bsp/\libucosii_bsp.a(alt_sys_init.o)
 .debug_loc     0x0000e11e      0x12e ../rtc_socket_bsp/\libucosii_bsp.a(altera_avalon_cfi_flash.o)
 .debug_loc     0x0000e24c      0x306 ../rtc_socket_bsp/\libucosii_bsp.a(altera_avalon_cfi_flash_table.o)
 .debug_loc     0x0000e552      0x1af ../rtc_socket_bsp/\libucosii_bsp.a(altera_avalon_epcs_flash_controller.o)
 .debug_loc     0x0000e701       0xac ../rtc_socket_bsp/\libucosii_bsp.a(altera_avalon_jtag_uart_fd.o)
 .debug_loc     0x0000e7ad       0xac ../rtc_socket_bsp/\libucosii_bsp.a(altera_avalon_jtag_uart_init.o)
 .debug_loc     0x0000e859       0x2b ../rtc_socket_bsp/\libucosii_bsp.a(altera_avalon_jtag_uart_ioctl.o)
 .debug_loc     0x0000e884       0x2c ../rtc_socket_bsp/\libucosii_bsp.a(altera_avalon_jtag_uart_read.o)
 .debug_loc     0x0000e8b0       0x2c ../rtc_socket_bsp/\libucosii_bsp.a(altera_avalon_jtag_uart_write.o)
 .debug_loc     0x0000e8dc      0x184 ../rtc_socket_bsp/\libucosii_bsp.a(altera_avalon_lcd_16207.o)
 .debug_loc     0x0000ea60       0x2b ../rtc_socket_bsp/\libucosii_bsp.a(altera_avalon_lcd_16207_fd.o)
 .debug_loc     0x0000ea8b       0x56 ../rtc_socket_bsp/\libucosii_bsp.a(altera_avalon_timer_sc.o)
 .debug_loc     0x0000eae1       0x81 ../rtc_socket_bsp/\libucosii_bsp.a(altera_avalon_uart_fd.o)
 .debug_loc     0x0000eb62       0xd8 ../rtc_socket_bsp/\libucosii_bsp.a(altera_avalon_uart_init.o)
 .debug_loc     0x0000ec3a       0x57 ../rtc_socket_bsp/\libucosii_bsp.a(altera_avalon_uart_read.o)
 .debug_loc     0x0000ec91       0x57 ../rtc_socket_bsp/\libucosii_bsp.a(altera_avalon_uart_write.o)
 .debug_loc     0x0000ece8      0x204 ../rtc_socket_bsp/\libucosii_bsp.a(epcs_commands.o)
 .debug_loc     0x0000eeec       0x2b ../rtc_socket_bsp/\libucosii_bsp.a(alt_iniche_close.o)
 .debug_loc     0x0000ef17       0x2b ../rtc_socket_bsp/\libucosii_bsp.a(alt_iniche_dev.o)
 .debug_loc     0x0000ef42       0x2b ../rtc_socket_bsp/\libucosii_bsp.a(alt_iniche_read.o)
 .debug_loc     0x0000ef6d       0x2b ../rtc_socket_bsp/\libucosii_bsp.a(alt_iniche_write.o)
 .debug_loc     0x0000ef98      0x102 ../rtc_socket_bsp/\libucosii_bsp.a(ipnet.o)
 .debug_loc     0x0000f09a       0xac ../rtc_socket_bsp/\libucosii_bsp.a(ipstart.o)
 .debug_loc     0x0000f146      0x159 ../rtc_socket_bsp/\libucosii_bsp.a(igmp_cmn.o)
 .debug_loc     0x0000f29f      0x1af ../rtc_socket_bsp/\libucosii_bsp.a(bsdsock.o)
 .debug_loc     0x0000f44e       0x56 ../rtc_socket_bsp/\libucosii_bsp.a(cksum.o)
 .debug_loc     0x0000f4a4      0x204 ../rtc_socket_bsp/\libucosii_bsp.a(in_utils.o)
 .debug_loc     0x0000f6a8       0x81 ../rtc_socket_bsp/\libucosii_bsp.a(netmain.o)
 .debug_loc     0x0000f729      0x183 ../rtc_socket_bsp/\libucosii_bsp.a(parseip.o)
 .debug_loc     0x0000f8ac      0x12f ../rtc_socket_bsp/\libucosii_bsp.a(tk_crnos.o)
 .debug_loc     0x0000f9db      0x35c ../rtc_socket_bsp/\libucosii_bsp.a(dhcpclnt.o)
 .debug_loc     0x0000fd37       0x2b ../rtc_socket_bsp/\libucosii_bsp.a(dhcputil.o)
 .debug_loc     0x0000fd62      0x102 ../rtc_socket_bsp/\libucosii_bsp.a(pktalloc.o)
 .debug_loc     0x0000fe64       0x81 ../rtc_socket_bsp/\libucosii_bsp.a(q.o)
 .debug_loc     0x0000fee5       0x56 ../rtc_socket_bsp/\libucosii_bsp.a(udp_open.o)
 .debug_loc     0x0000ff3b      0x158 ../rtc_socket_bsp/\libucosii_bsp.a(brdutils.o)
 .debug_loc     0x00010093       0xd8 ../rtc_socket_bsp/\libucosii_bsp.a(osportco.o)
 .debug_loc     0x0001016b      0x183 ../rtc_socket_bsp/\libucosii_bsp.a(targnios.o)
 .debug_loc     0x000102ee      0x306 ../rtc_socket_bsp/\libucosii_bsp.a(nptcp.o)
 .debug_loc     0x000105f4       0x82 ../rtc_socket_bsp/\libucosii_bsp.a(rawsock.o)
 .debug_loc     0x00010676      0x332 ../rtc_socket_bsp/\libucosii_bsp.a(sockcall.o)
 .debug_loc     0x000109a8      0x2b1 ../rtc_socket_bsp/\libucosii_bsp.a(socket.o)
 .debug_loc     0x00010c59      0x3dd ../rtc_socket_bsp/\libucosii_bsp.a(socket2.o)
 .debug_loc     0x00011036      0x184 ../rtc_socket_bsp/\libucosii_bsp.a(soselect.o)
 .debug_loc     0x000111ba      0x12e ../rtc_socket_bsp/\libucosii_bsp.a(tcp_in.o)
 .debug_loc     0x000112e8       0x82 ../rtc_socket_bsp/\libucosii_bsp.a(tcp_out.o)
 .debug_loc     0x0001136a      0x183 ../rtc_socket_bsp/\libucosii_bsp.a(tcp_subr.o)
 .debug_loc     0x000114ed       0x81 ../rtc_socket_bsp/\libucosii_bsp.a(tcp_timr.o)
 .debug_loc     0x0001156e       0xac ../rtc_socket_bsp/\libucosii_bsp.a(tcp_usr.o)
 .debug_loc     0x0001161a       0x2b ../rtc_socket_bsp/\libucosii_bsp.a(tcpport.o)
 .debug_loc     0x00011645      0x102 ../rtc_socket_bsp/\libucosii_bsp.a(udpsock.o)
 .debug_loc     0x00011747       0x2b ../rtc_socket_bsp/\libucosii_bsp.a(alt_alarm_start.o)
 .debug_loc     0x00011772       0x2b ../rtc_socket_bsp/\libucosii_bsp.a(alt_busy_sleep.o)
 .debug_loc     0x0001179d       0x56 ../rtc_socket_bsp/\libucosii_bsp.a(alt_close.o)
 .debug_loc     0x000117f3       0x2b ../rtc_socket_bsp/\libucosii_bsp.a(alt_dcache_flush.o)
 .debug_loc     0x0001181e       0x2b ../rtc_socket_bsp/\libucosii_bsp.a(alt_dev.o)
 .debug_loc     0x00011849       0x56 ../rtc_socket_bsp/\libucosii_bsp.a(alt_dev_llist_insert.o)
 .debug_loc     0x0001189f       0x2b ../rtc_socket_bsp/\libucosii_bsp.a(alt_do_ctors.o)
 .debug_loc     0x000118ca       0x2b ../rtc_socket_bsp/\libucosii_bsp.a(alt_do_dtors.o)
 .debug_loc     0x000118f5       0x2b ../rtc_socket_bsp/\libucosii_bsp.a(alt_find_dev.o)
 .debug_loc     0x00011920       0xac ../rtc_socket_bsp/\libucosii_bsp.a(alt_iic.o)
 .debug_loc     0x000119cc       0x2b ../rtc_socket_bsp/\libucosii_bsp.a(alt_iic_isr_register.o)
 .debug_loc     0x000119f7       0x56 ../rtc_socket_bsp/\libucosii_bsp.a(alt_io_redirect.o)
 .debug_loc     0x00011a4d       0x2b ../rtc_socket_bsp/\libucosii_bsp.a(alt_irq_handler.o)
 .debug_loc     0x00011a78       0x81 ../rtc_socket_bsp/\libucosii_bsp.a(alt_open.o)
 .debug_loc     0x00011af9       0x56 ../rtc_socket_bsp/\libucosii_bsp.a(alt_read.o)
 .debug_loc     0x00011b4f       0x2b ../rtc_socket_bsp/\libucosii_bsp.a(alt_release_fd.o)
 .debug_loc     0x00011b7a       0x2b ../rtc_socket_bsp/\libucosii_bsp.a(alt_remap_cached.o)
 .debug_loc     0x00011ba5       0x2b ../rtc_socket_bsp/\libucosii_bsp.a(alt_remap_uncached.o)
 .debug_loc     0x00011bd0       0x56 ../rtc_socket_bsp/\libucosii_bsp.a(alt_write.o)
 .debug_loc     0x00011c26       0x2b ../rtc_socket_bsp/\libucosii_bsp.a(altera_nios2_qsys_irq.o)
 .debug_loc     0x00011c51      0x1ae ../rtc_socket_bsp/\libucosii_bsp.a(os_cpu_c.o)
 .debug_loc     0x00011dff       0xac ../rtc_socket_bsp/\libucosii_bsp.a(altera_avalon_cfi_flash_amd.o)
 .debug_loc     0x00011eab       0xac ../rtc_socket_bsp/\libucosii_bsp.a(altera_avalon_cfi_flash_intel.o)
 .debug_loc     0x00011f57       0x2b ../rtc_socket_bsp/\libucosii_bsp.a(altera_avalon_spi.o)
 .debug_loc     0x00011f82      0x12d ../rtc_socket_bsp/\libucosii_bsp.a(allports.o)
 .debug_loc     0x000120af       0xac ../rtc_socket_bsp/\libucosii_bsp.a(timeouts.o)
 .debug_loc     0x0001215b       0x56 ../rtc_socket_bsp/\libucosii_bsp.a(tk_misc.o)
 .debug_loc     0x000121b1       0x2b ../rtc_socket_bsp/\libucosii_bsp.a(alt_iniche_fcntl.o)
 .debug_loc     0x000121dc      0x204 ../rtc_socket_bsp/\libucosii_bsp.a(et_arp.o)
 .debug_loc     0x000123e0       0xac ../rtc_socket_bsp/\libucosii_bsp.a(iface.o)
 .debug_loc     0x0001248c      0x207 ../rtc_socket_bsp/\libucosii_bsp.a(ip.o)
 .debug_loc     0x00012693      0x2b2 ../rtc_socket_bsp/\libucosii_bsp.a(ip_reasm.o)
 .debug_loc     0x00012945       0x81 ../rtc_socket_bsp/\libucosii_bsp.a(ipdemux.o)
 .debug_loc     0x000129c6       0x81 ../rtc_socket_bsp/\libucosii_bsp.a(ipmc.o)
 .debug_loc     0x00012a47       0x81 ../rtc_socket_bsp/\libucosii_bsp.a(ipport.o)
 .debug_loc     0x00012ac8      0x102 ../rtc_socket_bsp/\libucosii_bsp.a(ipraw.o)
 .debug_loc     0x00012bca       0x81 ../rtc_socket_bsp/\libucosii_bsp.a(iproute.o)
 .debug_loc     0x00012c4b      0x12f ../rtc_socket_bsp/\libucosii_bsp.a(udp.o)
 .debug_loc     0x00012d7a       0x2b ../rtc_socket_bsp/\libucosii_bsp.a(igmp.o)
 .debug_loc     0x00012da5       0xd7 ../rtc_socket_bsp/\libucosii_bsp.a(igmp2.o)
 .debug_loc     0x00012e7c       0xac ../rtc_socket_bsp/\libucosii_bsp.a(ipopt.o)
 .debug_loc     0x00012f28       0x57 ../rtc_socket_bsp/\libucosii_bsp.a(u_mctest.o)
 .debug_loc     0x00012f7f       0x56 ../rtc_socket_bsp/\libucosii_bsp.a(dhcsetup.o)
 .debug_loc     0x00012fd5      0x183 ../rtc_socket_bsp/\libucosii_bsp.a(memdev.o)
 .debug_loc     0x00013158       0x2b ../rtc_socket_bsp/\libucosii_bsp.a(tcpcksum.o)
 .debug_loc     0x00013183      0x158 ../rtc_socket_bsp/\libucosii_bsp.a(in_pcb.o)
 .debug_loc     0x000132db      0x4b4 ../rtc_socket_bsp/\libucosii_bsp.a(vfsfiles.o)
 .debug_loc     0x0001378f       0x2b ../rtc_socket_bsp/\libucosii_bsp.a(vfsport.o)
 .debug_loc     0x000137ba       0x56 ../rtc_socket_bsp/\libucosii_bsp.a(alt_fcntl.o)
 .debug_loc     0x00013810       0x2b ../rtc_socket_bsp/\libucosii_bsp.a(alt_find_file.o)
 .debug_loc     0x0001383b       0x2b ../rtc_socket_bsp/\libucosii_bsp.a(alt_get_fd.o)
 .debug_loc     0x00013866       0xad ../rtc_socket_bsp/\libucosii_bsp.a(icmp.o)
 .debug_loc     0x00013913       0x1e c:/altera/13.0sp1/nios2eds/bin/gnu/h-i686-mingw32/bin/../lib/gcc/nios2-elf/4.1.2/../../../../nios2-elf/lib\libc.a(lib_a-atexit.o)
 .debug_loc     0x00013931       0x3c c:/altera/13.0sp1/nios2eds/bin/gnu/h-i686-mingw32/bin/../lib/gcc/nios2-elf/4.1.2/../../../../nios2-elf/lib\libc.a(lib_a-calloc.o)
 .debug_loc     0x0001396d       0x3c c:/altera/13.0sp1/nios2eds/bin/gnu/h-i686-mingw32/bin/../lib/gcc/nios2-elf/4.1.2/../../../../nios2-elf/lib\libc.a(lib_a-malloc.o)
 .debug_loc     0x000139a9      0x114 c:/altera/13.0sp1/nios2eds/bin/gnu/h-i686-mingw32/bin/../lib/gcc/nios2-elf/4.1.2/../../../../nios2-elf/lib\libc.a(lib_a-memcmp.o)
 .debug_loc     0x00013abd       0x8b c:/altera/13.0sp1/nios2eds/bin/gnu/h-i686-mingw32/bin/../lib/gcc/nios2-elf/4.1.2/../../../../nios2-elf/lib\libc.a(lib_a-strcpy.o)
 .debug_loc     0x00013b48       0x78 c:/altera/13.0sp1/nios2eds/bin/gnu/h-i686-mingw32/bin/../lib/gcc/nios2-elf/4.1.2/../../../../nios2-elf/lib\libc.a(lib_a-strncmp.o)
 .debug_loc     0x00013bc0       0xeb c:/altera/13.0sp1/nios2eds/bin/gnu/h-i686-mingw32/bin/../lib/gcc/nios2-elf/4.1.2/../../../../nios2-elf/lib\libc.a(lib_a-strncpy.o)
 .debug_loc     0x00013cab       0x8b c:/altera/13.0sp1/nios2eds/bin/gnu/h-i686-mingw32/bin/../lib/gcc/nios2-elf/4.1.2/../../../../nios2-elf/lib\libc.a(lib_a-vprintf.o)
 .debug_loc     0x00013d36       0xd1 c:/altera/13.0sp1/nios2eds/bin/gnu/h-i686-mingw32/bin/../lib/gcc/nios2-elf/4.1.2/../../../../nios2-elf/lib\libc.a(lib_a-vsprintf.o)
 .debug_loc     0x00013e07      0x120 c:/altera/13.0sp1/nios2eds/bin/gnu/h-i686-mingw32/bin/../lib/gcc/nios2-elf/4.1.2/../../../../nios2-elf/lib\libc.a(lib_a-__atexit.o)

.debug_macinfo
 *(.debug_macinfo)

.debug_weaknames
 *(.debug_weaknames)

.debug_funcnames
 *(.debug_funcnames)

.debug_typenames
 *(.debug_typenames)

.debug_varnames
 *(.debug_varnames)

.debug_alt_sim_info
                0x00000000       0x50
 *(.debug_alt_sim_info)
 .debug_alt_sim_info
                0x00000000       0x20 ../rtc_socket_bsp//obj/HAL/src/crt0.o
 .debug_alt_sim_info
                0x00000020       0x30 ../rtc_socket_bsp/\libucosii_bsp.a(alt_busy_sleep.o)
                0x01000000                __alt_data_end = 0x1000000
                0x01000000                PROVIDE (__alt_stack_pointer, __alt_data_end)
                0x00859f84                PROVIDE (__alt_stack_limit, __alt_stack_base)
                0x00859f84                PROVIDE (__alt_heap_start, end)
                0x01000000                PROVIDE (__alt_heap_limit, 0x1000000)
OUTPUT(rtc_socket.elf elf32-littlenios2)

.debug_ranges   0x00000000      0x9a0
 .debug_ranges  0x00000000       0x30 c:/altera/13.0sp1/nios2eds/bin/gnu/h-i686-mingw32/bin/../lib/gcc/nios2-elf/4.1.2\libgcc.a(_addsub_df.o)
 .debug_ranges  0x00000030       0x88 c:/altera/13.0sp1/nios2eds/bin/gnu/h-i686-mingw32/bin/../lib/gcc/nios2-elf/4.1.2\libgcc.a(_mul_df.o)
 .debug_ranges  0x000000b8       0x18 c:/altera/13.0sp1/nios2eds/bin/gnu/h-i686-mingw32/bin/../lib/gcc/nios2-elf/4.1.2\libgcc.a(_usi_to_df.o)
 .debug_ranges  0x000000d0       0x68 c:/altera/13.0sp1/nios2eds/bin/gnu/h-i686-mingw32/bin/../lib/gcc/nios2-elf/4.1.2\libgcc.a(_muldi3.o)
 .debug_ranges  0x00000138       0x28 c:/altera/13.0sp1/nios2eds/bin/gnu/h-i686-mingw32/bin/../lib/gcc/nios2-elf/4.1.2\libgcc.a(_clzsi2.o)
 .debug_ranges  0x00000160       0x28 c:/altera/13.0sp1/nios2eds/bin/gnu/h-i686-mingw32/bin/../lib/gcc/nios2-elf/4.1.2\libgcc.a(_pack_df.o)
 .debug_ranges  0x00000188      0x168 c:/altera/13.0sp1/nios2eds/bin/gnu/h-i686-mingw32/bin/../lib/gcc/nios2-elf/4.1.2/../../../../nios2-elf/lib\libc.a(lib_a-vfprintf.o)
 .debug_ranges  0x000002f0       0x18 c:/altera/13.0sp1/nios2eds/bin/gnu/h-i686-mingw32/bin/../lib/gcc/nios2-elf/4.1.2/../../../../nios2-elf/lib\libc.a(lib_a-__call_atexit.o)
 .debug_ranges  0x00000308       0x20 c:/altera/13.0sp1/nios2eds/bin/gnu/h-i686-mingw32/bin/../lib/gcc/nios2-elf/4.1.2/../../../../nios2-elf/lib\libc.a(lib_a-fflush.o)
 .debug_ranges  0x00000328       0x28 c:/altera/13.0sp1/nios2eds/bin/gnu/h-i686-mingw32/bin/../lib/gcc/nios2-elf/4.1.2/../../../../nios2-elf/lib\libc.a(lib_a-fvwrite.o)
 .debug_ranges  0x00000350       0xa0 c:/altera/13.0sp1/nios2eds/bin/gnu/h-i686-mingw32/bin/../lib/gcc/nios2-elf/4.1.2/../../../../nios2-elf/lib\libc.a(lib_a-fwalk.o)
 .debug_ranges  0x000003f0       0x70 c:/altera/13.0sp1/nios2eds/bin/gnu/h-i686-mingw32/bin/../lib/gcc/nios2-elf/4.1.2/../../../../nios2-elf/lib\libc.a(lib_a-mallocr.o)
 .debug_ranges  0x00000460      0x110 c:/altera/13.0sp1/nios2eds/bin/gnu/h-i686-mingw32/bin/../lib/gcc/nios2-elf/4.1.2/../../../../nios2-elf/lib\libc.a(lib_a-reallocr.o)
 .debug_ranges  0x00000570       0x38 c:/altera/13.0sp1/nios2eds/bin/gnu/h-i686-mingw32/bin/../lib/gcc/nios2-elf/4.1.2/../../../../nios2-elf/lib\libc.a(lib_a-callocr.o)
 .debug_ranges  0x000005a8      0x188 c:/altera/13.0sp1/nios2eds/bin/gnu/h-i686-mingw32/bin/../lib/gcc/nios2-elf/4.1.2\libgcc.a(_udivdi3.o)
 .debug_ranges  0x00000730      0x198 c:/altera/13.0sp1/nios2eds/bin/gnu/h-i686-mingw32/bin/../lib/gcc/nios2-elf/4.1.2\libgcc.a(_umoddi3.o)
 .debug_ranges  0x000008c8       0x50 c:/altera/13.0sp1/nios2eds/bin/gnu/h-i686-mingw32/bin/../lib/gcc/nios2-elf/4.1.2\libgcc.a(_div_df.o)
 .debug_ranges  0x00000918       0x18 ../rtc_socket_bsp/\libucosii_bsp.a(altera_avalon_jtag_uart_init.o)
 .debug_ranges  0x00000930       0x18 ../rtc_socket_bsp/\libucosii_bsp.a(altera_avalon_uart_init.o)
 .debug_ranges  0x00000948       0x28 ../rtc_socket_bsp/\libucosii_bsp.a(alt_irq_entry.o)
 .debug_ranges  0x00000970       0x30 ../rtc_socket_bsp/\libucosii_bsp.a(alt_exception_entry.o)
